
/proc/self/exe:     file format elf64-littleaarch64

Contents of the .eh_frame section:


00000000 0000000000000010 00000000 CIE
  Version:               1
  Augmentation:          "zR"
  Code alignment factor: 4
  Data alignment factor: -8
  Return address column: 30
  Augmentation data:     1b
  DW_CFA_def_cfa: r31 (sp) ofs 0

00000014 0000000000000010 00000018 FDE cie=00000000 pc=0000000000026600..0000000000026634
  DW_CFA_advance_loc: 4 to 0000000000026604
  DW_CFA_undefined: r30 (x30)

00000028 0000000000000010 0000002c FDE cie=00000000 pc=0000000000026650..0000000000026680
  DW_CFA_nop
  DW_CFA_nop
  DW_CFA_nop

0000003c 0000000000000010 00000040 FDE cie=00000000 pc=0000000000026680..00000000000266bc
  DW_CFA_nop
  DW_CFA_nop
  DW_CFA_nop

00000050 0000000000000020 00000054 FDE cie=00000000 pc=00000000000266c0..0000000000026708
  DW_CFA_advance_loc: 4 to 00000000000266c4
  DW_CFA_def_cfa_offset: 32
  DW_CFA_offset: r29 (x29) at cfa-32
  DW_CFA_offset: r30 (x30) at cfa-24
  DW_CFA_advance_loc: 8 to 00000000000266cc
  DW_CFA_offset: r19 (x19) at cfa-16
  DW_CFA_advance_loc: 56 to 0000000000026704
  DW_CFA_restore: r30 (x30)
  DW_CFA_restore: r29 (x29)
  DW_CFA_restore: r19 (x19)
  DW_CFA_def_cfa_offset: 0
  DW_CFA_nop
  DW_CFA_nop
  DW_CFA_nop

00000074 0000000000000010 00000078 FDE cie=00000000 pc=0000000000026710..0000000000026714
  DW_CFA_nop
  DW_CFA_nop
  DW_CFA_nop

00000088 0000000000000044 0000008c FDE cie=00000000 pc=0000000000026720..000000000002804c
  DW_CFA_advance_loc: 4 to 0000000000026724
  DW_CFA_def_cfa_offset: 368
  DW_CFA_offset: r29 (x29) at cfa-368
  DW_CFA_offset: r30 (x30) at cfa-360
  DW_CFA_advance_loc: 16 to 0000000000026734
  DW_CFA_offset: r19 (x19) at cfa-352
  DW_CFA_offset: r20 (x20) at cfa-344
  DW_CFA_advance_loc: 16 to 0000000000026744
  DW_CFA_offset: r21 (x21) at cfa-336
  DW_CFA_offset: r22 (x22) at cfa-328
  DW_CFA_advance_loc: 8 to 000000000002674c
  DW_CFA_offset: r23 (x23) at cfa-320
  DW_CFA_offset: r24 (x24) at cfa-312
  DW_CFA_advance_loc: 12 to 0000000000026758
  DW_CFA_offset: r25 (x25) at cfa-304
  DW_CFA_offset: r26 (x26) at cfa-296
  DW_CFA_advance_loc: 8 to 0000000000026760
  DW_CFA_offset: r27 (x27) at cfa-288
  DW_CFA_offset: r28 (x28) at cfa-280
  DW_CFA_advance_loc1: 916 to 0000000000026af4
  DW_CFA_remember_state
  DW_CFA_restore: r30 (x30)
  DW_CFA_restore: r29 (x29)
  DW_CFA_restore: r27 (x27)
  DW_CFA_restore: r28 (x28)
  DW_CFA_restore: r25 (x25)
  DW_CFA_restore: r26 (x26)
  DW_CFA_restore: r23 (x23)
  DW_CFA_restore: r24 (x24)
  DW_CFA_restore: r21 (x21)
  DW_CFA_restore: r22 (x22)
  DW_CFA_restore: r19 (x19)
  DW_CFA_restore: r20 (x20)
  DW_CFA_def_cfa_offset: 0
  DW_CFA_advance_loc: 4 to 0000000000026af8
  DW_CFA_restore_state
  DW_CFA_nop
  DW_CFA_nop
  DW_CFA_nop

000000d0 0000000000000060 000000d4 FDE cie=00000000 pc=0000000000028050..0000000000028540
  DW_CFA_advance_loc: 4 to 0000000000028054
  DW_CFA_def_cfa_offset: 128
  DW_CFA_offset: r29 (x29) at cfa-128
  DW_CFA_offset: r30 (x30) at cfa-120
  DW_CFA_advance_loc: 8 to 000000000002805c
  DW_CFA_offset: r19 (x19) at cfa-112
  DW_CFA_offset: r20 (x20) at cfa-104
  DW_CFA_advance_loc: 12 to 0000000000028068
  DW_CFA_offset: r22 (x22) at cfa-88
  DW_CFA_offset: r21 (x21) at cfa-96
  DW_CFA_advance_loc: 52 to 000000000002809c
  DW_CFA_restore: r22 (x22)
  DW_CFA_restore: r21 (x21)
  DW_CFA_advance_loc: 12 to 00000000000280a8
  DW_CFA_remember_state
  DW_CFA_restore: r30 (x30)
  DW_CFA_restore: r29 (x29)
  DW_CFA_restore: r19 (x19)
  DW_CFA_restore: r20 (x20)
  DW_CFA_def_cfa_offset: 0
  DW_CFA_advance_loc: 4 to 00000000000280ac
  DW_CFA_restore_state
  DW_CFA_advance_loc: 12 to 00000000000280b8
  DW_CFA_offset: r21 (x21) at cfa-96
  DW_CFA_offset: r22 (x22) at cfa-88
  DW_CFA_advance_loc: 20 to 00000000000280cc
  DW_CFA_offset: r24 (x24) at cfa-72
  DW_CFA_offset: r23 (x23) at cfa-80
  DW_CFA_advance_loc: 4 to 00000000000280d0
  DW_CFA_offset: r26 (x26) at cfa-56
  DW_CFA_offset: r25 (x25) at cfa-64
  DW_CFA_advance_loc: 140 to 000000000002815c
  DW_CFA_remember_state
  DW_CFA_restore: r22 (x22)
  DW_CFA_restore: r21 (x21)
  DW_CFA_advance_loc: 4 to 0000000000028160
  DW_CFA_restore: r24 (x24)
  DW_CFA_restore: r23 (x23)
  DW_CFA_advance_loc: 4 to 0000000000028164
  DW_CFA_restore: r26 (x26)
  DW_CFA_restore: r25 (x25)
  DW_CFA_advance_loc: 8 to 000000000002816c
  DW_CFA_restore_state
  DW_CFA_advance_loc: 120 to 00000000000281e4
  DW_CFA_offset: r28 (x28) at cfa-40
  DW_CFA_offset: r27 (x27) at cfa-48
  DW_CFA_advance_loc: 120 to 000000000002825c
  DW_CFA_restore: r28 (x28)
  DW_CFA_restore: r27 (x27)
  DW_CFA_advance_loc: 8 to 0000000000028264
  DW_CFA_offset: r28 (x28) at cfa-40
  DW_CFA_offset: r27 (x27) at cfa-48
  DW_CFA_advance_loc1: 276 to 0000000000028378
  DW_CFA_restore: r27 (x27)
  DW_CFA_restore: r28 (x28)
  DW_CFA_advance_loc: 4 to 000000000002837c
  DW_CFA_offset: r28 (x28) at cfa-40
  DW_CFA_offset: r27 (x27) at cfa-48
  DW_CFA_nop
  DW_CFA_nop
  DW_CFA_nop

00000134 0000000000000068 00000138 FDE cie=00000000 pc=0000000000028540..000000000002874c
  DW_CFA_advance_loc: 4 to 0000000000028544
  DW_CFA_def_cfa_offset: 192
  DW_CFA_offset: r29 (x29) at cfa-192
  DW_CFA_offset: r30 (x30) at cfa-184
  DW_CFA_advance_loc: 16 to 0000000000028554
  DW_CFA_offset: r19 (x19) at cfa-176
  DW_CFA_offset: r20 (x20) at cfa-168
  DW_CFA_advance_loc: 32 to 0000000000028574
  DW_CFA_offset: r21 (x21) at cfa-160
  DW_CFA_advance_loc: 116 to 00000000000285e8
  DW_CFA_remember_state
  DW_CFA_restore: r21 (x21)
  DW_CFA_advance_loc: 12 to 00000000000285f4
  DW_CFA_restore: r30 (x30)
  DW_CFA_restore: r29 (x29)
  DW_CFA_restore: r19 (x19)
  DW_CFA_restore: r20 (x20)
  DW_CFA_def_cfa_offset: 0
  DW_CFA_advance_loc: 4 to 00000000000285f8
  DW_CFA_restore_state
  DW_CFA_advance_loc: 4 to 00000000000285fc
  DW_CFA_restore: r21 (x21)
  DW_CFA_advance_loc: 44 to 0000000000028628
  DW_CFA_offset: r21 (x21) at cfa-160
  DW_CFA_advance_loc: 12 to 0000000000028634
  DW_CFA_remember_state
  DW_CFA_restore: r21 (x21)
  DW_CFA_advance_loc: 12 to 0000000000028640
  DW_CFA_restore: r30 (x30)
  DW_CFA_restore: r29 (x29)
  DW_CFA_restore: r19 (x19)
  DW_CFA_restore: r20 (x20)
  DW_CFA_def_cfa_offset: 0
  DW_CFA_advance_loc: 4 to 0000000000028644
  DW_CFA_restore_state
  DW_CFA_advance_loc: 20 to 0000000000028658
  DW_CFA_remember_state
  DW_CFA_restore: r21 (x21)
  DW_CFA_advance_loc: 8 to 0000000000028660
  DW_CFA_restore_state
  DW_CFA_advance_loc: 32 to 0000000000028680
  DW_CFA_restore: r21 (x21)
  DW_CFA_advance_loc: 12 to 000000000002868c
  DW_CFA_restore: r30 (x30)
  DW_CFA_restore: r29 (x29)
  DW_CFA_restore: r19 (x19)
  DW_CFA_restore: r20 (x20)
  DW_CFA_def_cfa_offset: 0
  DW_CFA_advance_loc: 4 to 0000000000028690
  DW_CFA_def_cfa_offset: 192
  DW_CFA_offset: r19 (x19) at cfa-176
  DW_CFA_offset: r20 (x20) at cfa-168
  DW_CFA_offset: r21 (x21) at cfa-160
  DW_CFA_offset: r29 (x29) at cfa-192
  DW_CFA_offset: r30 (x30) at cfa-184
  DW_CFA_advance_loc: 32 to 00000000000286b0
  DW_CFA_remember_state
  DW_CFA_restore: r21 (x21)
  DW_CFA_advance_loc: 4 to 00000000000286b4
  DW_CFA_restore_state
  DW_CFA_advance_loc: 32 to 00000000000286d4
  DW_CFA_remember_state
  DW_CFA_restore: r21 (x21)
  DW_CFA_advance_loc: 4 to 00000000000286d8
  DW_CFA_restore_state
  DW_CFA_advance_loc: 76 to 0000000000028724
  DW_CFA_remember_state
  DW_CFA_restore: r21 (x21)
  DW_CFA_advance_loc: 4 to 0000000000028728
  DW_CFA_restore_state
  DW_CFA_advance_loc: 32 to 0000000000028748
  DW_CFA_restore: r21 (x21)
  DW_CFA_nop

000001a0 0000000000000010 000001a4 FDE cie=00000000 pc=0000000000028750..00000000000287a4
  DW_CFA_nop
  DW_CFA_nop
  DW_CFA_nop

000001b4 0000000000000024 000001b8 FDE cie=00000000 pc=00000000000287a4..0000000000028830
  DW_CFA_advance_loc: 4 to 00000000000287a8
  DW_CFA_def_cfa_offset: 48
  DW_CFA_offset: r29 (x29) at cfa-48
  DW_CFA_offset: r30 (x30) at cfa-40
  DW_CFA_advance_loc: 16 to 00000000000287b8
  DW_CFA_offset: r19 (x19) at cfa-32
  DW_CFA_offset: r20 (x20) at cfa-24
  DW_CFA_advance_loc: 80 to 0000000000028808
  DW_CFA_remember_state
  DW_CFA_restore: r30 (x30)
  DW_CFA_restore: r29 (x29)
  DW_CFA_restore: r19 (x19)
  DW_CFA_restore: r20 (x20)
  DW_CFA_def_cfa_offset: 0
  DW_CFA_advance_loc: 4 to 000000000002880c
  DW_CFA_restore_state
  DW_CFA_nop

000001dc 000000000000003c 000001e0 FDE cie=00000000 pc=0000000000028830..0000000000028a94
  DW_CFA_advance_loc: 4 to 0000000000028834
  DW_CFA_def_cfa_offset: 80
  DW_CFA_offset: r29 (x29) at cfa-80
  DW_CFA_offset: r30 (x30) at cfa-72
  DW_CFA_advance_loc: 8 to 000000000002883c
  DW_CFA_offset: r19 (x19) at cfa-64
  DW_CFA_offset: r20 (x20) at cfa-56
  DW_CFA_advance_loc: 28 to 0000000000028858
  DW_CFA_offset: r21 (x21) at cfa-48
  DW_CFA_offset: r22 (x22) at cfa-40
  DW_CFA_offset: r23 (x23) at cfa-32
  DW_CFA_advance_loc: 140 to 00000000000288e4
  DW_CFA_remember_state
  DW_CFA_restore: r30 (x30)
  DW_CFA_restore: r29 (x29)
  DW_CFA_restore: r23 (x23)
  DW_CFA_restore: r21 (x21)
  DW_CFA_restore: r22 (x22)
  DW_CFA_restore: r19 (x19)
  DW_CFA_restore: r20 (x20)
  DW_CFA_def_cfa_offset: 0
  DW_CFA_advance_loc: 4 to 00000000000288e8
  DW_CFA_restore_state
  DW_CFA_advance_loc: 196 to 00000000000289ac
  DW_CFA_remember_state
  DW_CFA_restore: r30 (x30)
  DW_CFA_restore: r29 (x29)
  DW_CFA_restore: r23 (x23)
  DW_CFA_restore: r21 (x21)
  DW_CFA_restore: r22 (x22)
  DW_CFA_restore: r19 (x19)
  DW_CFA_restore: r20 (x20)
  DW_CFA_def_cfa_offset: 0
  DW_CFA_advance_loc: 4 to 00000000000289b0
  DW_CFA_restore_state
  DW_CFA_nop
  DW_CFA_nop

0000021c 0000000000000038 00000220 FDE cie=00000000 pc=0000000000025df0..0000000000025f00
  DW_CFA_advance_loc: 12 to 0000000000025dfc
  DW_CFA_def_cfa_offset: 32
  DW_CFA_offset: r29 (x29) at cfa-32
  DW_CFA_offset: r30 (x30) at cfa-24
  DW_CFA_advance_loc: 8 to 0000000000025e04
  DW_CFA_offset: r19 (x19) at cfa-16
  DW_CFA_advance_loc: 28 to 0000000000025e20
  DW_CFA_remember_state
  DW_CFA_restore: r30 (x30)
  DW_CFA_restore: r29 (x29)
  DW_CFA_restore: r19 (x19)
  DW_CFA_def_cfa_offset: 0
  DW_CFA_advance_loc: 4 to 0000000000025e24
  DW_CFA_restore_state
  DW_CFA_advance_loc: 20 to 0000000000025e38
  DW_CFA_remember_state
  DW_CFA_restore: r30 (x30)
  DW_CFA_restore: r29 (x29)
  DW_CFA_restore: r19 (x19)
  DW_CFA_def_cfa_offset: 0
  DW_CFA_advance_loc: 4 to 0000000000025e3c
  DW_CFA_restore_state
  DW_CFA_advance_loc: 24 to 0000000000025e54
  DW_CFA_restore: r30 (x30)
  DW_CFA_restore: r29 (x29)
  DW_CFA_restore: r19 (x19)
  DW_CFA_def_cfa_offset: 0
  DW_CFA_advance_loc: 12 to 0000000000025e60
  DW_CFA_def_cfa_offset: 32
  DW_CFA_offset: r19 (x19) at cfa-16
  DW_CFA_offset: r29 (x29) at cfa-32
  DW_CFA_offset: r30 (x30) at cfa-24

00000258 000000000000018c 0000025c FDE cie=00000000 pc=0000000000028a94..000000000002ac0c
  DW_CFA_advance_loc: 4 to 0000000000028a98
  DW_CFA_def_cfa_offset: 544
  DW_CFA_advance_loc: 4 to 0000000000028a9c
  DW_CFA_offset: r29 (x29) at cfa-544
  DW_CFA_offset: r30 (x30) at cfa-536
  DW_CFA_advance_loc: 8 to 0000000000028aa4
  DW_CFA_offset: r19 (x19) at cfa-528
  DW_CFA_offset: r20 (x20) at cfa-520
  DW_CFA_advance_loc: 24 to 0000000000028abc
  DW_CFA_offset: r21 (x21) at cfa-512
  DW_CFA_offset: r22 (x22) at cfa-504
  DW_CFA_offset: r27 (x27) at cfa-464
  DW_CFA_offset: r28 (x28) at cfa-456
  DW_CFA_advance_loc1: 452 to 0000000000028c80
  DW_CFA_offset: r24 (x24) at cfa-488
  DW_CFA_offset: r23 (x23) at cfa-496
  DW_CFA_advance_loc: 16 to 0000000000028c90
  DW_CFA_restore: r24 (x24)
  DW_CFA_restore: r23 (x23)
  DW_CFA_advance_loc1: 584 to 0000000000028ed8
  DW_CFA_remember_state
  DW_CFA_restore: r29 (x29)
  DW_CFA_restore: r30 (x30)
  DW_CFA_restore: r27 (x27)
  DW_CFA_restore: r28 (x28)
  DW_CFA_restore: r21 (x21)
  DW_CFA_restore: r22 (x22)
  DW_CFA_restore: r19 (x19)
  DW_CFA_restore: r20 (x20)
  DW_CFA_def_cfa_offset: 0
  DW_CFA_advance_loc: 4 to 0000000000028edc
  DW_CFA_restore_state
  DW_CFA_advance_loc: 200 to 0000000000028fa4
  DW_CFA_offset: r26 (x26) at cfa-472
  DW_CFA_offset: r25 (x25) at cfa-480
  DW_CFA_advance_loc: 100 to 0000000000029008
  DW_CFA_restore: r26 (x26)
  DW_CFA_restore: r25 (x25)
  DW_CFA_advance_loc1: 392 to 0000000000029190
  DW_CFA_offset: r25 (x25) at cfa-480
  DW_CFA_offset: r26 (x26) at cfa-472
  DW_CFA_advance_loc: 4 to 0000000000029194
  DW_CFA_restore: r26 (x26)
  DW_CFA_restore: r25 (x25)
  DW_CFA_advance_loc: 72 to 00000000000291dc
  DW_CFA_offset: r24 (x24) at cfa-488
  DW_CFA_offset: r23 (x23) at cfa-496
  DW_CFA_advance_loc: 4 to 00000000000291e0
  DW_CFA_offset: r26 (x26) at cfa-472
  DW_CFA_offset: r25 (x25) at cfa-480
  DW_CFA_advance_loc1: 648 to 0000000000029468
  DW_CFA_restore: r24 (x24)
  DW_CFA_restore: r23 (x23)
  DW_CFA_advance_loc: 4 to 000000000002946c
  DW_CFA_restore: r26 (x26)
  DW_CFA_restore: r25 (x25)
  DW_CFA_advance_loc: 244 to 0000000000029560
  DW_CFA_offset: r24 (x24) at cfa-488
  DW_CFA_offset: r23 (x23) at cfa-496
  DW_CFA_advance_loc: 124 to 00000000000295dc
  DW_CFA_restore: r24 (x24)
  DW_CFA_restore: r23 (x23)
  DW_CFA_advance_loc: 64 to 000000000002961c
  DW_CFA_offset: r25 (x25) at cfa-480
  DW_CFA_offset: r26 (x26) at cfa-472
  DW_CFA_advance_loc: 64 to 000000000002965c
  DW_CFA_offset: r24 (x24) at cfa-488
  DW_CFA_offset: r23 (x23) at cfa-496
  DW_CFA_advance_loc: 176 to 000000000002970c
  DW_CFA_restore: r24 (x24)
  DW_CFA_restore: r23 (x23)
  DW_CFA_advance_loc: 12 to 0000000000029718
  DW_CFA_restore: r25 (x25)
  DW_CFA_restore: r26 (x26)
  DW_CFA_advance_loc1: 348 to 0000000000029874
  DW_CFA_offset: r25 (x25) at cfa-480
  DW_CFA_offset: r26 (x26) at cfa-472
  DW_CFA_advance_loc: 44 to 00000000000298a0
  DW_CFA_restore: r26 (x26)
  DW_CFA_restore: r25 (x25)
  DW_CFA_advance_loc: 28 to 00000000000298bc
  DW_CFA_offset: r23 (x23) at cfa-496
  DW_CFA_offset: r24 (x24) at cfa-488
  DW_CFA_advance_loc: 108 to 0000000000029928
  DW_CFA_restore: r23 (x23)
  DW_CFA_restore: r24 (x24)
  DW_CFA_advance_loc: 168 to 00000000000299d0
  DW_CFA_remember_state
  DW_CFA_restore: r29 (x29)
  DW_CFA_restore: r30 (x30)
  DW_CFA_restore: r27 (x27)
  DW_CFA_restore: r28 (x28)
  DW_CFA_restore: r21 (x21)
  DW_CFA_restore: r22 (x22)
  DW_CFA_restore: r19 (x19)
  DW_CFA_restore: r20 (x20)
  DW_CFA_def_cfa_offset: 0
  DW_CFA_advance_loc: 4 to 00000000000299d4
  DW_CFA_restore_state
  DW_CFA_advance_loc: 244 to 0000000000029ac8
  DW_CFA_offset: r23 (x23) at cfa-496
  DW_CFA_offset: r24 (x24) at cfa-488
  DW_CFA_offset: r25 (x25) at cfa-480
  DW_CFA_offset: r26 (x26) at cfa-472
  DW_CFA_advance_loc: 16 to 0000000000029ad8
  DW_CFA_restore: r23 (x23)
  DW_CFA_restore: r24 (x24)
  DW_CFA_restore: r25 (x25)
  DW_CFA_restore: r26 (x26)
  DW_CFA_advance_loc: 64 to 0000000000029b18
  DW_CFA_offset: r23 (x23) at cfa-496
  DW_CFA_offset: r24 (x24) at cfa-488
  DW_CFA_offset: r25 (x25) at cfa-480
  DW_CFA_offset: r26 (x26) at cfa-472
  DW_CFA_advance_loc1: 316 to 0000000000029c54
  DW_CFA_restore: r23 (x23)
  DW_CFA_restore: r24 (x24)
  DW_CFA_restore: r25 (x25)
  DW_CFA_restore: r26 (x26)
  DW_CFA_advance_loc: 4 to 0000000000029c58
  DW_CFA_remember_state
  DW_CFA_offset: r24 (x24) at cfa-488
  DW_CFA_offset: r23 (x23) at cfa-496
  DW_CFA_advance_loc: 4 to 0000000000029c5c
  DW_CFA_offset: r26 (x26) at cfa-472
  DW_CFA_offset: r25 (x25) at cfa-480
  DW_CFA_advance_loc: 4 to 0000000000029c60
  DW_CFA_restore_state
  DW_CFA_advance_loc: 252 to 0000000000029d5c
  DW_CFA_offset: r23 (x23) at cfa-496
  DW_CFA_offset: r24 (x24) at cfa-488
  DW_CFA_offset: r25 (x25) at cfa-480
  DW_CFA_offset: r26 (x26) at cfa-472
  DW_CFA_advance_loc: 64 to 0000000000029d9c
  DW_CFA_restore: r23 (x23)
  DW_CFA_restore: r24 (x24)
  DW_CFA_restore: r25 (x25)
  DW_CFA_restore: r26 (x26)
  DW_CFA_advance_loc: 36 to 0000000000029dc0
  DW_CFA_offset: r23 (x23) at cfa-496
  DW_CFA_offset: r24 (x24) at cfa-488
  DW_CFA_offset: r25 (x25) at cfa-480
  DW_CFA_offset: r26 (x26) at cfa-472
  DW_CFA_advance_loc: 32 to 0000000000029de0
  DW_CFA_restore: r25 (x25)
  DW_CFA_restore: r26 (x26)
  DW_CFA_advance_loc: 8 to 0000000000029de8
  DW_CFA_restore: r23 (x23)
  DW_CFA_restore: r24 (x24)
  DW_CFA_advance_loc: 60 to 0000000000029e24
  DW_CFA_offset: r24 (x24) at cfa-488
  DW_CFA_offset: r23 (x23) at cfa-496
  DW_CFA_advance_loc: 4 to 0000000000029e28
  DW_CFA_offset: r26 (x26) at cfa-472
  DW_CFA_offset: r25 (x25) at cfa-480
  DW_CFA_advance_loc: 8 to 0000000000029e30
  DW_CFA_restore: r23 (x23)
  DW_CFA_restore: r24 (x24)
  DW_CFA_restore: r25 (x25)
  DW_CFA_restore: r26 (x26)
  DW_CFA_advance_loc: 84 to 0000000000029e84
  DW_CFA_remember_state
  DW_CFA_offset: r24 (x24) at cfa-488
  DW_CFA_offset: r23 (x23) at cfa-496
  DW_CFA_advance_loc: 4 to 0000000000029e88
  DW_CFA_offset: r26 (x26) at cfa-472
  DW_CFA_offset: r25 (x25) at cfa-480
  DW_CFA_advance_loc: 4 to 0000000000029e8c
  DW_CFA_restore_state
  DW_CFA_advance_loc: 52 to 0000000000029ec0
  DW_CFA_remember_state
  DW_CFA_offset: r24 (x24) at cfa-488
  DW_CFA_offset: r23 (x23) at cfa-496
  DW_CFA_advance_loc: 4 to 0000000000029ec4
  DW_CFA_offset: r26 (x26) at cfa-472
  DW_CFA_offset: r25 (x25) at cfa-480
  DW_CFA_advance_loc: 4 to 0000000000029ec8
  DW_CFA_restore_state
  DW_CFA_advance_loc: 12 to 0000000000029ed4
  DW_CFA_offset: r23 (x23) at cfa-496
  DW_CFA_offset: r24 (x24) at cfa-488
  DW_CFA_offset: r25 (x25) at cfa-480
  DW_CFA_offset: r26 (x26) at cfa-472
  DW_CFA_advance_loc: 72 to 0000000000029f1c
  DW_CFA_restore: r25 (x25)
  DW_CFA_restore: r26 (x26)
  DW_CFA_advance_loc: 8 to 0000000000029f24
  DW_CFA_offset: r26 (x26) at cfa-472
  DW_CFA_offset: r25 (x25) at cfa-480
  DW_CFA_advance_loc: 12 to 0000000000029f30
  DW_CFA_restore: r23 (x23)
  DW_CFA_restore: r24 (x24)
  DW_CFA_restore: r25 (x25)
  DW_CFA_restore: r26 (x26)
  DW_CFA_advance_loc: 132 to 0000000000029fb4
  DW_CFA_offset: r23 (x23) at cfa-496
  DW_CFA_offset: r24 (x24) at cfa-488
  DW_CFA_offset: r25 (x25) at cfa-480
  DW_CFA_offset: r26 (x26) at cfa-472
  DW_CFA_advance_loc: 140 to 000000000002a040
  DW_CFA_restore: r23 (x23)
  DW_CFA_restore: r24 (x24)
  DW_CFA_restore: r25 (x25)
  DW_CFA_restore: r26 (x26)
  DW_CFA_advance_loc: 8 to 000000000002a048
  DW_CFA_offset: r24 (x24) at cfa-488
  DW_CFA_offset: r23 (x23) at cfa-496
  DW_CFA_advance_loc: 8 to 000000000002a050
  DW_CFA_offset: r26 (x26) at cfa-472
  DW_CFA_offset: r25 (x25) at cfa-480
  DW_CFA_advance_loc1: 304 to 000000000002a180
  DW_CFA_restore: r24 (x24)
  DW_CFA_restore: r23 (x23)
  DW_CFA_advance_loc: 4 to 000000000002a184
  DW_CFA_restore: r26 (x26)
  DW_CFA_restore: r25 (x25)
  DW_CFA_advance_loc1: 460 to 000000000002a350
  DW_CFA_offset: r23 (x23) at cfa-496
  DW_CFA_offset: r24 (x24) at cfa-488
  DW_CFA_offset: r25 (x25) at cfa-480
  DW_CFA_offset: r26 (x26) at cfa-472
  DW_CFA_advance_loc1: 616 to 000000000002a5b8
  DW_CFA_remember_state
  DW_CFA_restore: r24 (x24)
  DW_CFA_restore: r23 (x23)
  DW_CFA_advance_loc: 4 to 000000000002a5bc
  DW_CFA_restore: r26 (x26)
  DW_CFA_restore: r25 (x25)
  DW_CFA_advance_loc: 8 to 000000000002a5c4
  DW_CFA_restore_state
  DW_CFA_advance_loc1: 588 to 000000000002a810
  DW_CFA_remember_state
  DW_CFA_restore: r24 (x24)
  DW_CFA_restore: r23 (x23)
  DW_CFA_advance_loc: 4 to 000000000002a814
  DW_CFA_restore: r26 (x26)
  DW_CFA_restore: r25 (x25)
  DW_CFA_advance_loc: 8 to 000000000002a81c
  DW_CFA_restore_state
  DW_CFA_advance_loc1: 488 to 000000000002aa04
  DW_CFA_restore: r23 (x23)
  DW_CFA_restore: r24 (x24)
  DW_CFA_restore: r25 (x25)
  DW_CFA_restore: r26 (x26)
  DW_CFA_advance_loc: 48 to 000000000002aa34
  DW_CFA_offset: r23 (x23) at cfa-496
  DW_CFA_offset: r24 (x24) at cfa-488
  DW_CFA_offset: r25 (x25) at cfa-480
  DW_CFA_offset: r26 (x26) at cfa-472
  DW_CFA_advance_loc: 88 to 000000000002aa8c
  DW_CFA_restore: r23 (x23)
  DW_CFA_restore: r24 (x24)
  DW_CFA_restore: r25 (x25)
  DW_CFA_restore: r26 (x26)
  DW_CFA_advance_loc: 8 to 000000000002aa94
  DW_CFA_offset: r23 (x23) at cfa-496
  DW_CFA_offset: r24 (x24) at cfa-488
  DW_CFA_offset: r25 (x25) at cfa-480
  DW_CFA_offset: r26 (x26) at cfa-472
  DW_CFA_advance_loc: 88 to 000000000002aaec
  DW_CFA_restore: r23 (x23)
  DW_CFA_restore: r24 (x24)
  DW_CFA_restore: r25 (x25)
  DW_CFA_restore: r26 (x26)
  DW_CFA_advance_loc: 144 to 000000000002ab7c
  DW_CFA_offset: r23 (x23) at cfa-496
  DW_CFA_offset: r24 (x24) at cfa-488
  DW_CFA_offset: r25 (x25) at cfa-480
  DW_CFA_offset: r26 (x26) at cfa-472
  DW_CFA_advance_loc: 4 to 000000000002ab80
  DW_CFA_restore: r24 (x24)
  DW_CFA_restore: r23 (x23)
  DW_CFA_advance_loc: 4 to 000000000002ab84
  DW_CFA_restore: r25 (x25)
  DW_CFA_restore: r26 (x26)
  DW_CFA_nop
  DW_CFA_nop
  DW_CFA_nop

000003e8 000000000000002c 000003ec FDE cie=00000000 pc=000000000002ac10..000000000002acb8
  DW_CFA_advance_loc: 4 to 000000000002ac14
  DW_CFA_def_cfa_offset: 32
  DW_CFA_offset: r29 (x29) at cfa-32
  DW_CFA_offset: r30 (x30) at cfa-24
  DW_CFA_advance_loc: 8 to 000000000002ac1c
  DW_CFA_offset: r19 (x19) at cfa-16
  DW_CFA_offset: r20 (x20) at cfa-8
  DW_CFA_advance_loc: 72 to 000000000002ac64
  DW_CFA_remember_state
  DW_CFA_restore: r30 (x30)
  DW_CFA_restore: r29 (x29)
  DW_CFA_restore: r19 (x19)
  DW_CFA_restore: r20 (x20)
  DW_CFA_def_cfa_offset: 0
  DW_CFA_advance_loc: 20 to 000000000002ac78
  DW_CFA_restore_state
  DW_CFA_advance_loc: 48 to 000000000002aca8
  DW_CFA_restore: r30 (x30)
  DW_CFA_restore: r29 (x29)
  DW_CFA_restore: r19 (x19)
  DW_CFA_restore: r20 (x20)
  DW_CFA_def_cfa_offset: 0
  DW_CFA_nop
  DW_CFA_nop

00000418 0000000000000018 0000041c FDE cie=00000000 pc=000000000002acc0..000000000002ad48
  DW_CFA_advance_loc: 4 to 000000000002acc4
  DW_CFA_def_cfa_offset: 288
  DW_CFA_offset: r29 (x29) at cfa-288
  DW_CFA_offset: r30 (x30) at cfa-280
  DW_CFA_nop
  DW_CFA_nop
  DW_CFA_nop

00000434 0000000000000088 00000438 FDE cie=00000000 pc=000000000002ad50..000000000002b1ac
  DW_CFA_advance_loc: 4 to 000000000002ad54
  DW_CFA_def_cfa_offset: 224
  DW_CFA_offset: r29 (x29) at cfa-224
  DW_CFA_offset: r30 (x30) at cfa-216
  DW_CFA_advance_loc: 16 to 000000000002ad64
  DW_CFA_offset: r27 (x27) at cfa-144
  DW_CFA_offset: r28 (x28) at cfa-136
  DW_CFA_advance_loc: 80 to 000000000002adb4
  DW_CFA_offset: r24 (x24) at cfa-168
  DW_CFA_offset: r23 (x23) at cfa-176
  DW_CFA_advance_loc: 80 to 000000000002ae04
  DW_CFA_offset: r20 (x20) at cfa-200
  DW_CFA_offset: r19 (x19) at cfa-208
  DW_CFA_advance_loc: 100 to 000000000002ae68
  DW_CFA_offset: r22 (x22) at cfa-184
  DW_CFA_offset: r21 (x21) at cfa-192
  DW_CFA_advance_loc: 8 to 000000000002ae70
  DW_CFA_offset: r26 (x26) at cfa-152
  DW_CFA_offset: r25 (x25) at cfa-160
  DW_CFA_advance_loc1: 448 to 000000000002b030
  DW_CFA_restore: r20 (x20)
  DW_CFA_restore: r19 (x19)
  DW_CFA_advance_loc: 4 to 000000000002b034
  DW_CFA_restore: r22 (x22)
  DW_CFA_restore: r21 (x21)
  DW_CFA_advance_loc: 4 to 000000000002b038
  DW_CFA_restore: r24 (x24)
  DW_CFA_restore: r23 (x23)
  DW_CFA_advance_loc: 4 to 000000000002b03c
  DW_CFA_restore: r26 (x26)
  DW_CFA_restore: r25 (x25)
  DW_CFA_advance_loc: 36 to 000000000002b060
  DW_CFA_restore: r30 (x30)
  DW_CFA_restore: r29 (x29)
  DW_CFA_restore: r27 (x27)
  DW_CFA_restore: r28 (x28)
  DW_CFA_def_cfa_offset: 0
  DW_CFA_advance_loc: 4 to 000000000002b064
  DW_CFA_def_cfa_offset: 224
  DW_CFA_offset: r19 (x19) at cfa-208
  DW_CFA_offset: r20 (x20) at cfa-200
  DW_CFA_offset: r21 (x21) at cfa-192
  DW_CFA_offset: r22 (x22) at cfa-184
  DW_CFA_offset: r23 (x23) at cfa-176
  DW_CFA_offset: r24 (x24) at cfa-168
  DW_CFA_offset: r25 (x25) at cfa-160
  DW_CFA_offset: r26 (x26) at cfa-152
  DW_CFA_offset: r27 (x27) at cfa-144
  DW_CFA_offset: r28 (x28) at cfa-136
  DW_CFA_offset: r29 (x29) at cfa-224
  DW_CFA_offset: r30 (x30) at cfa-216
  DW_CFA_advance_loc: 116 to 000000000002b0d8
  DW_CFA_restore: r19 (x19)
  DW_CFA_restore: r20 (x20)
  DW_CFA_restore: r21 (x21)
  DW_CFA_restore: r22 (x22)
  DW_CFA_restore: r25 (x25)
  DW_CFA_restore: r26 (x26)
  DW_CFA_advance_loc: 64 to 000000000002b118
  DW_CFA_restore: r24 (x24)
  DW_CFA_restore: r23 (x23)
  DW_CFA_advance_loc: 8 to 000000000002b120
  DW_CFA_offset: r20 (x20) at cfa-200
  DW_CFA_offset: r19 (x19) at cfa-208
  DW_CFA_advance_loc: 4 to 000000000002b124
  DW_CFA_offset: r22 (x22) at cfa-184
  DW_CFA_offset: r21 (x21) at cfa-192
  DW_CFA_advance_loc: 4 to 000000000002b128
  DW_CFA_offset: r24 (x24) at cfa-168
  DW_CFA_offset: r23 (x23) at cfa-176
  DW_CFA_advance_loc: 4 to 000000000002b12c
  DW_CFA_offset: r26 (x26) at cfa-152
  DW_CFA_offset: r25 (x25) at cfa-160
  DW_CFA_advance_loc: 20 to 000000000002b140
  DW_CFA_restore: r21 (x21)
  DW_CFA_restore: r22 (x22)
  DW_CFA_restore: r25 (x25)
  DW_CFA_restore: r26 (x26)
  DW_CFA_advance_loc: 100 to 000000000002b1a4
  DW_CFA_restore: r20 (x20)
  DW_CFA_restore: r19 (x19)
  DW_CFA_advance_loc: 4 to 000000000002b1a8
  DW_CFA_restore: r24 (x24)
  DW_CFA_restore: r23 (x23)
  DW_CFA_nop

000004c0 0000000000000024 000004c4 FDE cie=00000000 pc=000000000002b1b0..000000000002b234
  DW_CFA_advance_loc: 12 to 000000000002b1bc
  DW_CFA_def_cfa_offset: 112
  DW_CFA_offset: r29 (x29) at cfa-112
  DW_CFA_offset: r30 (x30) at cfa-104
  DW_CFA_advance_loc: 8 to 000000000002b1c4
  DW_CFA_offset: r21 (x21) at cfa-80
  DW_CFA_advance_loc: 12 to 000000000002b1d0
  DW_CFA_offset: r19 (x19) at cfa-96
  DW_CFA_offset: r20 (x20) at cfa-88
  DW_CFA_advance_loc: 96 to 000000000002b230
  DW_CFA_restore: r30 (x30)
  DW_CFA_restore: r29 (x29)
  DW_CFA_restore: r21 (x21)
  DW_CFA_restore: r19 (x19)
  DW_CFA_restore: r20 (x20)
  DW_CFA_def_cfa_offset: 0

000004e8 0000000000000020 000004ec FDE cie=00000000 pc=000000000002b234..000000000002b2dc
  DW_CFA_advance_loc: 4 to 000000000002b238
  DW_CFA_def_cfa_offset: 288
  DW_CFA_offset: r29 (x29) at cfa-288
  DW_CFA_offset: r30 (x30) at cfa-280
  DW_CFA_advance_loc: 156 to 000000000002b2d4
  DW_CFA_remember_state
  DW_CFA_restore: r30 (x30)
  DW_CFA_restore: r29 (x29)
  DW_CFA_def_cfa_offset: 0
  DW_CFA_advance_loc: 4 to 000000000002b2d8
  DW_CFA_restore_state
  DW_CFA_nop
  DW_CFA_nop
  DW_CFA_nop

0000050c 0000000000000038 00000510 FDE cie=00000000 pc=000000000002b2e0..000000000002b4bc
  DW_CFA_advance_loc: 4 to 000000000002b2e4
  DW_CFA_def_cfa_offset: 80
  DW_CFA_offset: r29 (x29) at cfa-80
  DW_CFA_offset: r30 (x30) at cfa-72
  DW_CFA_advance_loc: 12 to 000000000002b2f0
  DW_CFA_offset: r21 (x21) at cfa-48
  DW_CFA_offset: r22 (x22) at cfa-40
  DW_CFA_advance_loc: 12 to 000000000002b2fc
  DW_CFA_offset: r23 (x23) at cfa-32
  DW_CFA_offset: r24 (x24) at cfa-24
  DW_CFA_advance_loc: 24 to 000000000002b314
  DW_CFA_offset: r19 (x19) at cfa-64
  DW_CFA_offset: r20 (x20) at cfa-56
  DW_CFA_offset: r25 (x25) at cfa-16
  DW_CFA_advance_loc1: 312 to 000000000002b44c
  DW_CFA_remember_state
  DW_CFA_restore: r30 (x30)
  DW_CFA_restore: r29 (x29)
  DW_CFA_restore: r25 (x25)
  DW_CFA_restore: r23 (x23)
  DW_CFA_restore: r24 (x24)
  DW_CFA_restore: r21 (x21)
  DW_CFA_restore: r22 (x22)
  DW_CFA_restore: r19 (x19)
  DW_CFA_restore: r20 (x20)
  DW_CFA_def_cfa_offset: 0
  DW_CFA_advance_loc: 4 to 000000000002b450
  DW_CFA_restore_state
  DW_CFA_nop
  DW_CFA_nop
  DW_CFA_nop

00000548 0000000000000024 0000054c FDE cie=00000000 pc=000000000002b4c0..000000000002b518
  DW_CFA_advance_loc: 4 to 000000000002b4c4
  DW_CFA_def_cfa_offset: 32
  DW_CFA_offset: r29 (x29) at cfa-32
  DW_CFA_offset: r30 (x30) at cfa-24
  DW_CFA_advance_loc: 12 to 000000000002b4d0
  DW_CFA_offset: r19 (x19) at cfa-16
  DW_CFA_offset: r20 (x20) at cfa-8
  DW_CFA_advance_loc: 20 to 000000000002b4e4
  DW_CFA_remember_state
  DW_CFA_restore: r30 (x30)
  DW_CFA_restore: r29 (x29)
  DW_CFA_restore: r19 (x19)
  DW_CFA_restore: r20 (x20)
  DW_CFA_def_cfa_offset: 0
  DW_CFA_advance_loc: 4 to 000000000002b4e8
  DW_CFA_restore_state
  DW_CFA_nop

00000570 000000000000005c 00000574 FDE cie=00000000 pc=000000000002b520..000000000002bb94
  DW_CFA_advance_loc: 4 to 000000000002b524
  DW_CFA_def_cfa_offset: 80
  DW_CFA_offset: r29 (x29) at cfa-80
  DW_CFA_offset: r30 (x30) at cfa-72
  DW_CFA_advance_loc: 8 to 000000000002b52c
  DW_CFA_offset: r19 (x19) at cfa-64
  DW_CFA_offset: r20 (x20) at cfa-56
  DW_CFA_advance_loc: 8 to 000000000002b534
  DW_CFA_offset: r21 (x21) at cfa-48
  DW_CFA_offset: r22 (x22) at cfa-40
  DW_CFA_advance_loc: 12 to 000000000002b540
  DW_CFA_offset: r23 (x23) at cfa-32
  DW_CFA_offset: r24 (x24) at cfa-24
  DW_CFA_advance_loc: 44 to 000000000002b56c
  DW_CFA_offset: r25 (x25) at cfa-16
  DW_CFA_advance_loc1: 452 to 000000000002b730
  DW_CFA_remember_state
  DW_CFA_restore: r25 (x25)
  DW_CFA_advance_loc: 4 to 000000000002b734
  DW_CFA_restore: r30 (x30)
  DW_CFA_restore: r29 (x29)
  DW_CFA_restore: r23 (x23)
  DW_CFA_restore: r24 (x24)
  DW_CFA_restore: r21 (x21)
  DW_CFA_restore: r22 (x22)
  DW_CFA_restore: r19 (x19)
  DW_CFA_restore: r20 (x20)
  DW_CFA_def_cfa_offset: 0
  DW_CFA_advance_loc: 4 to 000000000002b738
  DW_CFA_restore_state
  DW_CFA_advance_loc1: 708 to 000000000002b9fc
  DW_CFA_restore: r25 (x25)
  DW_CFA_advance_loc: 16 to 000000000002ba0c
  DW_CFA_restore: r30 (x30)
  DW_CFA_restore: r29 (x29)
  DW_CFA_restore: r23 (x23)
  DW_CFA_restore: r24 (x24)
  DW_CFA_restore: r21 (x21)
  DW_CFA_restore: r22 (x22)
  DW_CFA_restore: r19 (x19)
  DW_CFA_restore: r20 (x20)
  DW_CFA_def_cfa_offset: 0
  DW_CFA_advance_loc: 4 to 000000000002ba10
  DW_CFA_def_cfa_offset: 80
  DW_CFA_offset: r19 (x19) at cfa-64
  DW_CFA_offset: r20 (x20) at cfa-56
  DW_CFA_offset: r21 (x21) at cfa-48
  DW_CFA_offset: r22 (x22) at cfa-40
  DW_CFA_offset: r23 (x23) at cfa-32
  DW_CFA_offset: r24 (x24) at cfa-24
  DW_CFA_offset: r25 (x25) at cfa-16
  DW_CFA_offset: r29 (x29) at cfa-80
  DW_CFA_offset: r30 (x30) at cfa-72
  DW_CFA_nop
  DW_CFA_nop

000005d0 000000000000003c 000005d4 FDE cie=00000000 pc=000000000002bb94..000000000002bce0
  DW_CFA_advance_loc: 4 to 000000000002bb98
  DW_CFA_def_cfa_offset: 48
  DW_CFA_offset: r29 (x29) at cfa-48
  DW_CFA_offset: r30 (x30) at cfa-40
  DW_CFA_advance_loc: 12 to 000000000002bba4
  DW_CFA_offset: r19 (x19) at cfa-32
  DW_CFA_offset: r20 (x20) at cfa-24
  DW_CFA_advance_loc: 44 to 000000000002bbd0
  DW_CFA_offset: r22 (x22) at cfa-8
  DW_CFA_offset: r21 (x21) at cfa-16
  DW_CFA_advance_loc: 32 to 000000000002bbf0
  DW_CFA_restore: r22 (x22)
  DW_CFA_restore: r21 (x21)
  DW_CFA_advance_loc: 48 to 000000000002bc20
  DW_CFA_remember_state
  DW_CFA_restore: r30 (x30)
  DW_CFA_restore: r29 (x29)
  DW_CFA_restore: r19 (x19)
  DW_CFA_restore: r20 (x20)
  DW_CFA_def_cfa_offset: 0
  DW_CFA_advance_loc: 4 to 000000000002bc24
  DW_CFA_restore_state
  DW_CFA_advance_loc: 28 to 000000000002bc40
  DW_CFA_remember_state
  DW_CFA_offset: r22 (x22) at cfa-8
  DW_CFA_offset: r21 (x21) at cfa-16
  DW_CFA_advance_loc: 4 to 000000000002bc44
  DW_CFA_restore_state
  DW_CFA_advance_loc: 28 to 000000000002bc60
  DW_CFA_offset: r22 (x22) at cfa-8
  DW_CFA_offset: r21 (x21) at cfa-16
  DW_CFA_advance_loc: 116 to 000000000002bcd4
  DW_CFA_restore: r22 (x22)
  DW_CFA_restore: r21 (x21)
  DW_CFA_nop

00000610 0000000000000040 00000614 FDE cie=00000000 pc=000000000002bce0..000000000002bdf4
  DW_CFA_advance_loc: 24 to 000000000002bcf8
  DW_CFA_def_cfa_offset: 64
  DW_CFA_offset: r29 (x29) at cfa-64
  DW_CFA_offset: r30 (x30) at cfa-56
  DW_CFA_advance_loc: 8 to 000000000002bd00
  DW_CFA_offset: r19 (x19) at cfa-48
  DW_CFA_offset: r20 (x20) at cfa-40
  DW_CFA_advance_loc: 8 to 000000000002bd08
  DW_CFA_offset: r21 (x21) at cfa-32
  DW_CFA_offset: r22 (x22) at cfa-24
  DW_CFA_advance_loc: 12 to 000000000002bd14
  DW_CFA_offset: r23 (x23) at cfa-16
  DW_CFA_offset: r24 (x24) at cfa-8
  DW_CFA_advance_loc: 132 to 000000000002bd98
  DW_CFA_remember_state
  DW_CFA_restore: r30 (x30)
  DW_CFA_restore: r29 (x29)
  DW_CFA_restore: r23 (x23)
  DW_CFA_restore: r24 (x24)
  DW_CFA_restore: r21 (x21)
  DW_CFA_restore: r22 (x22)
  DW_CFA_restore: r19 (x19)
  DW_CFA_restore: r20 (x20)
  DW_CFA_def_cfa_offset: 0
  DW_CFA_advance_loc: 4 to 000000000002bd9c
  DW_CFA_restore_state
  DW_CFA_advance_loc: 60 to 000000000002bdd8
  DW_CFA_remember_state
  DW_CFA_restore: r30 (x30)
  DW_CFA_restore: r29 (x29)
  DW_CFA_restore: r23 (x23)
  DW_CFA_restore: r24 (x24)
  DW_CFA_restore: r21 (x21)
  DW_CFA_restore: r22 (x22)
  DW_CFA_restore: r19 (x19)
  DW_CFA_restore: r20 (x20)
  DW_CFA_def_cfa_offset: 0
  DW_CFA_advance_loc: 4 to 000000000002bddc
  DW_CFA_restore_state
  DW_CFA_nop

00000654 0000000000000010 00000658 FDE cie=00000000 pc=000000000002bdf4..000000000002be3c
  DW_CFA_nop
  DW_CFA_nop
  DW_CFA_nop

00000668 000000000000002c 0000066c FDE cie=00000000 pc=000000000002be40..000000000002be98
  DW_CFA_advance_loc: 12 to 000000000002be4c
  DW_CFA_def_cfa_offset: 32
  DW_CFA_offset: r29 (x29) at cfa-32
  DW_CFA_offset: r30 (x30) at cfa-24
  DW_CFA_advance_loc: 12 to 000000000002be58
  DW_CFA_offset: r19 (x19) at cfa-16
  DW_CFA_offset: r20 (x20) at cfa-8
  DW_CFA_advance_loc: 48 to 000000000002be88
  DW_CFA_remember_state
  DW_CFA_restore: r30 (x30)
  DW_CFA_restore: r29 (x29)
  DW_CFA_restore: r19 (x19)
  DW_CFA_restore: r20 (x20)
  DW_CFA_def_cfa_offset: 0
  DW_CFA_advance_loc: 4 to 000000000002be8c
  DW_CFA_restore_state
  DW_CFA_advance_loc: 8 to 000000000002be94
  DW_CFA_def_cfa_offset: 0
  DW_CFA_restore: r19 (x19)
  DW_CFA_restore: r20 (x20)
  DW_CFA_restore: r29 (x29)
  DW_CFA_restore: r30 (x30)
  DW_CFA_nop
  DW_CFA_nop

00000698 0000000000000058 0000069c FDE cie=00000000 pc=000000000002bea0..000000000002c324
  DW_CFA_advance_loc: 4 to 000000000002bea4
  DW_CFA_def_cfa_offset: 432
  DW_CFA_offset: r29 (x29) at cfa-432
  DW_CFA_offset: r30 (x30) at cfa-424
  DW_CFA_advance_loc: 12 to 000000000002beb0
  DW_CFA_offset: r23 (x23) at cfa-384
  DW_CFA_offset: r24 (x24) at cfa-376
  DW_CFA_advance_loc: 24 to 000000000002bec8
  DW_CFA_offset: r19 (x19) at cfa-416
  DW_CFA_offset: r20 (x20) at cfa-408
  DW_CFA_offset: r21 (x21) at cfa-400
  DW_CFA_offset: r22 (x22) at cfa-392
  DW_CFA_advance_loc: 40 to 000000000002bef0
  DW_CFA_offset: r25 (x25) at cfa-368
  DW_CFA_offset: r26 (x26) at cfa-360
  DW_CFA_advance_loc: 52 to 000000000002bf24
  DW_CFA_offset: r28 (x28) at cfa-344
  DW_CFA_offset: r27 (x27) at cfa-352
  DW_CFA_advance_loc: 192 to 000000000002bfe4
  DW_CFA_restore: r28 (x28)
  DW_CFA_restore: r27 (x27)
  DW_CFA_advance_loc1: 500 to 000000000002c1d8
  DW_CFA_remember_state
  DW_CFA_restore: r30 (x30)
  DW_CFA_restore: r29 (x29)
  DW_CFA_restore: r25 (x25)
  DW_CFA_restore: r26 (x26)
  DW_CFA_restore: r23 (x23)
  DW_CFA_restore: r24 (x24)
  DW_CFA_restore: r21 (x21)
  DW_CFA_restore: r22 (x22)
  DW_CFA_restore: r19 (x19)
  DW_CFA_restore: r20 (x20)
  DW_CFA_def_cfa_offset: 0
  DW_CFA_advance_loc: 4 to 000000000002c1dc
  DW_CFA_restore_state
  DW_CFA_advance_loc: 140 to 000000000002c268
  DW_CFA_offset: r28 (x28) at cfa-344
  DW_CFA_offset: r27 (x27) at cfa-352
  DW_CFA_advance_loc: 12 to 000000000002c274
  DW_CFA_restore: r27 (x27)
  DW_CFA_restore: r28 (x28)
  DW_CFA_advance_loc: 144 to 000000000002c304
  DW_CFA_remember_state
  DW_CFA_offset: r28 (x28) at cfa-344
  DW_CFA_offset: r27 (x27) at cfa-352
  DW_CFA_advance_loc: 4 to 000000000002c308
  DW_CFA_restore_state
  DW_CFA_advance_loc: 16 to 000000000002c318
  DW_CFA_offset: r28 (x28) at cfa-344
  DW_CFA_offset: r27 (x27) at cfa-352
  DW_CFA_nop
  DW_CFA_nop

000006f4 0000000000000048 000006f8 FDE cie=00000000 pc=000000000002c324..000000000002c598
  DW_CFA_advance_loc: 4 to 000000000002c328
  DW_CFA_def_cfa_offset: 96
  DW_CFA_offset: r29 (x29) at cfa-96
  DW_CFA_offset: r30 (x30) at cfa-88
  DW_CFA_advance_loc: 8 to 000000000002c330
  DW_CFA_offset: r23 (x23) at cfa-48
  DW_CFA_offset: r24 (x24) at cfa-40
  DW_CFA_advance_loc: 36 to 000000000002c354
  DW_CFA_offset: r19 (x19) at cfa-80
  DW_CFA_offset: r20 (x20) at cfa-72
  DW_CFA_offset: r21 (x21) at cfa-64
  DW_CFA_offset: r22 (x22) at cfa-56
  DW_CFA_advance_loc: 240 to 000000000002c444
  DW_CFA_remember_state
  DW_CFA_restore: r30 (x30)
  DW_CFA_restore: r29 (x29)
  DW_CFA_restore: r23 (x23)
  DW_CFA_restore: r24 (x24)
  DW_CFA_restore: r21 (x21)
  DW_CFA_restore: r22 (x22)
  DW_CFA_restore: r19 (x19)
  DW_CFA_restore: r20 (x20)
  DW_CFA_def_cfa_offset: 0
  DW_CFA_advance_loc: 4 to 000000000002c448
  DW_CFA_restore_state
  DW_CFA_advance_loc: 4 to 000000000002c44c
  DW_CFA_offset: r25 (x25) at cfa-32
  DW_CFA_advance_loc: 88 to 000000000002c4a4
  DW_CFA_restore: r25 (x25)
  DW_CFA_advance_loc: 124 to 000000000002c520
  DW_CFA_offset: r25 (x25) at cfa-32
  DW_CFA_advance_loc: 4 to 000000000002c524
  DW_CFA_restore: r25 (x25)
  DW_CFA_advance_loc: 76 to 000000000002c570
  DW_CFA_offset: r25 (x25) at cfa-32
  DW_CFA_advance_loc: 4 to 000000000002c574
  DW_CFA_remember_state
  DW_CFA_restore: r25 (x25)
  DW_CFA_advance_loc: 8 to 000000000002c57c
  DW_CFA_restore_state
  DW_CFA_advance_loc: 12 to 000000000002c588
  DW_CFA_restore: r25 (x25)
  DW_CFA_advance_loc: 12 to 000000000002c594
  DW_CFA_offset: r25 (x25) at cfa-32
  DW_CFA_nop

00000740 0000000000000054 00000744 FDE cie=00000000 pc=000000000002c5a0..000000000002c718
  DW_CFA_advance_loc: 4 to 000000000002c5a4
  DW_CFA_def_cfa_offset: 48
  DW_CFA_offset: r29 (x29) at cfa-48
  DW_CFA_offset: r30 (x30) at cfa-40
  DW_CFA_advance_loc: 16 to 000000000002c5b4
  DW_CFA_offset: r19 (x19) at cfa-32
  DW_CFA_offset: r20 (x20) at cfa-24
  DW_CFA_advance_loc: 40 to 000000000002c5dc
  DW_CFA_offset: r22 (x22) at cfa-8
  DW_CFA_offset: r21 (x21) at cfa-16
  DW_CFA_advance_loc: 28 to 000000000002c5f8
  DW_CFA_restore: r22 (x22)
  DW_CFA_restore: r21 (x21)
  DW_CFA_advance_loc: 8 to 000000000002c600
  DW_CFA_restore: r30 (x30)
  DW_CFA_restore: r29 (x29)
  DW_CFA_restore: r19 (x19)
  DW_CFA_restore: r20 (x20)
  DW_CFA_def_cfa_offset: 0
  DW_CFA_advance_loc: 4 to 000000000002c604
  DW_CFA_def_cfa_offset: 48
  DW_CFA_offset: r19 (x19) at cfa-32
  DW_CFA_offset: r20 (x20) at cfa-24
  DW_CFA_offset: r21 (x21) at cfa-16
  DW_CFA_offset: r22 (x22) at cfa-8
  DW_CFA_offset: r29 (x29) at cfa-48
  DW_CFA_offset: r30 (x30) at cfa-40
  DW_CFA_advance_loc: 144 to 000000000002c694
  DW_CFA_remember_state
  DW_CFA_restore: r22 (x22)
  DW_CFA_restore: r21 (x21)
  DW_CFA_advance_loc: 12 to 000000000002c6a0
  DW_CFA_restore: r30 (x30)
  DW_CFA_restore: r29 (x29)
  DW_CFA_restore: r19 (x19)
  DW_CFA_restore: r20 (x20)
  DW_CFA_def_cfa_offset: 0
  DW_CFA_advance_loc: 4 to 000000000002c6a4
  DW_CFA_restore_state
  DW_CFA_advance_loc: 12 to 000000000002c6b0
  DW_CFA_remember_state
  DW_CFA_restore: r22 (x22)
  DW_CFA_restore: r21 (x21)
  DW_CFA_advance_loc: 8 to 000000000002c6b8
  DW_CFA_restore: r30 (x30)
  DW_CFA_restore: r29 (x29)
  DW_CFA_restore: r19 (x19)
  DW_CFA_restore: r20 (x20)
  DW_CFA_def_cfa_offset: 0
  DW_CFA_advance_loc: 4 to 000000000002c6bc
  DW_CFA_restore_state
  DW_CFA_nop
  DW_CFA_nop
  DW_CFA_nop

00000798 0000000000000020 0000079c FDE cie=00000000 pc=000000000002c720..000000000002c764
  DW_CFA_advance_loc: 4 to 000000000002c724
  DW_CFA_def_cfa_offset: 32
  DW_CFA_offset: r29 (x29) at cfa-32
  DW_CFA_offset: r30 (x30) at cfa-24
  DW_CFA_advance_loc: 8 to 000000000002c72c
  DW_CFA_offset: r19 (x19) at cfa-16
  DW_CFA_advance_loc: 40 to 000000000002c754
  DW_CFA_remember_state
  DW_CFA_restore: r30 (x30)
  DW_CFA_restore: r29 (x29)
  DW_CFA_restore: r19 (x19)
  DW_CFA_def_cfa_offset: 0
  DW_CFA_advance_loc: 4 to 000000000002c758
  DW_CFA_restore_state

000007bc 0000000000000150 000007c0 FDE cie=00000000 pc=000000000002c764..000000000002cce4
  DW_CFA_advance_loc: 4 to 000000000002c768
  DW_CFA_def_cfa_offset: 144
  DW_CFA_offset: r29 (x29) at cfa-144
  DW_CFA_offset: r30 (x30) at cfa-136
  DW_CFA_advance_loc: 16 to 000000000002c778
  DW_CFA_offset: r19 (x19) at cfa-128
  DW_CFA_offset: r20 (x20) at cfa-120
  DW_CFA_advance_loc: 136 to 000000000002c800
  DW_CFA_remember_state
  DW_CFA_restore: r30 (x30)
  DW_CFA_restore: r29 (x29)
  DW_CFA_restore: r19 (x19)
  DW_CFA_restore: r20 (x20)
  DW_CFA_def_cfa_offset: 0
  DW_CFA_advance_loc: 4 to 000000000002c804
  DW_CFA_restore_state
  DW_CFA_advance_loc: 4 to 000000000002c808
  DW_CFA_offset: r24 (x24) at cfa-88
  DW_CFA_offset: r23 (x23) at cfa-96
  DW_CFA_advance_loc: 84 to 000000000002c85c
  DW_CFA_offset: r26 (x26) at cfa-72
  DW_CFA_offset: r25 (x25) at cfa-80
  DW_CFA_advance_loc: 16 to 000000000002c86c
  DW_CFA_offset: r22 (x22) at cfa-104
  DW_CFA_offset: r21 (x21) at cfa-112
  DW_CFA_advance_loc: 8 to 000000000002c874
  DW_CFA_offset: r28 (x28) at cfa-56
  DW_CFA_offset: r27 (x27) at cfa-64
  DW_CFA_advance_loc: 204 to 000000000002c940
  DW_CFA_restore: r22 (x22)
  DW_CFA_restore: r21 (x21)
  DW_CFA_advance_loc: 4 to 000000000002c944
  DW_CFA_restore: r24 (x24)
  DW_CFA_restore: r23 (x23)
  DW_CFA_advance_loc: 4 to 000000000002c948
  DW_CFA_restore: r26 (x26)
  DW_CFA_restore: r25 (x25)
  DW_CFA_advance_loc: 4 to 000000000002c94c
  DW_CFA_restore: r28 (x28)
  DW_CFA_restore: r27 (x27)
  DW_CFA_advance_loc: 4 to 000000000002c950
  DW_CFA_restore: r30 (x30)
  DW_CFA_restore: r29 (x29)
  DW_CFA_restore: r19 (x19)
  DW_CFA_restore: r20 (x20)
  DW_CFA_def_cfa_offset: 0
  DW_CFA_advance_loc: 4 to 000000000002c954
  DW_CFA_def_cfa_offset: 144
  DW_CFA_offset: r19 (x19) at cfa-128
  DW_CFA_offset: r20 (x20) at cfa-120
  DW_CFA_offset: r29 (x29) at cfa-144
  DW_CFA_offset: r30 (x30) at cfa-136
  DW_CFA_advance_loc: 144 to 000000000002c9e4
  DW_CFA_offset: r21 (x21) at cfa-112
  DW_CFA_offset: r22 (x22) at cfa-104
  DW_CFA_offset: r23 (x23) at cfa-96
  DW_CFA_offset: r24 (x24) at cfa-88
  DW_CFA_offset: r25 (x25) at cfa-80
  DW_CFA_offset: r26 (x26) at cfa-72
  DW_CFA_offset: r27 (x27) at cfa-64
  DW_CFA_offset: r28 (x28) at cfa-56
  DW_CFA_advance_loc: 40 to 000000000002ca0c
  DW_CFA_restore: r24 (x24)
  DW_CFA_restore: r23 (x23)
  DW_CFA_advance_loc: 8 to 000000000002ca14
  DW_CFA_restore: r22 (x22)
  DW_CFA_restore: r21 (x21)
  DW_CFA_advance_loc: 4 to 000000000002ca18
  DW_CFA_restore: r26 (x26)
  DW_CFA_restore: r25 (x25)
  DW_CFA_advance_loc: 4 to 000000000002ca1c
  DW_CFA_restore: r28 (x28)
  DW_CFA_restore: r27 (x27)
  DW_CFA_advance_loc: 4 to 000000000002ca20
  DW_CFA_restore: r30 (x30)
  DW_CFA_restore: r29 (x29)
  DW_CFA_restore: r19 (x19)
  DW_CFA_restore: r20 (x20)
  DW_CFA_def_cfa_offset: 0
  DW_CFA_advance_loc: 4 to 000000000002ca24
  DW_CFA_def_cfa_offset: 144
  DW_CFA_offset: r19 (x19) at cfa-128
  DW_CFA_offset: r20 (x20) at cfa-120
  DW_CFA_offset: r29 (x29) at cfa-144
  DW_CFA_offset: r30 (x30) at cfa-136
  DW_CFA_advance_loc: 4 to 000000000002ca28
  DW_CFA_offset: r22 (x22) at cfa-104
  DW_CFA_offset: r21 (x21) at cfa-112
  DW_CFA_advance_loc: 4 to 000000000002ca2c
  DW_CFA_offset: r24 (x24) at cfa-88
  DW_CFA_offset: r23 (x23) at cfa-96
  DW_CFA_advance_loc: 4 to 000000000002ca30
  DW_CFA_offset: r26 (x26) at cfa-72
  DW_CFA_offset: r25 (x25) at cfa-80
  DW_CFA_advance_loc: 4 to 000000000002ca34
  DW_CFA_offset: r28 (x28) at cfa-56
  DW_CFA_offset: r27 (x27) at cfa-64
  DW_CFA_advance_loc: 4 to 000000000002ca38
  DW_CFA_restore: r21 (x21)
  DW_CFA_restore: r22 (x22)
  DW_CFA_restore: r23 (x23)
  DW_CFA_restore: r24 (x24)
  DW_CFA_restore: r25 (x25)
  DW_CFA_restore: r26 (x26)
  DW_CFA_restore: r27 (x27)
  DW_CFA_restore: r28 (x28)
  DW_CFA_advance_loc: 12 to 000000000002ca44
  DW_CFA_offset: r22 (x22) at cfa-104
  DW_CFA_offset: r21 (x21) at cfa-112
  DW_CFA_advance_loc: 36 to 000000000002ca68
  DW_CFA_offset: r24 (x24) at cfa-88
  DW_CFA_offset: r23 (x23) at cfa-96
  DW_CFA_advance_loc: 184 to 000000000002cb20
  DW_CFA_restore: r22 (x22)
  DW_CFA_restore: r21 (x21)
  DW_CFA_advance_loc: 4 to 000000000002cb24
  DW_CFA_restore: r24 (x24)
  DW_CFA_restore: r23 (x23)
  DW_CFA_advance_loc: 40 to 000000000002cb4c
  DW_CFA_offset: r22 (x22) at cfa-104
  DW_CFA_offset: r21 (x21) at cfa-112
  DW_CFA_advance_loc: 4 to 000000000002cb50
  DW_CFA_offset: r24 (x24) at cfa-88
  DW_CFA_offset: r23 (x23) at cfa-96
  DW_CFA_advance_loc: 4 to 000000000002cb54
  DW_CFA_offset: r26 (x26) at cfa-72
  DW_CFA_offset: r25 (x25) at cfa-80
  DW_CFA_advance_loc: 4 to 000000000002cb58
  DW_CFA_offset: r28 (x28) at cfa-56
  DW_CFA_offset: r27 (x27) at cfa-64
  DW_CFA_advance_loc: 4 to 000000000002cb5c
  DW_CFA_restore: r23 (x23)
  DW_CFA_restore: r24 (x24)
  DW_CFA_restore: r25 (x25)
  DW_CFA_restore: r26 (x26)
  DW_CFA_restore: r27 (x27)
  DW_CFA_restore: r28 (x28)
  DW_CFA_advance_loc: 28 to 000000000002cb78
  DW_CFA_restore: r22 (x22)
  DW_CFA_restore: r21 (x21)
  DW_CFA_advance_loc: 4 to 000000000002cb7c
  DW_CFA_offset: r23 (x23) at cfa-96
  DW_CFA_offset: r24 (x24) at cfa-88
  DW_CFA_advance_loc: 56 to 000000000002cbb4
  DW_CFA_remember_state
  DW_CFA_restore: r24 (x24)
  DW_CFA_restore: r23 (x23)
  DW_CFA_advance_loc: 4 to 000000000002cbb8
  DW_CFA_restore: r30 (x30)
  DW_CFA_restore: r29 (x29)
  DW_CFA_restore: r19 (x19)
  DW_CFA_restore: r20 (x20)
  DW_CFA_def_cfa_offset: 0
  DW_CFA_advance_loc: 4 to 000000000002cbbc
  DW_CFA_restore_state
  DW_CFA_advance_loc: 32 to 000000000002cbdc
  DW_CFA_restore: r23 (x23)
  DW_CFA_restore: r24 (x24)
  DW_CFA_advance_loc: 36 to 000000000002cc00
  DW_CFA_offset: r22 (x22) at cfa-104
  DW_CFA_offset: r21 (x21) at cfa-112
  DW_CFA_advance_loc: 4 to 000000000002cc04
  DW_CFA_offset: r24 (x24) at cfa-88
  DW_CFA_offset: r23 (x23) at cfa-96
  DW_CFA_advance_loc: 4 to 000000000002cc08
  DW_CFA_offset: r26 (x26) at cfa-72
  DW_CFA_offset: r25 (x25) at cfa-80
  DW_CFA_advance_loc: 4 to 000000000002cc0c
  DW_CFA_offset: r28 (x28) at cfa-56
  DW_CFA_offset: r27 (x27) at cfa-64
  DW_CFA_advance_loc: 4 to 000000000002cc10
  DW_CFA_restore: r23 (x23)
  DW_CFA_restore: r24 (x24)
  DW_CFA_restore: r25 (x25)
  DW_CFA_restore: r26 (x26)
  DW_CFA_restore: r27 (x27)
  DW_CFA_restore: r28 (x28)
  DW_CFA_advance_loc: 4 to 000000000002cc14
  DW_CFA_restore: r22 (x22)
  DW_CFA_restore: r21 (x21)
  DW_CFA_advance_loc: 4 to 000000000002cc18
  DW_CFA_offset: r21 (x21) at cfa-112
  DW_CFA_offset: r22 (x22) at cfa-104
  DW_CFA_offset: r23 (x23) at cfa-96
  DW_CFA_offset: r24 (x24) at cfa-88
  DW_CFA_advance_loc: 28 to 000000000002cc34
  DW_CFA_remember_state
  DW_CFA_restore: r22 (x22)
  DW_CFA_restore: r21 (x21)
  DW_CFA_advance_loc: 4 to 000000000002cc38
  DW_CFA_restore: r24 (x24)
  DW_CFA_restore: r23 (x23)
  DW_CFA_advance_loc: 4 to 000000000002cc3c
  DW_CFA_restore_state
  DW_CFA_advance_loc: 40 to 000000000002cc64
  DW_CFA_restore: r22 (x22)
  DW_CFA_restore: r21 (x21)
  DW_CFA_advance_loc: 4 to 000000000002cc68
  DW_CFA_restore: r24 (x24)
  DW_CFA_restore: r23 (x23)
  DW_CFA_advance_loc: 4 to 000000000002cc6c
  DW_CFA_offset: r23 (x23) at cfa-96
  DW_CFA_offset: r24 (x24) at cfa-88
  DW_CFA_advance_loc: 4 to 000000000002cc70
  DW_CFA_offset: r22 (x22) at cfa-104
  DW_CFA_offset: r21 (x21) at cfa-112
  DW_CFA_advance_loc: 4 to 000000000002cc74
  DW_CFA_offset: r26 (x26) at cfa-72
  DW_CFA_offset: r25 (x25) at cfa-80
  DW_CFA_advance_loc: 4 to 000000000002cc78
  DW_CFA_offset: r28 (x28) at cfa-56
  DW_CFA_offset: r27 (x27) at cfa-64
  DW_CFA_advance_loc: 4 to 000000000002cc7c
  DW_CFA_restore: r25 (x25)
  DW_CFA_restore: r26 (x26)
  DW_CFA_restore: r27 (x27)
  DW_CFA_restore: r28 (x28)
  DW_CFA_advance_loc: 36 to 000000000002cca0
  DW_CFA_remember_state
  DW_CFA_restore: r22 (x22)
  DW_CFA_restore: r21 (x21)
  DW_CFA_advance_loc: 4 to 000000000002cca4
  DW_CFA_restore: r24 (x24)
  DW_CFA_restore: r23 (x23)
  DW_CFA_advance_loc: 4 to 000000000002cca8
  DW_CFA_restore_state
  DW_CFA_advance_loc: 32 to 000000000002ccc8
  DW_CFA_remember_state
  DW_CFA_restore: r22 (x22)
  DW_CFA_restore: r21 (x21)
  DW_CFA_advance_loc: 4 to 000000000002cccc
  DW_CFA_restore: r24 (x24)
  DW_CFA_restore: r23 (x23)
  DW_CFA_advance_loc: 4 to 000000000002ccd0
  DW_CFA_restore_state
  DW_CFA_advance_loc: 12 to 000000000002ccdc
  DW_CFA_restore: r22 (x22)
  DW_CFA_restore: r21 (x21)
  DW_CFA_advance_loc: 4 to 000000000002cce0
  DW_CFA_restore: r24 (x24)
  DW_CFA_restore: r23 (x23)
  DW_CFA_nop
  DW_CFA_nop

00000910 0000000000000040 00000914 FDE cie=00000000 pc=000000000002cce4..000000000002cf10
  DW_CFA_advance_loc: 4 to 000000000002cce8
  DW_CFA_def_cfa_offset: 80
  DW_CFA_offset: r29 (x29) at cfa-80
  DW_CFA_offset: r30 (x30) at cfa-72
  DW_CFA_advance_loc: 12 to 000000000002ccf4
  DW_CFA_offset: r19 (x19) at cfa-64
  DW_CFA_offset: r20 (x20) at cfa-56
  DW_CFA_offset: r21 (x21) at cfa-48
  DW_CFA_offset: r22 (x22) at cfa-40
  DW_CFA_advance_loc: 16 to 000000000002cd04
  DW_CFA_offset: r23 (x23) at cfa-32
  DW_CFA_offset: r24 (x24) at cfa-24
  DW_CFA_advance_loc: 32 to 000000000002cd24
  DW_CFA_offset: r26 (x26) at cfa-8
  DW_CFA_offset: r25 (x25) at cfa-16
  DW_CFA_advance_loc: 164 to 000000000002cdc8
  DW_CFA_restore: r26 (x26)
  DW_CFA_restore: r25 (x25)
  DW_CFA_advance_loc: 24 to 000000000002cde0
  DW_CFA_remember_state
  DW_CFA_restore: r30 (x30)
  DW_CFA_restore: r29 (x29)
  DW_CFA_restore: r23 (x23)
  DW_CFA_restore: r24 (x24)
  DW_CFA_restore: r21 (x21)
  DW_CFA_restore: r22 (x22)
  DW_CFA_restore: r19 (x19)
  DW_CFA_restore: r20 (x20)
  DW_CFA_def_cfa_offset: 0
  DW_CFA_advance_loc: 4 to 000000000002cde4
  DW_CFA_restore_state
  DW_CFA_advance_loc: 56 to 000000000002ce1c
  DW_CFA_offset: r25 (x25) at cfa-16
  DW_CFA_offset: r26 (x26) at cfa-8
  DW_CFA_nop
  DW_CFA_nop
  DW_CFA_nop

00000954 000000000000002c 00000958 FDE cie=00000000 pc=000000000002cf10..000000000002d028
  DW_CFA_advance_loc: 4 to 000000000002cf14
  DW_CFA_def_cfa_offset: 64
  DW_CFA_offset: r29 (x29) at cfa-64
  DW_CFA_offset: r30 (x30) at cfa-56
  DW_CFA_advance_loc: 16 to 000000000002cf24
  DW_CFA_offset: r19 (x19) at cfa-48
  DW_CFA_offset: r20 (x20) at cfa-40
  DW_CFA_advance_loc: 8 to 000000000002cf2c
  DW_CFA_offset: r21 (x21) at cfa-32
  DW_CFA_offset: r22 (x22) at cfa-24
  DW_CFA_advance_loc: 108 to 000000000002cf98
  DW_CFA_remember_state
  DW_CFA_restore: r30 (x30)
  DW_CFA_restore: r29 (x29)
  DW_CFA_restore: r21 (x21)
  DW_CFA_restore: r22 (x22)
  DW_CFA_restore: r19 (x19)
  DW_CFA_restore: r20 (x20)
  DW_CFA_def_cfa_offset: 0
  DW_CFA_advance_loc: 4 to 000000000002cf9c
  DW_CFA_restore_state
  DW_CFA_nop
  DW_CFA_nop

00000984 0000000000000024 00000988 FDE cie=00000000 pc=000000000002d030..000000000002d08c
  DW_CFA_advance_loc: 4 to 000000000002d034
  DW_CFA_def_cfa_offset: 48
  DW_CFA_offset: r29 (x29) at cfa-48
  DW_CFA_offset: r30 (x30) at cfa-40
  DW_CFA_advance_loc: 12 to 000000000002d040
  DW_CFA_offset: r19 (x19) at cfa-32
  DW_CFA_offset: r20 (x20) at cfa-24
  DW_CFA_advance_loc: 8 to 000000000002d048
  DW_CFA_offset: r21 (x21) at cfa-16
  DW_CFA_advance_loc: 64 to 000000000002d088
  DW_CFA_restore: r30 (x30)
  DW_CFA_restore: r29 (x29)
  DW_CFA_restore: r21 (x21)
  DW_CFA_restore: r19 (x19)
  DW_CFA_restore: r20 (x20)
  DW_CFA_def_cfa_offset: 0

000009ac 0000000000000054 000009b0 FDE cie=00000000 pc=000000000002d090..000000000002d5cc
  DW_CFA_advance_loc: 4 to 000000000002d094
  DW_CFA_def_cfa_offset: 224
  DW_CFA_offset: r29 (x29) at cfa-224
  DW_CFA_offset: r30 (x30) at cfa-216
  DW_CFA_advance_loc: 8 to 000000000002d09c
  DW_CFA_offset: r23 (x23) at cfa-176
  DW_CFA_offset: r24 (x24) at cfa-168
  DW_CFA_advance_loc: 8 to 000000000002d0a4
  DW_CFA_offset: r25 (x25) at cfa-160
  DW_CFA_offset: r26 (x26) at cfa-152
  DW_CFA_advance_loc: 28 to 000000000002d0c0
  DW_CFA_offset: r19 (x19) at cfa-208
  DW_CFA_offset: r20 (x20) at cfa-200
  DW_CFA_offset: r21 (x21) at cfa-192
  DW_CFA_offset: r22 (x22) at cfa-184
  DW_CFA_advance_loc: 12 to 000000000002d0cc
  DW_CFA_offset: r27 (x27) at cfa-144
  DW_CFA_offset: r28 (x28) at cfa-136
  DW_CFA_advance_loc1: 432 to 000000000002d27c
  DW_CFA_remember_state
  DW_CFA_restore: r30 (x30)
  DW_CFA_restore: r29 (x29)
  DW_CFA_restore: r27 (x27)
  DW_CFA_restore: r28 (x28)
  DW_CFA_restore: r25 (x25)
  DW_CFA_restore: r26 (x26)
  DW_CFA_restore: r23 (x23)
  DW_CFA_restore: r24 (x24)
  DW_CFA_restore: r21 (x21)
  DW_CFA_restore: r22 (x22)
  DW_CFA_restore: r19 (x19)
  DW_CFA_restore: r20 (x20)
  DW_CFA_def_cfa_offset: 0
  DW_CFA_advance_loc: 4 to 000000000002d280
  DW_CFA_restore_state
  DW_CFA_advance_loc1: 400 to 000000000002d410
  DW_CFA_remember_state
  DW_CFA_restore: r30 (x30)
  DW_CFA_restore: r29 (x29)
  DW_CFA_restore: r27 (x27)
  DW_CFA_restore: r28 (x28)
  DW_CFA_restore: r25 (x25)
  DW_CFA_restore: r26 (x26)
  DW_CFA_restore: r23 (x23)
  DW_CFA_restore: r24 (x24)
  DW_CFA_restore: r21 (x21)
  DW_CFA_restore: r22 (x22)
  DW_CFA_restore: r19 (x19)
  DW_CFA_restore: r20 (x20)
  DW_CFA_def_cfa_offset: 0
  DW_CFA_advance_loc: 4 to 000000000002d414
  DW_CFA_restore_state
  DW_CFA_nop

00000a04 0000000000000024 00000a08 FDE cie=00000000 pc=000000000002d5d0..000000000002d610
  DW_CFA_advance_loc: 4 to 000000000002d5d4
  DW_CFA_def_cfa_offset: 32
  DW_CFA_offset: r29 (x29) at cfa-32
  DW_CFA_offset: r30 (x30) at cfa-24
  DW_CFA_advance_loc: 8 to 000000000002d5dc
  DW_CFA_offset: r19 (x19) at cfa-16
  DW_CFA_offset: r20 (x20) at cfa-8
  DW_CFA_advance_loc: 32 to 000000000002d5fc
  DW_CFA_remember_state
  DW_CFA_restore: r30 (x30)
  DW_CFA_restore: r29 (x29)
  DW_CFA_restore: r19 (x19)
  DW_CFA_restore: r20 (x20)
  DW_CFA_def_cfa_offset: 0
  DW_CFA_advance_loc: 4 to 000000000002d600
  DW_CFA_restore_state
  DW_CFA_nop

00000a2c 0000000000000030 00000a30 FDE cie=00000000 pc=000000000002d610..000000000002d7d4
  DW_CFA_advance_loc: 4 to 000000000002d614
  DW_CFA_def_cfa_offset: 80
  DW_CFA_offset: r29 (x29) at cfa-80
  DW_CFA_offset: r30 (x30) at cfa-72
  DW_CFA_advance_loc: 20 to 000000000002d628
  DW_CFA_offset: r19 (x19) at cfa-64
  DW_CFA_offset: r20 (x20) at cfa-56
  DW_CFA_advance_loc: 16 to 000000000002d638
  DW_CFA_offset: r21 (x21) at cfa-48
  DW_CFA_offset: r22 (x22) at cfa-40
  DW_CFA_advance_loc: 12 to 000000000002d644
  DW_CFA_offset: r23 (x23) at cfa-32
  DW_CFA_advance_loc: 188 to 000000000002d700
  DW_CFA_remember_state
  DW_CFA_restore: r30 (x30)
  DW_CFA_restore: r29 (x29)
  DW_CFA_restore: r23 (x23)
  DW_CFA_restore: r21 (x21)
  DW_CFA_restore: r22 (x22)
  DW_CFA_restore: r19 (x19)
  DW_CFA_restore: r20 (x20)
  DW_CFA_def_cfa_offset: 0
  DW_CFA_advance_loc: 4 to 000000000002d704
  DW_CFA_restore_state
  DW_CFA_nop
  DW_CFA_nop

00000a60 0000000000000020 00000a64 FDE cie=00000000 pc=000000000002d7d4..000000000002d84c
  DW_CFA_advance_loc: 4 to 000000000002d7d8
  DW_CFA_def_cfa_offset: 48
  DW_CFA_offset: r29 (x29) at cfa-48
  DW_CFA_offset: r30 (x30) at cfa-40
  DW_CFA_advance_loc: 24 to 000000000002d7f0
  DW_CFA_offset: r19 (x19) at cfa-32
  DW_CFA_advance_loc: 84 to 000000000002d844
  DW_CFA_remember_state
  DW_CFA_restore: r30 (x30)
  DW_CFA_restore: r29 (x29)
  DW_CFA_restore: r19 (x19)
  DW_CFA_def_cfa_offset: 0
  DW_CFA_advance_loc: 4 to 000000000002d848
  DW_CFA_restore_state

00000a84 0000000000000044 00000a88 FDE cie=00000000 pc=000000000002d850..000000000002eee8
  DW_CFA_advance_loc: 4 to 000000000002d854
  DW_CFA_def_cfa_offset: 352
  DW_CFA_advance_loc: 12 to 000000000002d860
  DW_CFA_offset: r29 (x29) at cfa-288
  DW_CFA_offset: r30 (x30) at cfa-280
  DW_CFA_advance_loc: 8 to 000000000002d868
  DW_CFA_offset: r19 (x19) at cfa-272
  DW_CFA_offset: r20 (x20) at cfa-264
  DW_CFA_advance_loc: 20 to 000000000002d87c
  DW_CFA_offset: r25 (x25) at cfa-224
  DW_CFA_offset: r26 (x26) at cfa-216
  DW_CFA_advance_loc: 16 to 000000000002d88c
  DW_CFA_offset: r21 (x21) at cfa-256
  DW_CFA_offset: r22 (x22) at cfa-248
  DW_CFA_advance_loc: 20 to 000000000002d8a0
  DW_CFA_offset: r23 (x23) at cfa-240
  DW_CFA_offset: r24 (x24) at cfa-232
  DW_CFA_offset: r27 (x27) at cfa-208
  DW_CFA_offset: r28 (x28) at cfa-200
  DW_CFA_advance_loc2: 2468 to 000000000002e244
  DW_CFA_remember_state
  DW_CFA_restore: r29 (x29)
  DW_CFA_restore: r30 (x30)
  DW_CFA_restore: r27 (x27)
  DW_CFA_restore: r28 (x28)
  DW_CFA_restore: r25 (x25)
  DW_CFA_restore: r26 (x26)
  DW_CFA_restore: r23 (x23)
  DW_CFA_restore: r24 (x24)
  DW_CFA_restore: r21 (x21)
  DW_CFA_restore: r22 (x22)
  DW_CFA_restore: r19 (x19)
  DW_CFA_restore: r20 (x20)
  DW_CFA_def_cfa_offset: 0
  DW_CFA_advance_loc: 4 to 000000000002e248
  DW_CFA_restore_state
  DW_CFA_nop
  DW_CFA_nop

00000acc 000000000000007c 00000ad0 FDE cie=00000000 pc=000000000002eef0..000000000002f448
  DW_CFA_advance_loc: 4 to 000000000002eef4
  DW_CFA_def_cfa_offset: 112
  DW_CFA_offset: r29 (x29) at cfa-112
  DW_CFA_offset: r30 (x30) at cfa-104
  DW_CFA_advance_loc: 8 to 000000000002eefc
  DW_CFA_offset: r19 (x19) at cfa-96
  DW_CFA_offset: r20 (x20) at cfa-88
  DW_CFA_advance_loc: 12 to 000000000002ef08
  DW_CFA_offset: r21 (x21) at cfa-80
  DW_CFA_offset: r22 (x22) at cfa-72
  DW_CFA_advance_loc: 12 to 000000000002ef14
  DW_CFA_offset: r23 (x23) at cfa-64
  DW_CFA_offset: r24 (x24) at cfa-56
  DW_CFA_advance_loc: 28 to 000000000002ef30
  DW_CFA_offset: r28 (x28) at cfa-24
  DW_CFA_offset: r27 (x27) at cfa-32
  DW_CFA_advance_loc: 120 to 000000000002efa8
  DW_CFA_offset: r26 (x26) at cfa-40
  DW_CFA_offset: r25 (x25) at cfa-48
  DW_CFA_advance_loc: 100 to 000000000002f00c
  DW_CFA_restore: r26 (x26)
  DW_CFA_restore: r25 (x25)
  DW_CFA_advance_loc: 96 to 000000000002f06c
  DW_CFA_restore: r28 (x28)
  DW_CFA_restore: r27 (x27)
  DW_CFA_advance_loc: 20 to 000000000002f080
  DW_CFA_restore: r30 (x30)
  DW_CFA_restore: r29 (x29)
  DW_CFA_restore: r23 (x23)
  DW_CFA_restore: r24 (x24)
  DW_CFA_restore: r21 (x21)
  DW_CFA_restore: r22 (x22)
  DW_CFA_restore: r19 (x19)
  DW_CFA_restore: r20 (x20)
  DW_CFA_def_cfa_offset: 0
  DW_CFA_advance_loc: 4 to 000000000002f084
  DW_CFA_def_cfa_offset: 112
  DW_CFA_offset: r19 (x19) at cfa-96
  DW_CFA_offset: r20 (x20) at cfa-88
  DW_CFA_offset: r21 (x21) at cfa-80
  DW_CFA_offset: r22 (x22) at cfa-72
  DW_CFA_offset: r23 (x23) at cfa-64
  DW_CFA_offset: r24 (x24) at cfa-56
  DW_CFA_offset: r25 (x25) at cfa-48
  DW_CFA_offset: r26 (x26) at cfa-40
  DW_CFA_offset: r27 (x27) at cfa-32
  DW_CFA_offset: r28 (x28) at cfa-24
  DW_CFA_offset: r29 (x29) at cfa-112
  DW_CFA_offset: r30 (x30) at cfa-104
  DW_CFA_advance_loc1: 336 to 000000000002f1d4
  DW_CFA_remember_state
  DW_CFA_restore: r26 (x26)
  DW_CFA_restore: r25 (x25)
  DW_CFA_advance_loc: 4 to 000000000002f1d8
  DW_CFA_restore: r28 (x28)
  DW_CFA_restore: r27 (x27)
  DW_CFA_advance_loc: 4 to 000000000002f1dc
  DW_CFA_restore_state
  DW_CFA_advance_loc1: 436 to 000000000002f390
  DW_CFA_restore: r25 (x25)
  DW_CFA_restore: r26 (x26)
  DW_CFA_advance_loc: 44 to 000000000002f3bc
  DW_CFA_restore: r28 (x28)
  DW_CFA_restore: r27 (x27)
  DW_CFA_advance_loc: 40 to 000000000002f3e4
  DW_CFA_offset: r27 (x27) at cfa-32
  DW_CFA_offset: r28 (x28) at cfa-24
  DW_CFA_advance_loc: 44 to 000000000002f410
  DW_CFA_restore: r27 (x27)
  DW_CFA_restore: r28 (x28)
  DW_CFA_advance_loc: 12 to 000000000002f41c
  DW_CFA_offset: r27 (x27) at cfa-32
  DW_CFA_offset: r28 (x28) at cfa-24
  DW_CFA_advance_loc: 40 to 000000000002f444
  DW_CFA_restore: r28 (x28)
  DW_CFA_restore: r27 (x27)
  DW_CFA_nop
  DW_CFA_nop

00000b4c 0000000000000020 00000b50 FDE cie=00000000 pc=000000000002f450..000000000002f490
  DW_CFA_advance_loc: 4 to 000000000002f454
  DW_CFA_def_cfa_offset: 32
  DW_CFA_offset: r29 (x29) at cfa-32
  DW_CFA_offset: r30 (x30) at cfa-24
  DW_CFA_advance_loc: 8 to 000000000002f45c
  DW_CFA_offset: r19 (x19) at cfa-16
  DW_CFA_offset: r20 (x20) at cfa-8
  DW_CFA_advance_loc: 48 to 000000000002f48c
  DW_CFA_restore: r30 (x30)
  DW_CFA_restore: r29 (x29)
  DW_CFA_restore: r19 (x19)
  DW_CFA_restore: r20 (x20)
  DW_CFA_def_cfa_offset: 0

00000b70 0000000000000034 00000b74 FDE cie=00000000 pc=000000000002f490..000000000002f5c0
  DW_CFA_advance_loc: 4 to 000000000002f494
  DW_CFA_def_cfa_offset: 96
  DW_CFA_offset: r29 (x29) at cfa-96
  DW_CFA_offset: r30 (x30) at cfa-88
  DW_CFA_advance_loc: 16 to 000000000002f4a4
  DW_CFA_offset: r19 (x19) at cfa-80
  DW_CFA_offset: r20 (x20) at cfa-72
  DW_CFA_advance_loc: 8 to 000000000002f4ac
  DW_CFA_offset: r21 (x21) at cfa-64
  DW_CFA_offset: r22 (x22) at cfa-56
  DW_CFA_advance_loc: 12 to 000000000002f4b8
  DW_CFA_offset: r23 (x23) at cfa-48
  DW_CFA_offset: r24 (x24) at cfa-40
  DW_CFA_advance_loc: 104 to 000000000002f520
  DW_CFA_remember_state
  DW_CFA_restore: r30 (x30)
  DW_CFA_restore: r29 (x29)
  DW_CFA_restore: r23 (x23)
  DW_CFA_restore: r24 (x24)
  DW_CFA_restore: r21 (x21)
  DW_CFA_restore: r22 (x22)
  DW_CFA_restore: r19 (x19)
  DW_CFA_restore: r20 (x20)
  DW_CFA_def_cfa_offset: 0
  DW_CFA_advance_loc: 4 to 000000000002f524
  DW_CFA_restore_state
  DW_CFA_nop
  DW_CFA_nop
  DW_CFA_nop

00000ba8 0000000000000024 00000bac FDE cie=00000000 pc=0000000000008bc0..0000000000008c28
  DW_CFA_advance_loc: 4 to 0000000000008bc4
  DW_CFA_def_cfa_offset: 48
  DW_CFA_offset: r29 (x29) at cfa-48
  DW_CFA_offset: r30 (x30) at cfa-40
  DW_CFA_advance_loc: 8 to 0000000000008bcc
  DW_CFA_offset: r19 (x19) at cfa-32
  DW_CFA_offset: r20 (x20) at cfa-24
  DW_CFA_advance_loc: 16 to 0000000000008bdc
  DW_CFA_offset: r21 (x21) at cfa-16
  DW_CFA_advance_loc: 72 to 0000000000008c24
  DW_CFA_restore: r30 (x30)
  DW_CFA_restore: r29 (x29)
  DW_CFA_restore: r21 (x21)
  DW_CFA_restore: r19 (x19)
  DW_CFA_restore: r20 (x20)
  DW_CFA_def_cfa_offset: 0

00000bd0 00000000000000b8 00000bd4 FDE cie=00000000 pc=000000000002f5c0..0000000000031d6c
  DW_CFA_advance_loc: 4 to 000000000002f5c4
  DW_CFA_def_cfa_offset: 912
  DW_CFA_advance_loc: 12 to 000000000002f5d0
  DW_CFA_offset: r29 (x29) at cfa-912
  DW_CFA_offset: r30 (x30) at cfa-904
  DW_CFA_advance_loc: 8 to 000000000002f5d8
  DW_CFA_offset: r21 (x21) at cfa-880
  DW_CFA_offset: r22 (x22) at cfa-872
  DW_CFA_advance_loc: 16 to 000000000002f5e8
  DW_CFA_offset: r19 (x19) at cfa-896
  DW_CFA_offset: r20 (x20) at cfa-888
  DW_CFA_offset: r25 (x25) at cfa-848
  DW_CFA_offset: r26 (x26) at cfa-840
  DW_CFA_advance_loc: 116 to 000000000002f65c
  DW_CFA_remember_state
  DW_CFA_restore: r29 (x29)
  DW_CFA_restore: r30 (x30)
  DW_CFA_restore: r25 (x25)
  DW_CFA_restore: r26 (x26)
  DW_CFA_restore: r21 (x21)
  DW_CFA_restore: r22 (x22)
  DW_CFA_restore: r19 (x19)
  DW_CFA_restore: r20 (x20)
  DW_CFA_def_cfa_offset: 0
  DW_CFA_advance_loc: 4 to 000000000002f660
  DW_CFA_restore_state
  DW_CFA_advance_loc: 196 to 000000000002f724
  DW_CFA_offset: r24 (x24) at cfa-856
  DW_CFA_offset: r23 (x23) at cfa-864
  DW_CFA_advance_loc: 8 to 000000000002f72c
  DW_CFA_offset: r28 (x28) at cfa-824
  DW_CFA_offset: r27 (x27) at cfa-832
  DW_CFA_advance_loc2: 2840 to 0000000000030244
  DW_CFA_remember_state
  DW_CFA_restore: r24 (x24)
  DW_CFA_restore: r23 (x23)
  DW_CFA_advance_loc: 4 to 0000000000030248
  DW_CFA_restore: r28 (x28)
  DW_CFA_restore: r27 (x27)
  DW_CFA_advance_loc: 4 to 000000000003024c
  DW_CFA_restore_state
  DW_CFA_advance_loc2: 1784 to 0000000000030944
  DW_CFA_remember_state
  DW_CFA_restore: r24 (x24)
  DW_CFA_restore: r23 (x23)
  DW_CFA_advance_loc: 8 to 000000000003094c
  DW_CFA_restore: r28 (x28)
  DW_CFA_restore: r27 (x27)
  DW_CFA_advance_loc: 4 to 0000000000030950
  DW_CFA_restore: r29 (x29)
  DW_CFA_restore: r30 (x30)
  DW_CFA_restore: r25 (x25)
  DW_CFA_restore: r26 (x26)
  DW_CFA_restore: r21 (x21)
  DW_CFA_restore: r22 (x22)
  DW_CFA_restore: r19 (x19)
  DW_CFA_restore: r20 (x20)
  DW_CFA_def_cfa_offset: 0
  DW_CFA_advance_loc: 4 to 0000000000030954
  DW_CFA_restore_state
  DW_CFA_advance_loc: 148 to 00000000000309e8
  DW_CFA_restore: r23 (x23)
  DW_CFA_restore: r24 (x24)
  DW_CFA_restore: r27 (x27)
  DW_CFA_restore: r28 (x28)
  DW_CFA_advance_loc: 168 to 0000000000030a90
  DW_CFA_offset: r23 (x23) at cfa-864
  DW_CFA_offset: r24 (x24) at cfa-856
  DW_CFA_offset: r27 (x27) at cfa-832
  DW_CFA_offset: r28 (x28) at cfa-824
  DW_CFA_advance_loc: 24 to 0000000000030aa8
  DW_CFA_restore: r23 (x23)
  DW_CFA_restore: r24 (x24)
  DW_CFA_restore: r27 (x27)
  DW_CFA_restore: r28 (x28)
  DW_CFA_advance_loc: 56 to 0000000000030ae0
  DW_CFA_offset: r23 (x23) at cfa-864
  DW_CFA_offset: r24 (x24) at cfa-856
  DW_CFA_offset: r27 (x27) at cfa-832
  DW_CFA_offset: r28 (x28) at cfa-824
  DW_CFA_advance_loc: 16 to 0000000000030af0
  DW_CFA_restore: r23 (x23)
  DW_CFA_restore: r24 (x24)
  DW_CFA_restore: r27 (x27)
  DW_CFA_restore: r28 (x28)
  DW_CFA_advance_loc: 4 to 0000000000030af4
  DW_CFA_offset: r24 (x24) at cfa-856
  DW_CFA_offset: r23 (x23) at cfa-864
  DW_CFA_advance_loc: 4 to 0000000000030af8
  DW_CFA_offset: r28 (x28) at cfa-824
  DW_CFA_offset: r27 (x27) at cfa-832
  DW_CFA_advance_loc1: 888 to 0000000000030e70
  DW_CFA_restore: r23 (x23)
  DW_CFA_restore: r24 (x24)
  DW_CFA_restore: r27 (x27)
  DW_CFA_restore: r28 (x28)
  DW_CFA_advance_loc: 24 to 0000000000030e88
  DW_CFA_offset: r23 (x23) at cfa-864
  DW_CFA_offset: r24 (x24) at cfa-856
  DW_CFA_offset: r27 (x27) at cfa-832
  DW_CFA_offset: r28 (x28) at cfa-824
  DW_CFA_advance_loc2: 1880 to 00000000000315e0
  DW_CFA_restore: r23 (x23)
  DW_CFA_restore: r24 (x24)
  DW_CFA_restore: r27 (x27)
  DW_CFA_restore: r28 (x28)
  DW_CFA_advance_loc: 60 to 000000000003161c
  DW_CFA_offset: r23 (x23) at cfa-864
  DW_CFA_offset: r24 (x24) at cfa-856
  DW_CFA_offset: r27 (x27) at cfa-832
  DW_CFA_offset: r28 (x28) at cfa-824
  DW_CFA_advance_loc: 32 to 000000000003163c
  DW_CFA_restore: r23 (x23)
  DW_CFA_restore: r24 (x24)
  DW_CFA_restore: r27 (x27)
  DW_CFA_restore: r28 (x28)
  DW_CFA_advance_loc: 8 to 0000000000031644
  DW_CFA_offset: r24 (x24) at cfa-856
  DW_CFA_offset: r23 (x23) at cfa-864
  DW_CFA_advance_loc: 4 to 0000000000031648
  DW_CFA_offset: r28 (x28) at cfa-824
  DW_CFA_offset: r27 (x27) at cfa-832
  DW_CFA_nop
  DW_CFA_nop

00000c8c 0000000000000040 00000c90 FDE cie=00000000 pc=0000000000031d70..0000000000031f4c
  DW_CFA_advance_loc: 4 to 0000000000031d74
  DW_CFA_def_cfa_offset: 64
  DW_CFA_offset: r29 (x29) at cfa-64
  DW_CFA_offset: r30 (x30) at cfa-56
  DW_CFA_advance_loc: 8 to 0000000000031d7c
  DW_CFA_offset: r21 (x21) at cfa-32
  DW_CFA_offset: r22 (x22) at cfa-24
  DW_CFA_advance_loc: 28 to 0000000000031d98
  DW_CFA_offset: r20 (x20) at cfa-40
  DW_CFA_offset: r19 (x19) at cfa-48
  DW_CFA_advance_loc: 136 to 0000000000031e20
  DW_CFA_restore: r20 (x20)
  DW_CFA_restore: r19 (x19)
  DW_CFA_advance_loc: 8 to 0000000000031e28
  DW_CFA_restore: r30 (x30)
  DW_CFA_restore: r29 (x29)
  DW_CFA_restore: r21 (x21)
  DW_CFA_restore: r22 (x22)
  DW_CFA_def_cfa_offset: 0
  DW_CFA_advance_loc: 4 to 0000000000031e2c
  DW_CFA_def_cfa_offset: 64
  DW_CFA_offset: r19 (x19) at cfa-48
  DW_CFA_offset: r20 (x20) at cfa-40
  DW_CFA_offset: r21 (x21) at cfa-32
  DW_CFA_offset: r22 (x22) at cfa-24
  DW_CFA_offset: r29 (x29) at cfa-64
  DW_CFA_offset: r30 (x30) at cfa-56
  DW_CFA_advance_loc: 84 to 0000000000031e80
  DW_CFA_restore: r19 (x19)
  DW_CFA_restore: r20 (x20)
  DW_CFA_advance_loc: 32 to 0000000000031ea0
  DW_CFA_offset: r19 (x19) at cfa-48
  DW_CFA_offset: r20 (x20) at cfa-40
  DW_CFA_nop

00000cd0 0000000000000028 00000cd4 FDE cie=00000000 pc=0000000000031f50..0000000000032048
  DW_CFA_advance_loc: 4 to 0000000000031f54
  DW_CFA_def_cfa_offset: 48
  DW_CFA_offset: r29 (x29) at cfa-48
  DW_CFA_offset: r30 (x30) at cfa-40
  DW_CFA_advance_loc: 8 to 0000000000031f5c
  DW_CFA_offset: r19 (x19) at cfa-32
  DW_CFA_offset: r20 (x20) at cfa-24
  DW_CFA_advance_loc: 8 to 0000000000031f64
  DW_CFA_offset: r21 (x21) at cfa-16
  DW_CFA_advance_loc: 44 to 0000000000031f90
  DW_CFA_remember_state
  DW_CFA_restore: r30 (x30)
  DW_CFA_restore: r29 (x29)
  DW_CFA_restore: r21 (x21)
  DW_CFA_restore: r19 (x19)
  DW_CFA_restore: r20 (x20)
  DW_CFA_def_cfa_offset: 0
  DW_CFA_advance_loc: 4 to 0000000000031f94
  DW_CFA_restore_state
  DW_CFA_nop

00000cfc 0000000000000024 00000d00 FDE cie=00000000 pc=0000000000008c28..0000000000008c9c
  DW_CFA_advance_loc: 4 to 0000000000008c2c
  DW_CFA_def_cfa_offset: 48
  DW_CFA_offset: r29 (x29) at cfa-48
  DW_CFA_offset: r30 (x30) at cfa-40
  DW_CFA_advance_loc: 8 to 0000000000008c34
  DW_CFA_offset: r19 (x19) at cfa-32
  DW_CFA_offset: r20 (x20) at cfa-24
  DW_CFA_advance_loc: 12 to 0000000000008c40
  DW_CFA_offset: r21 (x21) at cfa-16
  DW_CFA_advance_loc: 88 to 0000000000008c98
  DW_CFA_restore: r30 (x30)
  DW_CFA_restore: r29 (x29)
  DW_CFA_restore: r21 (x21)
  DW_CFA_restore: r19 (x19)
  DW_CFA_restore: r20 (x20)
  DW_CFA_def_cfa_offset: 0

00000d24 000000000000001c 00000d28 FDE cie=00000000 pc=0000000000008c9c..0000000000008cb8
  DW_CFA_advance_loc: 4 to 0000000000008ca0
  DW_CFA_def_cfa_offset: 16
  DW_CFA_offset: r29 (x29) at cfa-16
  DW_CFA_offset: r30 (x30) at cfa-8
  DW_CFA_advance_loc: 20 to 0000000000008cb4
  DW_CFA_restore: r30 (x30)
  DW_CFA_restore: r29 (x29)
  DW_CFA_def_cfa_offset: 0
  DW_CFA_nop
  DW_CFA_nop
  DW_CFA_nop

00000d44 0000000000000010 00000d48 FDE cie=00000000 pc=0000000000032050..000000000003208c
  DW_CFA_nop
  DW_CFA_nop
  DW_CFA_nop

00000d58 0000000000000020 00000d5c FDE cie=00000000 pc=0000000000032090..00000000000320d4
  DW_CFA_advance_loc: 4 to 0000000000032094
  DW_CFA_def_cfa_offset: 32
  DW_CFA_offset: r29 (x29) at cfa-32
  DW_CFA_offset: r30 (x30) at cfa-24
  DW_CFA_advance_loc: 12 to 00000000000320a0
  DW_CFA_offset: r19 (x19) at cfa-16
  DW_CFA_advance_loc: 24 to 00000000000320b8
  DW_CFA_remember_state
  DW_CFA_restore: r30 (x30)
  DW_CFA_restore: r29 (x29)
  DW_CFA_restore: r19 (x19)
  DW_CFA_def_cfa_offset: 0
  DW_CFA_advance_loc: 4 to 00000000000320bc
  DW_CFA_restore_state

00000d7c 000000000000009c 00000d80 FDE cie=00000000 pc=00000000000320d4..0000000000032480
  DW_CFA_advance_loc: 4 to 00000000000320d8
  DW_CFA_def_cfa_offset: 96
  DW_CFA_offset: r29 (x29) at cfa-96
  DW_CFA_offset: r30 (x30) at cfa-88
  DW_CFA_advance_loc: 8 to 00000000000320e0
  DW_CFA_offset: r19 (x19) at cfa-80
  DW_CFA_offset: r20 (x20) at cfa-72
  DW_CFA_advance_loc: 16 to 00000000000320f0
  DW_CFA_offset: r21 (x21) at cfa-64
  DW_CFA_offset: r22 (x22) at cfa-56
  DW_CFA_advance_loc: 56 to 0000000000032128
  DW_CFA_remember_state
  DW_CFA_restore: r30 (x30)
  DW_CFA_restore: r29 (x29)
  DW_CFA_restore: r21 (x21)
  DW_CFA_restore: r22 (x22)
  DW_CFA_restore: r19 (x19)
  DW_CFA_restore: r20 (x20)
  DW_CFA_def_cfa_offset: 0
  DW_CFA_advance_loc: 4 to 000000000003212c
  DW_CFA_restore_state
  DW_CFA_advance_loc: 76 to 0000000000032178
  DW_CFA_offset: r24 (x24) at cfa-40
  DW_CFA_offset: r23 (x23) at cfa-48
  DW_CFA_advance_loc: 8 to 0000000000032180
  DW_CFA_offset: r26 (x26) at cfa-24
  DW_CFA_offset: r25 (x25) at cfa-32
  DW_CFA_advance_loc: 16 to 0000000000032190
  DW_CFA_offset: r27 (x27) at cfa-16
  DW_CFA_advance_loc1: 328 to 00000000000322d8
  DW_CFA_restore: r24 (x24)
  DW_CFA_restore: r23 (x23)
  DW_CFA_advance_loc: 4 to 00000000000322dc
  DW_CFA_restore: r26 (x26)
  DW_CFA_restore: r25 (x25)
  DW_CFA_advance_loc: 4 to 00000000000322e0
  DW_CFA_restore: r27 (x27)
  DW_CFA_advance_loc: 4 to 00000000000322e4
  DW_CFA_restore: r30 (x30)
  DW_CFA_restore: r29 (x29)
  DW_CFA_restore: r21 (x21)
  DW_CFA_restore: r22 (x22)
  DW_CFA_restore: r19 (x19)
  DW_CFA_restore: r20 (x20)
  DW_CFA_def_cfa_offset: 0
  DW_CFA_advance_loc: 4 to 00000000000322e8
  DW_CFA_def_cfa_offset: 96
  DW_CFA_offset: r19 (x19) at cfa-80
  DW_CFA_offset: r20 (x20) at cfa-72
  DW_CFA_offset: r21 (x21) at cfa-64
  DW_CFA_offset: r22 (x22) at cfa-56
  DW_CFA_offset: r29 (x29) at cfa-96
  DW_CFA_offset: r30 (x30) at cfa-88
  DW_CFA_advance_loc: 8 to 00000000000322f0
  DW_CFA_offset: r23 (x23) at cfa-48
  DW_CFA_offset: r24 (x24) at cfa-40
  DW_CFA_offset: r25 (x25) at cfa-32
  DW_CFA_offset: r26 (x26) at cfa-24
  DW_CFA_offset: r27 (x27) at cfa-16
  DW_CFA_advance_loc: 8 to 00000000000322f8
  DW_CFA_remember_state
  DW_CFA_restore: r24 (x24)
  DW_CFA_restore: r23 (x23)
  DW_CFA_advance_loc: 8 to 0000000000032300
  DW_CFA_restore: r26 (x26)
  DW_CFA_restore: r25 (x25)
  DW_CFA_advance_loc: 8 to 0000000000032308
  DW_CFA_restore: r27 (x27)
  DW_CFA_advance_loc: 4 to 000000000003230c
  DW_CFA_restore_state
  DW_CFA_advance_loc: 128 to 000000000003238c
  DW_CFA_remember_state
  DW_CFA_restore: r24 (x24)
  DW_CFA_restore: r23 (x23)
  DW_CFA_advance_loc: 8 to 0000000000032394
  DW_CFA_restore: r26 (x26)
  DW_CFA_restore: r25 (x25)
  DW_CFA_advance_loc: 8 to 000000000003239c
  DW_CFA_restore: r27 (x27)
  DW_CFA_advance_loc: 4 to 00000000000323a0
  DW_CFA_restore_state
  DW_CFA_advance_loc: 20 to 00000000000323b4
  DW_CFA_remember_state
  DW_CFA_restore: r24 (x24)
  DW_CFA_restore: r23 (x23)
  DW_CFA_advance_loc: 8 to 00000000000323bc
  DW_CFA_restore: r26 (x26)
  DW_CFA_restore: r25 (x25)
  DW_CFA_advance_loc: 8 to 00000000000323c4
  DW_CFA_restore: r27 (x27)
  DW_CFA_advance_loc: 4 to 00000000000323c8
  DW_CFA_restore_state
  DW_CFA_advance_loc: 48 to 00000000000323f8
  DW_CFA_remember_state
  DW_CFA_restore: r24 (x24)
  DW_CFA_restore: r23 (x23)
  DW_CFA_advance_loc: 8 to 0000000000032400
  DW_CFA_restore: r26 (x26)
  DW_CFA_restore: r25 (x25)
  DW_CFA_advance_loc: 4 to 0000000000032404
  DW_CFA_restore: r27 (x27)
  DW_CFA_advance_loc: 4 to 0000000000032408
  DW_CFA_restore_state
  DW_CFA_advance_loc: 8 to 0000000000032410
  DW_CFA_remember_state
  DW_CFA_restore: r24 (x24)
  DW_CFA_restore: r23 (x23)
  DW_CFA_advance_loc: 8 to 0000000000032418
  DW_CFA_restore: r26 (x26)
  DW_CFA_restore: r25 (x25)
  DW_CFA_advance_loc: 4 to 000000000003241c
  DW_CFA_restore: r27 (x27)
  DW_CFA_advance_loc: 4 to 0000000000032420
  DW_CFA_restore_state
  DW_CFA_nop
  DW_CFA_nop

00000e1c 0000000000000098 00000e20 FDE cie=00000000 pc=0000000000032480..0000000000032928
  DW_CFA_advance_loc: 4 to 0000000000032484
  DW_CFA_def_cfa_offset: 128
  DW_CFA_offset: r29 (x29) at cfa-128
  DW_CFA_offset: r30 (x30) at cfa-120
  DW_CFA_advance_loc: 8 to 000000000003248c
  DW_CFA_offset: r23 (x23) at cfa-80
  DW_CFA_offset: r24 (x24) at cfa-72
  DW_CFA_advance_loc: 12 to 0000000000032498
  DW_CFA_offset: r25 (x25) at cfa-64
  DW_CFA_offset: r26 (x26) at cfa-56
  DW_CFA_advance_loc: 20 to 00000000000324ac
  DW_CFA_offset: r20 (x20) at cfa-104
  DW_CFA_offset: r19 (x19) at cfa-112
  DW_CFA_advance_loc: 12 to 00000000000324b8
  DW_CFA_offset: r22 (x22) at cfa-88
  DW_CFA_offset: r21 (x21) at cfa-96
  DW_CFA_advance_loc: 20 to 00000000000324cc
  DW_CFA_offset: r28 (x28) at cfa-40
  DW_CFA_offset: r27 (x27) at cfa-48
  DW_CFA_advance_loc1: 396 to 0000000000032658
  DW_CFA_restore: r20 (x20)
  DW_CFA_restore: r19 (x19)
  DW_CFA_advance_loc: 8 to 0000000000032660
  DW_CFA_restore: r22 (x22)
  DW_CFA_restore: r21 (x21)
  DW_CFA_advance_loc: 4 to 0000000000032664
  DW_CFA_restore: r28 (x28)
  DW_CFA_restore: r27 (x27)
  DW_CFA_advance_loc: 16 to 0000000000032674
  DW_CFA_restore: r30 (x30)
  DW_CFA_restore: r29 (x29)
  DW_CFA_restore: r25 (x25)
  DW_CFA_restore: r26 (x26)
  DW_CFA_restore: r23 (x23)
  DW_CFA_restore: r24 (x24)
  DW_CFA_def_cfa_offset: 0
  DW_CFA_advance_loc: 4 to 0000000000032678
  DW_CFA_def_cfa_offset: 128
  DW_CFA_offset: r19 (x19) at cfa-112
  DW_CFA_offset: r20 (x20) at cfa-104
  DW_CFA_offset: r21 (x21) at cfa-96
  DW_CFA_offset: r22 (x22) at cfa-88
  DW_CFA_offset: r23 (x23) at cfa-80
  DW_CFA_offset: r24 (x24) at cfa-72
  DW_CFA_offset: r25 (x25) at cfa-64
  DW_CFA_offset: r26 (x26) at cfa-56
  DW_CFA_offset: r27 (x27) at cfa-48
  DW_CFA_offset: r28 (x28) at cfa-40
  DW_CFA_offset: r29 (x29) at cfa-128
  DW_CFA_offset: r30 (x30) at cfa-120
  DW_CFA_advance_loc: 108 to 00000000000326e4
  DW_CFA_remember_state
  DW_CFA_restore: r20 (x20)
  DW_CFA_restore: r19 (x19)
  DW_CFA_advance_loc: 8 to 00000000000326ec
  DW_CFA_restore: r22 (x22)
  DW_CFA_restore: r21 (x21)
  DW_CFA_advance_loc: 8 to 00000000000326f4
  DW_CFA_restore: r28 (x28)
  DW_CFA_restore: r27 (x27)
  DW_CFA_advance_loc: 4 to 00000000000326f8
  DW_CFA_restore_state
  DW_CFA_advance_loc: 172 to 00000000000327a4
  DW_CFA_restore: r20 (x20)
  DW_CFA_restore: r19 (x19)
  DW_CFA_advance_loc: 4 to 00000000000327a8
  DW_CFA_restore: r22 (x22)
  DW_CFA_restore: r21 (x21)
  DW_CFA_advance_loc: 4 to 00000000000327ac
  DW_CFA_restore: r28 (x28)
  DW_CFA_restore: r27 (x27)
  DW_CFA_advance_loc: 8 to 00000000000327b4
  DW_CFA_offset: r19 (x19) at cfa-112
  DW_CFA_offset: r20 (x20) at cfa-104
  DW_CFA_offset: r21 (x21) at cfa-96
  DW_CFA_offset: r22 (x22) at cfa-88
  DW_CFA_offset: r27 (x27) at cfa-48
  DW_CFA_offset: r28 (x28) at cfa-40
  DW_CFA_advance_loc1: 308 to 00000000000328e8
  DW_CFA_remember_state
  DW_CFA_restore: r20 (x20)
  DW_CFA_restore: r19 (x19)
  DW_CFA_advance_loc: 4 to 00000000000328ec
  DW_CFA_restore: r22 (x22)
  DW_CFA_restore: r21 (x21)
  DW_CFA_advance_loc: 4 to 00000000000328f0
  DW_CFA_restore: r28 (x28)
  DW_CFA_restore: r27 (x27)
  DW_CFA_advance_loc: 4 to 00000000000328f4
  DW_CFA_restore_state
  DW_CFA_advance_loc: 28 to 0000000000032910
  DW_CFA_remember_state
  DW_CFA_restore: r20 (x20)
  DW_CFA_restore: r19 (x19)
  DW_CFA_advance_loc: 4 to 0000000000032914
  DW_CFA_restore: r22 (x22)
  DW_CFA_restore: r21 (x21)
  DW_CFA_advance_loc: 4 to 0000000000032918
  DW_CFA_restore: r28 (x28)
  DW_CFA_restore: r27 (x27)
  DW_CFA_advance_loc: 8 to 0000000000032920
  DW_CFA_restore_state

00000eb8 0000000000000084 00000ebc FDE cie=00000000 pc=0000000000032930..0000000000032ac8
  DW_CFA_advance_loc: 4 to 0000000000032934
  DW_CFA_def_cfa_offset: 96
  DW_CFA_offset: r29 (x29) at cfa-96
  DW_CFA_offset: r30 (x30) at cfa-88
  DW_CFA_advance_loc: 8 to 000000000003293c
  DW_CFA_offset: r21 (x21) at cfa-64
  DW_CFA_offset: r22 (x22) at cfa-56
  DW_CFA_advance_loc: 8 to 0000000000032944
  DW_CFA_offset: r23 (x23) at cfa-48
  DW_CFA_offset: r24 (x24) at cfa-40
  DW_CFA_advance_loc: 8 to 000000000003294c
  DW_CFA_offset: r25 (x25) at cfa-32
  DW_CFA_offset: r26 (x26) at cfa-24
  DW_CFA_advance_loc: 36 to 0000000000032970
  DW_CFA_offset: r20 (x20) at cfa-72
  DW_CFA_offset: r19 (x19) at cfa-80
  DW_CFA_advance_loc: 100 to 00000000000329d4
  DW_CFA_restore: r20 (x20)
  DW_CFA_restore: r19 (x19)
  DW_CFA_advance_loc: 16 to 00000000000329e4
  DW_CFA_restore: r30 (x30)
  DW_CFA_restore: r29 (x29)
  DW_CFA_restore: r25 (x25)
  DW_CFA_restore: r26 (x26)
  DW_CFA_restore: r23 (x23)
  DW_CFA_restore: r24 (x24)
  DW_CFA_restore: r21 (x21)
  DW_CFA_restore: r22 (x22)
  DW_CFA_def_cfa_offset: 0
  DW_CFA_advance_loc: 4 to 00000000000329e8
  DW_CFA_def_cfa_offset: 96
  DW_CFA_offset: r19 (x19) at cfa-80
  DW_CFA_offset: r20 (x20) at cfa-72
  DW_CFA_offset: r21 (x21) at cfa-64
  DW_CFA_offset: r22 (x22) at cfa-56
  DW_CFA_offset: r23 (x23) at cfa-48
  DW_CFA_offset: r24 (x24) at cfa-40
  DW_CFA_offset: r25 (x25) at cfa-32
  DW_CFA_offset: r26 (x26) at cfa-24
  DW_CFA_offset: r29 (x29) at cfa-96
  DW_CFA_offset: r30 (x30) at cfa-88
  DW_CFA_advance_loc: 24 to 0000000000032a00
  DW_CFA_offset: r27 (x27) at cfa-16
  DW_CFA_advance_loc: 88 to 0000000000032a58
  DW_CFA_restore: r20 (x20)
  DW_CFA_restore: r19 (x19)
  DW_CFA_advance_loc: 20 to 0000000000032a6c
  DW_CFA_restore: r27 (x27)
  DW_CFA_advance_loc: 4 to 0000000000032a70
  DW_CFA_restore: r30 (x30)
  DW_CFA_restore: r29 (x29)
  DW_CFA_restore: r25 (x25)
  DW_CFA_restore: r26 (x26)
  DW_CFA_restore: r23 (x23)
  DW_CFA_restore: r24 (x24)
  DW_CFA_restore: r21 (x21)
  DW_CFA_restore: r22 (x22)
  DW_CFA_def_cfa_offset: 0
  DW_CFA_advance_loc: 4 to 0000000000032a74
  DW_CFA_def_cfa_offset: 96
  DW_CFA_offset: r21 (x21) at cfa-64
  DW_CFA_offset: r22 (x22) at cfa-56
  DW_CFA_offset: r23 (x23) at cfa-48
  DW_CFA_offset: r24 (x24) at cfa-40
  DW_CFA_offset: r25 (x25) at cfa-32
  DW_CFA_offset: r26 (x26) at cfa-24
  DW_CFA_offset: r29 (x29) at cfa-96
  DW_CFA_offset: r30 (x30) at cfa-88
  DW_CFA_advance_loc: 24 to 0000000000032a8c
  DW_CFA_offset: r19 (x19) at cfa-80
  DW_CFA_offset: r20 (x20) at cfa-72
  DW_CFA_offset: r27 (x27) at cfa-16
  DW_CFA_advance_loc: 4 to 0000000000032a90
  DW_CFA_remember_state
  DW_CFA_restore: r20 (x20)
  DW_CFA_restore: r19 (x19)
  DW_CFA_advance_loc: 4 to 0000000000032a94
  DW_CFA_restore: r27 (x27)
  DW_CFA_advance_loc: 4 to 0000000000032a98
  DW_CFA_restore_state
  DW_CFA_advance_loc: 36 to 0000000000032abc
  DW_CFA_restore: r27 (x27)

00000f40 0000000000000010 00000f44 FDE cie=00000000 pc=0000000000032ad0..0000000000032b30
  DW_CFA_nop
  DW_CFA_nop
  DW_CFA_nop

00000f54 0000000000000034 00000f58 FDE cie=00000000 pc=0000000000008cb8..0000000000008de8
  DW_CFA_advance_loc: 4 to 0000000000008cbc
  DW_CFA_def_cfa_offset: 80
  DW_CFA_offset: r29 (x29) at cfa-80
  DW_CFA_offset: r30 (x30) at cfa-72
  DW_CFA_advance_loc: 8 to 0000000000008cc4
  DW_CFA_offset: r19 (x19) at cfa-64
  DW_CFA_offset: r20 (x20) at cfa-56
  DW_CFA_advance_loc: 12 to 0000000000008cd0
  DW_CFA_offset: r21 (x21) at cfa-48
  DW_CFA_offset: r22 (x22) at cfa-40
  DW_CFA_offset: r23 (x23) at cfa-32
  DW_CFA_offset: r24 (x24) at cfa-24
  DW_CFA_advance_loc: 8 to 0000000000008cd8
  DW_CFA_offset: r25 (x25) at cfa-16
  DW_CFA_advance_loc1: 268 to 0000000000008de4
  DW_CFA_restore: r30 (x30)
  DW_CFA_restore: r29 (x29)
  DW_CFA_restore: r25 (x25)
  DW_CFA_restore: r23 (x23)
  DW_CFA_restore: r24 (x24)
  DW_CFA_restore: r21 (x21)
  DW_CFA_restore: r22 (x22)
  DW_CFA_restore: r19 (x19)
  DW_CFA_restore: r20 (x20)
  DW_CFA_def_cfa_offset: 0
  DW_CFA_nop
  DW_CFA_nop

00000f8c 0000000000000020 00000f90 FDE cie=00000000 pc=0000000000032b30..0000000000032b70
  DW_CFA_advance_loc: 4 to 0000000000032b34
  DW_CFA_def_cfa_offset: 32
  DW_CFA_offset: r29 (x29) at cfa-32
  DW_CFA_offset: r30 (x30) at cfa-24
  DW_CFA_advance_loc: 8 to 0000000000032b3c
  DW_CFA_offset: r19 (x19) at cfa-16
  DW_CFA_offset: r20 (x20) at cfa-8
  DW_CFA_advance_loc: 48 to 0000000000032b6c
  DW_CFA_restore: r30 (x30)
  DW_CFA_restore: r29 (x29)
  DW_CFA_restore: r19 (x19)
  DW_CFA_restore: r20 (x20)
  DW_CFA_def_cfa_offset: 0

00000fb0 0000000000000078 00000fb4 FDE cie=00000000 pc=0000000000032b70..0000000000032ec8
  DW_CFA_advance_loc: 4 to 0000000000032b74
  DW_CFA_def_cfa_offset: 128
  DW_CFA_offset: r29 (x29) at cfa-128
  DW_CFA_offset: r30 (x30) at cfa-120
  DW_CFA_advance_loc: 16 to 0000000000032b84
  DW_CFA_offset: r19 (x19) at cfa-112
  DW_CFA_offset: r20 (x20) at cfa-104
  DW_CFA_advance_loc: 8 to 0000000000032b8c
  DW_CFA_offset: r21 (x21) at cfa-96
  DW_CFA_offset: r22 (x22) at cfa-88
  DW_CFA_advance_loc: 12 to 0000000000032b98
  DW_CFA_offset: r25 (x25) at cfa-64
  DW_CFA_offset: r26 (x26) at cfa-56
  DW_CFA_offset: r27 (x27) at cfa-48
  DW_CFA_offset: r28 (x28) at cfa-40
  DW_CFA_advance_loc: 100 to 0000000000032bfc
  DW_CFA_offset: r24 (x24) at cfa-72
  DW_CFA_offset: r23 (x23) at cfa-80
  DW_CFA_advance_loc1: 376 to 0000000000032d74
  DW_CFA_restore: r24 (x24)
  DW_CFA_restore: r23 (x23)
  DW_CFA_advance_loc: 52 to 0000000000032da8
  DW_CFA_restore: r30 (x30)
  DW_CFA_restore: r29 (x29)
  DW_CFA_restore: r27 (x27)
  DW_CFA_restore: r28 (x28)
  DW_CFA_restore: r25 (x25)
  DW_CFA_restore: r26 (x26)
  DW_CFA_restore: r21 (x21)
  DW_CFA_restore: r22 (x22)
  DW_CFA_restore: r19 (x19)
  DW_CFA_restore: r20 (x20)
  DW_CFA_def_cfa_offset: 0
  DW_CFA_advance_loc: 4 to 0000000000032dac
  DW_CFA_def_cfa_offset: 128
  DW_CFA_offset: r19 (x19) at cfa-112
  DW_CFA_offset: r20 (x20) at cfa-104
  DW_CFA_offset: r21 (x21) at cfa-96
  DW_CFA_offset: r22 (x22) at cfa-88
  DW_CFA_offset: r23 (x23) at cfa-80
  DW_CFA_offset: r24 (x24) at cfa-72
  DW_CFA_offset: r25 (x25) at cfa-64
  DW_CFA_offset: r26 (x26) at cfa-56
  DW_CFA_offset: r27 (x27) at cfa-48
  DW_CFA_offset: r28 (x28) at cfa-40
  DW_CFA_offset: r29 (x29) at cfa-128
  DW_CFA_offset: r30 (x30) at cfa-120
  DW_CFA_advance_loc: 8 to 0000000000032db4
  DW_CFA_restore: r23 (x23)
  DW_CFA_restore: r24 (x24)
  DW_CFA_advance_loc: 36 to 0000000000032dd8
  DW_CFA_offset: r23 (x23) at cfa-80
  DW_CFA_offset: r24 (x24) at cfa-72
  DW_CFA_advance_loc: 4 to 0000000000032ddc
  DW_CFA_remember_state
  DW_CFA_restore: r24 (x24)
  DW_CFA_restore: r23 (x23)
  DW_CFA_advance_loc: 8 to 0000000000032de4
  DW_CFA_restore_state
  DW_CFA_advance_loc: 96 to 0000000000032e44
  DW_CFA_restore: r23 (x23)
  DW_CFA_restore: r24 (x24)
  DW_CFA_advance_loc: 4 to 0000000000032e48
  DW_CFA_offset: r24 (x24) at cfa-72
  DW_CFA_offset: r23 (x23) at cfa-80
  DW_CFA_advance_loc: 4 to 0000000000032e4c
  DW_CFA_restore: r23 (x23)
  DW_CFA_restore: r24 (x24)
  DW_CFA_advance_loc: 92 to 0000000000032ea8
  DW_CFA_offset: r23 (x23) at cfa-80
  DW_CFA_offset: r24 (x24) at cfa-72

0000102c 0000000000000028 00001030 FDE cie=00000000 pc=0000000000008de8..0000000000008efc
  DW_CFA_advance_loc: 4 to 0000000000008dec
  DW_CFA_def_cfa_offset: 352
  DW_CFA_offset: r29 (x29) at cfa-352
  DW_CFA_offset: r30 (x30) at cfa-344
  DW_CFA_advance_loc: 24 to 0000000000008e04
  DW_CFA_offset: r19 (x19) at cfa-336
  DW_CFA_offset: r20 (x20) at cfa-328
  DW_CFA_advance_loc: 8 to 0000000000008e0c
  DW_CFA_offset: r21 (x21) at cfa-320
  DW_CFA_advance_loc: 236 to 0000000000008ef8
  DW_CFA_restore: r30 (x30)
  DW_CFA_restore: r29 (x29)
  DW_CFA_restore: r21 (x21)
  DW_CFA_restore: r19 (x19)
  DW_CFA_restore: r20 (x20)
  DW_CFA_def_cfa_offset: 0
  DW_CFA_nop
  DW_CFA_nop
  DW_CFA_nop

00001058 0000000000000030 0000105c FDE cie=00000000 pc=0000000000032ed0..0000000000032f64
  DW_CFA_advance_loc: 4 to 0000000000032ed4
  DW_CFA_def_cfa_offset: 48
  DW_CFA_offset: r29 (x29) at cfa-48
  DW_CFA_offset: r30 (x30) at cfa-40
  DW_CFA_advance_loc: 16 to 0000000000032ee4
  DW_CFA_offset: r19 (x19) at cfa-32
  DW_CFA_offset: r20 (x20) at cfa-24
  DW_CFA_advance_loc: 8 to 0000000000032eec
  DW_CFA_offset: r21 (x21) at cfa-16
  DW_CFA_advance_loc: 68 to 0000000000032f30
  DW_CFA_remember_state
  DW_CFA_restore: r30 (x30)
  DW_CFA_restore: r29 (x29)
  DW_CFA_restore: r21 (x21)
  DW_CFA_restore: r19 (x19)
  DW_CFA_restore: r20 (x20)
  DW_CFA_def_cfa_offset: 0
  DW_CFA_advance_loc: 4 to 0000000000032f34
  DW_CFA_restore_state
  DW_CFA_advance_loc: 44 to 0000000000032f60
  DW_CFA_restore: r30 (x30)
  DW_CFA_restore: r29 (x29)
  DW_CFA_restore: r21 (x21)
  DW_CFA_restore: r19 (x19)
  DW_CFA_restore: r20 (x20)
  DW_CFA_def_cfa_offset: 0
  DW_CFA_nop

0000108c 000000000000003c 00001090 FDE cie=00000000 pc=0000000000032f64..00000000000331a0
  DW_CFA_advance_loc: 4 to 0000000000032f68
  DW_CFA_def_cfa_offset: 64
  DW_CFA_offset: r29 (x29) at cfa-64
  DW_CFA_offset: r30 (x30) at cfa-56
  DW_CFA_advance_loc: 16 to 0000000000032f78
  DW_CFA_offset: r19 (x19) at cfa-48
  DW_CFA_offset: r20 (x20) at cfa-40
  DW_CFA_advance_loc: 12 to 0000000000032f84
  DW_CFA_offset: r21 (x21) at cfa-32
  DW_CFA_offset: r22 (x22) at cfa-24
  DW_CFA_advance_loc: 12 to 0000000000032f90
  DW_CFA_offset: r23 (x23) at cfa-16
  DW_CFA_advance_loc: 160 to 0000000000033030
  DW_CFA_remember_state
  DW_CFA_restore: r30 (x30)
  DW_CFA_restore: r29 (x29)
  DW_CFA_restore: r23 (x23)
  DW_CFA_restore: r21 (x21)
  DW_CFA_restore: r22 (x22)
  DW_CFA_restore: r19 (x19)
  DW_CFA_restore: r20 (x20)
  DW_CFA_def_cfa_offset: 0
  DW_CFA_advance_loc: 4 to 0000000000033034
  DW_CFA_restore_state
  DW_CFA_advance_loc1: 320 to 0000000000033174
  DW_CFA_remember_state
  DW_CFA_restore: r30 (x30)
  DW_CFA_restore: r29 (x29)
  DW_CFA_restore: r23 (x23)
  DW_CFA_restore: r21 (x21)
  DW_CFA_restore: r22 (x22)
  DW_CFA_restore: r19 (x19)
  DW_CFA_restore: r20 (x20)
  DW_CFA_def_cfa_offset: 0
  DW_CFA_advance_loc: 4 to 0000000000033178
  DW_CFA_restore_state

000010cc 000000000000002c 000010d0 FDE cie=00000000 pc=0000000000008efc..00000000000090ec
  DW_CFA_advance_loc: 4 to 0000000000008f00
  DW_CFA_def_cfa_offset: 64
  DW_CFA_offset: r29 (x29) at cfa-64
  DW_CFA_offset: r30 (x30) at cfa-56
  DW_CFA_advance_loc: 12 to 0000000000008f0c
  DW_CFA_offset: r19 (x19) at cfa-48
  DW_CFA_offset: r20 (x20) at cfa-40
  DW_CFA_advance_loc: 12 to 0000000000008f18
  DW_CFA_offset: r21 (x21) at cfa-32
  DW_CFA_offset: r22 (x22) at cfa-24
  DW_CFA_offset: r23 (x23) at cfa-16
  DW_CFA_advance_loc1: 464 to 00000000000090e8
  DW_CFA_restore: r30 (x30)
  DW_CFA_restore: r29 (x29)
  DW_CFA_restore: r23 (x23)
  DW_CFA_restore: r21 (x21)
  DW_CFA_restore: r22 (x22)
  DW_CFA_restore: r19 (x19)
  DW_CFA_restore: r20 (x20)
  DW_CFA_def_cfa_offset: 0
  DW_CFA_nop

000010fc 0000000000000014 00001100 FDE cie=00000000 pc=00000000000331a0..00000000000331b4
  DW_CFA_advance_loc: 4 to 00000000000331a4
  DW_CFA_def_cfa_offset: 16
  DW_CFA_offset: r29 (x29) at cfa-16
  DW_CFA_offset: r30 (x30) at cfa-8

00001114 0000000000000028 00001118 FDE cie=00000000 pc=00000000000331b4..0000000000033264
  DW_CFA_advance_loc: 4 to 00000000000331b8
  DW_CFA_def_cfa_offset: 96
  DW_CFA_offset: r29 (x29) at cfa-96
  DW_CFA_offset: r30 (x30) at cfa-88
  DW_CFA_advance_loc: 8 to 00000000000331c0
  DW_CFA_offset: r19 (x19) at cfa-80
  DW_CFA_offset: r20 (x20) at cfa-72
  DW_CFA_advance_loc: 24 to 00000000000331d8
  DW_CFA_offset: r21 (x21) at cfa-64
  DW_CFA_advance_loc: 124 to 0000000000033254
  DW_CFA_remember_state
  DW_CFA_restore: r30 (x30)
  DW_CFA_restore: r29 (x29)
  DW_CFA_restore: r21 (x21)
  DW_CFA_restore: r19 (x19)
  DW_CFA_restore: r20 (x20)
  DW_CFA_def_cfa_offset: 0
  DW_CFA_advance_loc: 4 to 0000000000033258
  DW_CFA_restore_state
  DW_CFA_nop

00001140 0000000000000010 00001144 FDE cie=00000000 pc=0000000000033264..0000000000033324
  DW_CFA_nop
  DW_CFA_nop
  DW_CFA_nop

00001154 000000000000002c 00001158 FDE cie=00000000 pc=0000000000033324..00000000000333d4
  DW_CFA_advance_loc: 4 to 0000000000033328
  DW_CFA_def_cfa_offset: 32
  DW_CFA_offset: r29 (x29) at cfa-32
  DW_CFA_offset: r30 (x30) at cfa-24
  DW_CFA_advance_loc: 12 to 0000000000033334
  DW_CFA_offset: r19 (x19) at cfa-16
  DW_CFA_advance_loc: 60 to 0000000000033370
  DW_CFA_remember_state
  DW_CFA_restore: r30 (x30)
  DW_CFA_restore: r29 (x29)
  DW_CFA_restore: r19 (x19)
  DW_CFA_def_cfa_offset: 0
  DW_CFA_advance_loc: 4 to 0000000000033374
  DW_CFA_restore_state
  DW_CFA_advance_loc: 68 to 00000000000333b8
  DW_CFA_remember_state
  DW_CFA_restore: r30 (x30)
  DW_CFA_restore: r29 (x29)
  DW_CFA_restore: r19 (x19)
  DW_CFA_def_cfa_offset: 0
  DW_CFA_advance_loc: 4 to 00000000000333bc
  DW_CFA_restore_state
  DW_CFA_nop
  DW_CFA_nop
  DW_CFA_nop

00001184 0000000000000020 00001188 FDE cie=00000000 pc=00000000000333d4..0000000000033484
  DW_CFA_advance_loc: 4 to 00000000000333d8
  DW_CFA_def_cfa_offset: 304
  DW_CFA_offset: r29 (x29) at cfa-304
  DW_CFA_offset: r30 (x30) at cfa-296
  DW_CFA_advance_loc: 164 to 000000000003347c
  DW_CFA_remember_state
  DW_CFA_restore: r30 (x30)
  DW_CFA_restore: r29 (x29)
  DW_CFA_def_cfa_offset: 0
  DW_CFA_advance_loc: 4 to 0000000000033480
  DW_CFA_restore_state
  DW_CFA_nop
  DW_CFA_nop
  DW_CFA_nop

000011a8 000000000000002c 000011ac FDE cie=00000000 pc=0000000000033484..00000000000334d4
  DW_CFA_advance_loc: 4 to 0000000000033488
  DW_CFA_def_cfa_offset: 16
  DW_CFA_offset: r29 (x29) at cfa-16
  DW_CFA_offset: r30 (x30) at cfa-8
  DW_CFA_advance_loc: 16 to 0000000000033498
  DW_CFA_remember_state
  DW_CFA_restore: r30 (x30)
  DW_CFA_restore: r29 (x29)
  DW_CFA_def_cfa_offset: 0
  DW_CFA_advance_loc: 4 to 000000000003349c
  DW_CFA_restore_state
  DW_CFA_advance_loc: 24 to 00000000000334b4
  DW_CFA_remember_state
  DW_CFA_restore: r30 (x30)
  DW_CFA_restore: r29 (x29)
  DW_CFA_def_cfa_offset: 0
  DW_CFA_advance_loc: 4 to 00000000000334b8
  DW_CFA_restore_state
  DW_CFA_advance_loc: 24 to 00000000000334d0
  DW_CFA_restore: r30 (x30)
  DW_CFA_restore: r29 (x29)
  DW_CFA_def_cfa_offset: 0
  DW_CFA_nop
  DW_CFA_nop
  DW_CFA_nop

000011d8 000000000000001c 000011dc FDE cie=00000000 pc=00000000000090ec..0000000000009110
  DW_CFA_advance_loc: 4 to 00000000000090f0
  DW_CFA_def_cfa_offset: 16
  DW_CFA_offset: r29 (x29) at cfa-16
  DW_CFA_offset: r30 (x30) at cfa-8
  DW_CFA_advance_loc: 28 to 000000000000910c
  DW_CFA_restore: r30 (x30)
  DW_CFA_restore: r29 (x29)
  DW_CFA_def_cfa_offset: 0
  DW_CFA_nop
  DW_CFA_nop
  DW_CFA_nop

000011f8 0000000000000040 000011fc FDE cie=00000000 pc=0000000000009110..000000000000a104
  DW_CFA_advance_loc: 4 to 0000000000009114
  DW_CFA_def_cfa_offset: 224
  DW_CFA_offset: r29 (x29) at cfa-224
  DW_CFA_offset: r30 (x30) at cfa-216
  DW_CFA_advance_loc: 16 to 0000000000009124
  DW_CFA_offset: r21 (x21) at cfa-192
  DW_CFA_offset: r22 (x22) at cfa-184
  DW_CFA_advance_loc: 8 to 000000000000912c
  DW_CFA_offset: r19 (x19) at cfa-208
  DW_CFA_offset: r20 (x20) at cfa-200
  DW_CFA_advance_loc: 24 to 0000000000009144
  DW_CFA_offset: r23 (x23) at cfa-176
  DW_CFA_offset: r24 (x24) at cfa-168
  DW_CFA_offset: r25 (x25) at cfa-160
  DW_CFA_offset: r26 (x26) at cfa-152
  DW_CFA_offset: r27 (x27) at cfa-144
  DW_CFA_offset: r28 (x28) at cfa-136
  DW_CFA_advance_loc2: 4028 to 000000000000a100
  DW_CFA_restore: r30 (x30)
  DW_CFA_restore: r29 (x29)
  DW_CFA_restore: r27 (x27)
  DW_CFA_restore: r28 (x28)
  DW_CFA_restore: r25 (x25)
  DW_CFA_restore: r26 (x26)
  DW_CFA_restore: r23 (x23)
  DW_CFA_restore: r24 (x24)
  DW_CFA_restore: r21 (x21)
  DW_CFA_restore: r22 (x22)
  DW_CFA_restore: r19 (x19)
  DW_CFA_restore: r20 (x20)
  DW_CFA_def_cfa_offset: 0
  DW_CFA_nop
  DW_CFA_nop
  DW_CFA_nop

0000123c 0000000000000040 00001240 FDE cie=00000000 pc=00000000000334d4..0000000000035cb4
  DW_CFA_advance_loc: 4 to 00000000000334d8
  DW_CFA_def_cfa_offset: 272
  DW_CFA_offset: r29 (x29) at cfa-272
  DW_CFA_offset: r30 (x30) at cfa-264
  DW_CFA_advance_loc: 24 to 00000000000334f0
  DW_CFA_offset: r19 (x19) at cfa-256
  DW_CFA_offset: r20 (x20) at cfa-248
  DW_CFA_advance_loc: 16 to 0000000000033500
  DW_CFA_offset: r21 (x21) at cfa-240
  DW_CFA_offset: r22 (x22) at cfa-232
  DW_CFA_offset: r23 (x23) at cfa-224
  DW_CFA_offset: r24 (x24) at cfa-216
  DW_CFA_offset: r25 (x25) at cfa-208
  DW_CFA_offset: r26 (x26) at cfa-200
  DW_CFA_advance_loc: 8 to 0000000000033508
  DW_CFA_offset: r27 (x27) at cfa-192
  DW_CFA_offset: r28 (x28) at cfa-184
  DW_CFA_advance_loc2: 2916 to 000000000003406c
  DW_CFA_remember_state
  DW_CFA_restore: r30 (x30)
  DW_CFA_restore: r29 (x29)
  DW_CFA_restore: r27 (x27)
  DW_CFA_restore: r28 (x28)
  DW_CFA_restore: r25 (x25)
  DW_CFA_restore: r26 (x26)
  DW_CFA_restore: r23 (x23)
  DW_CFA_restore: r24 (x24)
  DW_CFA_restore: r21 (x21)
  DW_CFA_restore: r22 (x22)
  DW_CFA_restore: r19 (x19)
  DW_CFA_restore: r20 (x20)
  DW_CFA_def_cfa_offset: 0
  DW_CFA_advance_loc: 4 to 0000000000034070
  DW_CFA_restore_state

00001280 0000000000000040 00001284 FDE cie=00000000 pc=0000000000025f00..00000000000262f0
  DW_CFA_advance_loc: 4 to 0000000000025f04
  DW_CFA_def_cfa_offset: 384
  DW_CFA_offset: r29 (x29) at cfa-384
  DW_CFA_offset: r30 (x30) at cfa-376
  DW_CFA_advance_loc: 20 to 0000000000025f18
  DW_CFA_offset: r19 (x19) at cfa-368
  DW_CFA_offset: r20 (x20) at cfa-360
  DW_CFA_advance_loc: 12 to 0000000000025f24
  DW_CFA_offset: r21 (x21) at cfa-352
  DW_CFA_offset: r22 (x22) at cfa-344
  DW_CFA_advance_loc: 16 to 0000000000025f34
  DW_CFA_offset: r23 (x23) at cfa-336
  DW_CFA_offset: r24 (x24) at cfa-328
  DW_CFA_offset: r25 (x25) at cfa-320
  DW_CFA_offset: r26 (x26) at cfa-312
  DW_CFA_offset: r27 (x27) at cfa-304
  DW_CFA_offset: r28 (x28) at cfa-296
  DW_CFA_advance_loc1: 260 to 0000000000026038
  DW_CFA_remember_state
  DW_CFA_restore: r30 (x30)
  DW_CFA_restore: r29 (x29)
  DW_CFA_restore: r27 (x27)
  DW_CFA_restore: r28 (x28)
  DW_CFA_restore: r25 (x25)
  DW_CFA_restore: r26 (x26)
  DW_CFA_restore: r23 (x23)
  DW_CFA_restore: r24 (x24)
  DW_CFA_restore: r21 (x21)
  DW_CFA_restore: r22 (x22)
  DW_CFA_restore: r19 (x19)
  DW_CFA_restore: r20 (x20)
  DW_CFA_def_cfa_offset: 0
  DW_CFA_advance_loc: 4 to 000000000002603c
  DW_CFA_restore_state
  DW_CFA_nop

000012c4 0000000000000040 000012c8 FDE cie=00000000 pc=000000000000a104..000000000000a5dc
  DW_CFA_advance_loc: 4 to 000000000000a108
  DW_CFA_def_cfa_offset: 112
  DW_CFA_offset: r29 (x29) at cfa-112
  DW_CFA_offset: r30 (x30) at cfa-104
  DW_CFA_advance_loc: 8 to 000000000000a110
  DW_CFA_offset: r21 (x21) at cfa-80
  DW_CFA_offset: r22 (x22) at cfa-72
  DW_CFA_advance_loc: 28 to 000000000000a12c
  DW_CFA_offset: r19 (x19) at cfa-96
  DW_CFA_offset: r20 (x20) at cfa-88
  DW_CFA_offset: r23 (x23) at cfa-64
  DW_CFA_offset: r24 (x24) at cfa-56
  DW_CFA_advance_loc: 12 to 000000000000a138
  DW_CFA_offset: r25 (x25) at cfa-48
  DW_CFA_offset: r26 (x26) at cfa-40
  DW_CFA_advance_loc: 12 to 000000000000a144
  DW_CFA_offset: r27 (x27) at cfa-32
  DW_CFA_offset: r28 (x28) at cfa-24
  DW_CFA_advance_loc2: 1172 to 000000000000a5d8
  DW_CFA_restore: r30 (x30)
  DW_CFA_restore: r29 (x29)
  DW_CFA_restore: r27 (x27)
  DW_CFA_restore: r28 (x28)
  DW_CFA_restore: r25 (x25)
  DW_CFA_restore: r26 (x26)
  DW_CFA_restore: r23 (x23)
  DW_CFA_restore: r24 (x24)
  DW_CFA_restore: r21 (x21)
  DW_CFA_restore: r22 (x22)
  DW_CFA_restore: r19 (x19)
  DW_CFA_restore: r20 (x20)
  DW_CFA_def_cfa_offset: 0
  DW_CFA_nop
  DW_CFA_nop
  DW_CFA_nop

00001308 0000000000000028 0000130c FDE cie=00000000 pc=000000000000a5dc..000000000000a708
  DW_CFA_advance_loc: 4 to 000000000000a5e0
  DW_CFA_def_cfa_offset: 48
  DW_CFA_offset: r29 (x29) at cfa-48
  DW_CFA_offset: r30 (x30) at cfa-40
  DW_CFA_advance_loc: 8 to 000000000000a5e8
  DW_CFA_offset: r19 (x19) at cfa-32
  DW_CFA_offset: r20 (x20) at cfa-24
  DW_CFA_advance_loc: 16 to 000000000000a5f8
  DW_CFA_offset: r21 (x21) at cfa-16
  DW_CFA_advance_loc1: 268 to 000000000000a704
  DW_CFA_restore: r30 (x30)
  DW_CFA_restore: r29 (x29)
  DW_CFA_restore: r21 (x21)
  DW_CFA_restore: r19 (x19)
  DW_CFA_restore: r20 (x20)
  DW_CFA_def_cfa_offset: 0
  DW_CFA_nop
  DW_CFA_nop
  DW_CFA_nop

00001334 0000000000000040 00001338 FDE cie=00000000 pc=0000000000035cb4..0000000000035d84
  DW_CFA_advance_loc: 4 to 0000000000035cb8
  DW_CFA_def_cfa_offset: 64
  DW_CFA_offset: r29 (x29) at cfa-64
  DW_CFA_offset: r30 (x30) at cfa-56
  DW_CFA_advance_loc: 16 to 0000000000035cc8
  DW_CFA_offset: r19 (x19) at cfa-48
  DW_CFA_offset: r20 (x20) at cfa-40
  DW_CFA_advance_loc: 12 to 0000000000035cd4
  DW_CFA_offset: r21 (x21) at cfa-32
  DW_CFA_offset: r22 (x22) at cfa-24
  DW_CFA_advance_loc: 84 to 0000000000035d28
  DW_CFA_offset: r23 (x23) at cfa-16
  DW_CFA_advance_loc: 52 to 0000000000035d5c
  DW_CFA_restore: r23 (x23)
  DW_CFA_advance_loc: 12 to 0000000000035d68
  DW_CFA_restore: r30 (x30)
  DW_CFA_restore: r29 (x29)
  DW_CFA_restore: r21 (x21)
  DW_CFA_restore: r22 (x22)
  DW_CFA_restore: r19 (x19)
  DW_CFA_restore: r20 (x20)
  DW_CFA_def_cfa_offset: 0
  DW_CFA_advance_loc: 4 to 0000000000035d6c
  DW_CFA_def_cfa_offset: 64
  DW_CFA_offset: r19 (x19) at cfa-48
  DW_CFA_offset: r20 (x20) at cfa-40
  DW_CFA_offset: r21 (x21) at cfa-32
  DW_CFA_offset: r22 (x22) at cfa-24
  DW_CFA_offset: r23 (x23) at cfa-16
  DW_CFA_offset: r29 (x29) at cfa-64
  DW_CFA_offset: r30 (x30) at cfa-56
  DW_CFA_nop
  DW_CFA_nop
  DW_CFA_nop

00001378 000000000000002c 0000137c FDE cie=00000000 pc=0000000000035d84..0000000000035ddc
  DW_CFA_advance_loc: 4 to 0000000000035d88
  DW_CFA_def_cfa_offset: 32
  DW_CFA_offset: r29 (x29) at cfa-32
  DW_CFA_offset: r30 (x30) at cfa-24
  DW_CFA_advance_loc: 8 to 0000000000035d90
  DW_CFA_offset: r19 (x19) at cfa-16
  DW_CFA_advance_loc: 28 to 0000000000035dac
  DW_CFA_remember_state
  DW_CFA_restore: r30 (x30)
  DW_CFA_restore: r29 (x29)
  DW_CFA_restore: r19 (x19)
  DW_CFA_def_cfa_offset: 0
  DW_CFA_advance_loc: 4 to 0000000000035db0
  DW_CFA_restore_state
  DW_CFA_advance_loc: 12 to 0000000000035dbc
  DW_CFA_remember_state
  DW_CFA_restore: r30 (x30)
  DW_CFA_restore: r29 (x29)
  DW_CFA_restore: r19 (x19)
  DW_CFA_def_cfa_offset: 0
  DW_CFA_advance_loc: 4 to 0000000000035dc0
  DW_CFA_restore_state
  DW_CFA_nop
  DW_CFA_nop
  DW_CFA_nop

000013a8 000000000000008c 000013ac FDE cie=00000000 pc=0000000000035de0..0000000000036288
  DW_CFA_advance_loc: 4 to 0000000000035de4
  DW_CFA_def_cfa_offset: 128
  DW_CFA_offset: r29 (x29) at cfa-128
  DW_CFA_offset: r30 (x30) at cfa-120
  DW_CFA_advance_loc: 8 to 0000000000035dec
  DW_CFA_offset: r21 (x21) at cfa-96
  DW_CFA_offset: r22 (x22) at cfa-88
  DW_CFA_advance_loc: 16 to 0000000000035dfc
  DW_CFA_offset: r19 (x19) at cfa-112
  DW_CFA_offset: r20 (x20) at cfa-104
  DW_CFA_advance_loc: 44 to 0000000000035e28
  DW_CFA_offset: r24 (x24) at cfa-72
  DW_CFA_offset: r23 (x23) at cfa-80
  DW_CFA_advance_loc: 4 to 0000000000035e2c
  DW_CFA_offset: r26 (x26) at cfa-56
  DW_CFA_offset: r25 (x25) at cfa-64
  DW_CFA_advance_loc: 8 to 0000000000035e34
  DW_CFA_offset: r28 (x28) at cfa-40
  DW_CFA_offset: r27 (x27) at cfa-48
  DW_CFA_advance_loc1: 468 to 0000000000036008
  DW_CFA_restore: r28 (x28)
  DW_CFA_restore: r27 (x27)
  DW_CFA_advance_loc: 8 to 0000000000036010
  DW_CFA_restore: r26 (x26)
  DW_CFA_restore: r25 (x25)
  DW_CFA_advance_loc: 8 to 0000000000036018
  DW_CFA_restore: r24 (x24)
  DW_CFA_restore: r23 (x23)
  DW_CFA_advance_loc: 44 to 0000000000036044
  DW_CFA_restore: r30 (x30)
  DW_CFA_restore: r29 (x29)
  DW_CFA_restore: r21 (x21)
  DW_CFA_restore: r22 (x22)
  DW_CFA_restore: r19 (x19)
  DW_CFA_restore: r20 (x20)
  DW_CFA_def_cfa_offset: 0
  DW_CFA_advance_loc: 4 to 0000000000036048
  DW_CFA_def_cfa_offset: 128
  DW_CFA_offset: r19 (x19) at cfa-112
  DW_CFA_offset: r20 (x20) at cfa-104
  DW_CFA_offset: r21 (x21) at cfa-96
  DW_CFA_offset: r22 (x22) at cfa-88
  DW_CFA_offset: r23 (x23) at cfa-80
  DW_CFA_offset: r24 (x24) at cfa-72
  DW_CFA_offset: r25 (x25) at cfa-64
  DW_CFA_offset: r26 (x26) at cfa-56
  DW_CFA_offset: r27 (x27) at cfa-48
  DW_CFA_offset: r28 (x28) at cfa-40
  DW_CFA_offset: r29 (x29) at cfa-128
  DW_CFA_offset: r30 (x30) at cfa-120
  DW_CFA_advance_loc: 64 to 0000000000036088
  DW_CFA_restore: r23 (x23)
  DW_CFA_restore: r24 (x24)
  DW_CFA_restore: r25 (x25)
  DW_CFA_restore: r26 (x26)
  DW_CFA_restore: r27 (x27)
  DW_CFA_restore: r28 (x28)
  DW_CFA_advance_loc: 4 to 000000000003608c
  DW_CFA_offset: r24 (x24) at cfa-72
  DW_CFA_offset: r23 (x23) at cfa-80
  DW_CFA_advance_loc: 4 to 0000000000036090
  DW_CFA_offset: r26 (x26) at cfa-56
  DW_CFA_offset: r25 (x25) at cfa-64
  DW_CFA_advance_loc: 4 to 0000000000036094
  DW_CFA_offset: r28 (x28) at cfa-40
  DW_CFA_offset: r27 (x27) at cfa-48
  DW_CFA_advance_loc: 156 to 0000000000036130
  DW_CFA_restore: r24 (x24)
  DW_CFA_restore: r23 (x23)
  DW_CFA_advance_loc: 4 to 0000000000036134
  DW_CFA_restore: r26 (x26)
  DW_CFA_restore: r25 (x25)
  DW_CFA_advance_loc: 4 to 0000000000036138
  DW_CFA_restore: r28 (x28)
  DW_CFA_restore: r27 (x27)
  DW_CFA_advance_loc: 8 to 0000000000036140
  DW_CFA_offset: r23 (x23) at cfa-80
  DW_CFA_offset: r24 (x24) at cfa-72
  DW_CFA_offset: r25 (x25) at cfa-64
  DW_CFA_offset: r26 (x26) at cfa-56
  DW_CFA_offset: r27 (x27) at cfa-48
  DW_CFA_offset: r28 (x28) at cfa-40
  DW_CFA_nop
  DW_CFA_nop
  DW_CFA_nop

00001438 0000000000000010 0000143c FDE cie=00000000 pc=0000000000036290..00000000000362a4
  DW_CFA_nop
  DW_CFA_nop
  DW_CFA_nop

0000144c 0000000000000028 00001450 FDE cie=00000000 pc=000000000000a708..000000000000a81c
  DW_CFA_advance_loc: 4 to 000000000000a70c
  DW_CFA_def_cfa_offset: 352
  DW_CFA_offset: r29 (x29) at cfa-352
  DW_CFA_offset: r30 (x30) at cfa-344
  DW_CFA_advance_loc: 24 to 000000000000a724
  DW_CFA_offset: r19 (x19) at cfa-336
  DW_CFA_offset: r20 (x20) at cfa-328
  DW_CFA_advance_loc: 8 to 000000000000a72c
  DW_CFA_offset: r21 (x21) at cfa-320
  DW_CFA_advance_loc: 236 to 000000000000a818
  DW_CFA_restore: r30 (x30)
  DW_CFA_restore: r29 (x29)
  DW_CFA_restore: r21 (x21)
  DW_CFA_restore: r19 (x19)
  DW_CFA_restore: r20 (x20)
  DW_CFA_def_cfa_offset: 0
  DW_CFA_nop
  DW_CFA_nop
  DW_CFA_nop

00001478 0000000000000040 0000147c FDE cie=00000000 pc=00000000000362a4..00000000000363e8
  DW_CFA_advance_loc: 4 to 00000000000362a8
  DW_CFA_def_cfa_offset: 48
  DW_CFA_offset: r29 (x29) at cfa-48
  DW_CFA_offset: r30 (x30) at cfa-40
  DW_CFA_advance_loc: 12 to 00000000000362b4
  DW_CFA_offset: r19 (x19) at cfa-32
  DW_CFA_offset: r20 (x20) at cfa-24
  DW_CFA_advance_loc: 16 to 00000000000362c4
  DW_CFA_offset: r21 (x21) at cfa-16
  DW_CFA_offset: r22 (x22) at cfa-8
  DW_CFA_advance_loc: 76 to 0000000000036310
  DW_CFA_remember_state
  DW_CFA_restore: r30 (x30)
  DW_CFA_restore: r29 (x29)
  DW_CFA_restore: r21 (x21)
  DW_CFA_restore: r22 (x22)
  DW_CFA_restore: r19 (x19)
  DW_CFA_restore: r20 (x20)
  DW_CFA_def_cfa_offset: 0
  DW_CFA_advance_loc: 4 to 0000000000036314
  DW_CFA_restore_state
  DW_CFA_advance_loc: 132 to 0000000000036398
  DW_CFA_remember_state
  DW_CFA_restore: r30 (x30)
  DW_CFA_restore: r29 (x29)
  DW_CFA_restore: r21 (x21)
  DW_CFA_restore: r22 (x22)
  DW_CFA_restore: r19 (x19)
  DW_CFA_restore: r20 (x20)
  DW_CFA_def_cfa_offset: 0
  DW_CFA_advance_loc: 4 to 000000000003639c
  DW_CFA_restore_state
  DW_CFA_advance_loc: 72 to 00000000000363e4
  DW_CFA_restore: r30 (x30)
  DW_CFA_restore: r29 (x29)
  DW_CFA_restore: r21 (x21)
  DW_CFA_restore: r22 (x22)
  DW_CFA_restore: r19 (x19)
  DW_CFA_restore: r20 (x20)
  DW_CFA_def_cfa_offset: 0
  DW_CFA_nop

000014bc 0000000000000044 000014c0 FDE cie=00000000 pc=00000000000363f0..0000000000038bc8
  DW_CFA_advance_loc: 4 to 00000000000363f4
  DW_CFA_def_cfa_offset: 208
  DW_CFA_advance_loc: 12 to 0000000000036400
  DW_CFA_offset: r29 (x29) at cfa-192
  DW_CFA_offset: r30 (x30) at cfa-184
  DW_CFA_advance_loc: 32 to 0000000000036420
  DW_CFA_offset: r19 (x19) at cfa-176
  DW_CFA_offset: r20 (x20) at cfa-168
  DW_CFA_offset: r21 (x21) at cfa-160
  DW_CFA_offset: r22 (x22) at cfa-152
  DW_CFA_advance_loc: 12 to 000000000003642c
  DW_CFA_offset: r23 (x23) at cfa-144
  DW_CFA_offset: r24 (x24) at cfa-136
  DW_CFA_advance_loc: 12 to 0000000000036438
  DW_CFA_offset: r25 (x25) at cfa-128
  DW_CFA_offset: r26 (x26) at cfa-120
  DW_CFA_advance_loc: 12 to 0000000000036444
  DW_CFA_offset: r27 (x27) at cfa-112
  DW_CFA_offset: r28 (x28) at cfa-104
  DW_CFA_advance_loc1: 568 to 000000000003667c
  DW_CFA_remember_state
  DW_CFA_restore: r29 (x29)
  DW_CFA_restore: r30 (x30)
  DW_CFA_restore: r27 (x27)
  DW_CFA_restore: r28 (x28)
  DW_CFA_restore: r25 (x25)
  DW_CFA_restore: r26 (x26)
  DW_CFA_restore: r23 (x23)
  DW_CFA_restore: r24 (x24)
  DW_CFA_restore: r21 (x21)
  DW_CFA_restore: r22 (x22)
  DW_CFA_restore: r19 (x19)
  DW_CFA_restore: r20 (x20)
  DW_CFA_def_cfa_offset: 0
  DW_CFA_advance_loc: 4 to 0000000000036680
  DW_CFA_restore_state
  DW_CFA_nop
  DW_CFA_nop
  DW_CFA_nop

00001504 0000000000000020 00001508 FDE cie=00000000 pc=0000000000038bd0..0000000000038c58
  DW_CFA_advance_loc: 4 to 0000000000038bd4
  DW_CFA_def_cfa_offset: 32
  DW_CFA_offset: r29 (x29) at cfa-32
  DW_CFA_offset: r30 (x30) at cfa-24
  DW_CFA_advance_loc: 16 to 0000000000038be4
  DW_CFA_offset: r19 (x19) at cfa-16
  DW_CFA_advance_loc: 32 to 0000000000038c04
  DW_CFA_remember_state
  DW_CFA_restore: r30 (x30)
  DW_CFA_restore: r29 (x29)
  DW_CFA_restore: r19 (x19)
  DW_CFA_def_cfa_offset: 0
  DW_CFA_advance_loc: 4 to 0000000000038c08
  DW_CFA_restore_state

00001528 0000000000000040 0000152c FDE cie=00000000 pc=0000000000038c60..0000000000038d24
  DW_CFA_advance_loc: 4 to 0000000000038c64
  DW_CFA_def_cfa_offset: 32
  DW_CFA_offset: r29 (x29) at cfa-32
  DW_CFA_offset: r30 (x30) at cfa-24
  DW_CFA_advance_loc: 16 to 0000000000038c74
  DW_CFA_offset: r19 (x19) at cfa-16
  DW_CFA_offset: r20 (x20) at cfa-8
  DW_CFA_advance_loc: 64 to 0000000000038cb4
  DW_CFA_remember_state
  DW_CFA_restore: r30 (x30)
  DW_CFA_restore: r29 (x29)
  DW_CFA_restore: r19 (x19)
  DW_CFA_restore: r20 (x20)
  DW_CFA_def_cfa_offset: 0
  DW_CFA_advance_loc: 4 to 0000000000038cb8
  DW_CFA_restore_state
  DW_CFA_advance_loc: 12 to 0000000000038cc4
  DW_CFA_remember_state
  DW_CFA_restore: r30 (x30)
  DW_CFA_restore: r29 (x29)
  DW_CFA_restore: r19 (x19)
  DW_CFA_restore: r20 (x20)
  DW_CFA_def_cfa_offset: 0
  DW_CFA_advance_loc: 12 to 0000000000038cd0
  DW_CFA_restore_state
  DW_CFA_advance_loc: 40 to 0000000000038cf8
  DW_CFA_remember_state
  DW_CFA_restore: r30 (x30)
  DW_CFA_restore: r29 (x29)
  DW_CFA_restore: r19 (x19)
  DW_CFA_restore: r20 (x20)
  DW_CFA_def_cfa_offset: 0
  DW_CFA_advance_loc: 16 to 0000000000038d08
  DW_CFA_restore_state
  DW_CFA_advance_loc: 12 to 0000000000038d14
  DW_CFA_restore: r30 (x30)
  DW_CFA_restore: r29 (x29)
  DW_CFA_restore: r19 (x19)
  DW_CFA_restore: r20 (x20)
  DW_CFA_def_cfa_offset: 0
  DW_CFA_nop
  DW_CFA_nop

0000156c 0000000000000034 00001570 FDE cie=00000000 pc=0000000000038d24..0000000000038eac
  DW_CFA_advance_loc: 4 to 0000000000038d28
  DW_CFA_def_cfa_offset: 48
  DW_CFA_offset: r29 (x29) at cfa-48
  DW_CFA_offset: r30 (x30) at cfa-40
  DW_CFA_advance_loc: 8 to 0000000000038d30
  DW_CFA_offset: r21 (x21) at cfa-16
  DW_CFA_advance_loc: 24 to 0000000000038d48
  DW_CFA_remember_state
  DW_CFA_restore: r30 (x30)
  DW_CFA_restore: r29 (x29)
  DW_CFA_restore: r21 (x21)
  DW_CFA_def_cfa_offset: 0
  DW_CFA_advance_loc: 4 to 0000000000038d4c
  DW_CFA_restore_state
  DW_CFA_advance_loc: 4 to 0000000000038d50
  DW_CFA_offset: r20 (x20) at cfa-24
  DW_CFA_offset: r19 (x19) at cfa-32
  DW_CFA_advance_loc: 200 to 0000000000038e18
  DW_CFA_remember_state
  DW_CFA_restore: r20 (x20)
  DW_CFA_restore: r19 (x19)
  DW_CFA_advance_loc: 8 to 0000000000038e20
  DW_CFA_restore_state
  DW_CFA_advance_loc: 76 to 0000000000038e6c
  DW_CFA_remember_state
  DW_CFA_restore: r20 (x20)
  DW_CFA_restore: r19 (x19)
  DW_CFA_advance_loc: 8 to 0000000000038e74
  DW_CFA_restore_state
  DW_CFA_nop
  DW_CFA_nop
  DW_CFA_nop

000015a4 0000000000000040 000015a8 FDE cie=00000000 pc=0000000000038eb0..0000000000038f74
  DW_CFA_advance_loc: 4 to 0000000000038eb4
  DW_CFA_def_cfa_offset: 32
  DW_CFA_offset: r29 (x29) at cfa-32
  DW_CFA_offset: r30 (x30) at cfa-24
  DW_CFA_advance_loc: 16 to 0000000000038ec4
  DW_CFA_offset: r19 (x19) at cfa-16
  DW_CFA_offset: r20 (x20) at cfa-8
  DW_CFA_advance_loc: 64 to 0000000000038f04
  DW_CFA_remember_state
  DW_CFA_restore: r30 (x30)
  DW_CFA_restore: r29 (x29)
  DW_CFA_restore: r19 (x19)
  DW_CFA_restore: r20 (x20)
  DW_CFA_def_cfa_offset: 0
  DW_CFA_advance_loc: 4 to 0000000000038f08
  DW_CFA_restore_state
  DW_CFA_advance_loc: 12 to 0000000000038f14
  DW_CFA_remember_state
  DW_CFA_restore: r30 (x30)
  DW_CFA_restore: r29 (x29)
  DW_CFA_restore: r19 (x19)
  DW_CFA_restore: r20 (x20)
  DW_CFA_def_cfa_offset: 0
  DW_CFA_advance_loc: 12 to 0000000000038f20
  DW_CFA_restore_state
  DW_CFA_advance_loc: 12 to 0000000000038f2c
  DW_CFA_remember_state
  DW_CFA_restore: r30 (x30)
  DW_CFA_restore: r29 (x29)
  DW_CFA_restore: r19 (x19)
  DW_CFA_restore: r20 (x20)
  DW_CFA_def_cfa_offset: 0
  DW_CFA_advance_loc: 16 to 0000000000038f3c
  DW_CFA_restore_state
  DW_CFA_advance_loc: 40 to 0000000000038f64
  DW_CFA_restore: r30 (x30)
  DW_CFA_restore: r29 (x29)
  DW_CFA_restore: r19 (x19)
  DW_CFA_restore: r20 (x20)
  DW_CFA_def_cfa_offset: 0
  DW_CFA_nop
  DW_CFA_nop

000015e8 0000000000000024 000015ec FDE cie=00000000 pc=0000000000038f74..0000000000038fc0
  DW_CFA_advance_loc: 4 to 0000000000038f78
  DW_CFA_def_cfa_offset: 48
  DW_CFA_offset: r29 (x29) at cfa-48
  DW_CFA_offset: r30 (x30) at cfa-40
  DW_CFA_advance_loc: 8 to 0000000000038f80
  DW_CFA_offset: r19 (x19) at cfa-32
  DW_CFA_offset: r20 (x20) at cfa-24
  DW_CFA_advance_loc: 16 to 0000000000038f90
  DW_CFA_offset: r21 (x21) at cfa-16
  DW_CFA_advance_loc: 44 to 0000000000038fbc
  DW_CFA_restore: r30 (x30)
  DW_CFA_restore: r29 (x29)
  DW_CFA_restore: r21 (x21)
  DW_CFA_restore: r19 (x19)
  DW_CFA_restore: r20 (x20)
  DW_CFA_def_cfa_offset: 0

00001610 0000000000000010 00001614 FDE cie=00000000 pc=0000000000038fc0..0000000000038fc8
  DW_CFA_nop
  DW_CFA_nop
  DW_CFA_nop

00001624 0000000000000010 00001628 FDE cie=00000000 pc=0000000000038fd0..0000000000039008
  DW_CFA_nop
  DW_CFA_nop
  DW_CFA_nop

00001638 0000000000000024 0000163c FDE cie=00000000 pc=0000000000039010..0000000000039078
  DW_CFA_advance_loc: 4 to 0000000000039014
  DW_CFA_def_cfa_offset: 48
  DW_CFA_offset: r29 (x29) at cfa-48
  DW_CFA_offset: r30 (x30) at cfa-40
  DW_CFA_advance_loc: 8 to 000000000003901c
  DW_CFA_offset: r19 (x19) at cfa-32
  DW_CFA_offset: r20 (x20) at cfa-24
  DW_CFA_advance_loc: 8 to 0000000000039024
  DW_CFA_offset: r21 (x21) at cfa-16
  DW_CFA_advance_loc: 80 to 0000000000039074
  DW_CFA_restore: r30 (x30)
  DW_CFA_restore: r29 (x29)
  DW_CFA_restore: r21 (x21)
  DW_CFA_restore: r19 (x19)
  DW_CFA_restore: r20 (x20)
  DW_CFA_def_cfa_offset: 0

00001660 0000000000000060 00001664 FDE cie=00000000 pc=00000000000262f0..00000000000265cc
  DW_CFA_advance_loc: 4 to 00000000000262f4
  DW_CFA_def_cfa_offset: 96
  DW_CFA_offset: r29 (x29) at cfa-96
  DW_CFA_offset: r30 (x30) at cfa-88
  DW_CFA_advance_loc: 8 to 00000000000262fc
  DW_CFA_offset: r23 (x23) at cfa-48
  DW_CFA_offset: r24 (x24) at cfa-40
  DW_CFA_advance_loc: 12 to 0000000000026308
  DW_CFA_offset: r19 (x19) at cfa-80
  DW_CFA_offset: r20 (x20) at cfa-72
  DW_CFA_offset: r25 (x25) at cfa-32
  DW_CFA_offset: r26 (x26) at cfa-24
  DW_CFA_advance_loc: 20 to 000000000002631c
  DW_CFA_offset: r22 (x22) at cfa-56
  DW_CFA_offset: r21 (x21) at cfa-64
  DW_CFA_advance_loc: 12 to 0000000000026328
  DW_CFA_offset: r28 (x28) at cfa-8
  DW_CFA_offset: r27 (x27) at cfa-16
  DW_CFA_advance_loc1: 380 to 00000000000264a4
  DW_CFA_restore: r22 (x22)
  DW_CFA_restore: r21 (x21)
  DW_CFA_advance_loc: 8 to 00000000000264ac
  DW_CFA_restore: r28 (x28)
  DW_CFA_restore: r27 (x27)
  DW_CFA_advance_loc: 16 to 00000000000264bc
  DW_CFA_restore: r30 (x30)
  DW_CFA_restore: r29 (x29)
  DW_CFA_restore: r25 (x25)
  DW_CFA_restore: r26 (x26)
  DW_CFA_restore: r23 (x23)
  DW_CFA_restore: r24 (x24)
  DW_CFA_restore: r19 (x19)
  DW_CFA_restore: r20 (x20)
  DW_CFA_def_cfa_offset: 0
  DW_CFA_advance_loc: 4 to 00000000000264c0
  DW_CFA_def_cfa_offset: 96
  DW_CFA_offset: r19 (x19) at cfa-80
  DW_CFA_offset: r20 (x20) at cfa-72
  DW_CFA_offset: r21 (x21) at cfa-64
  DW_CFA_offset: r22 (x22) at cfa-56
  DW_CFA_offset: r23 (x23) at cfa-48
  DW_CFA_offset: r24 (x24) at cfa-40
  DW_CFA_offset: r25 (x25) at cfa-32
  DW_CFA_offset: r26 (x26) at cfa-24
  DW_CFA_offset: r27 (x27) at cfa-16
  DW_CFA_offset: r28 (x28) at cfa-8
  DW_CFA_offset: r29 (x29) at cfa-96
  DW_CFA_offset: r30 (x30) at cfa-88
  DW_CFA_advance_loc: 220 to 000000000002659c
  DW_CFA_restore: r21 (x21)
  DW_CFA_restore: r22 (x22)
  DW_CFA_restore: r27 (x27)
  DW_CFA_restore: r28 (x28)
  DW_CFA_nop
  DW_CFA_nop

000016c4 0000000000000020 000016c8 FDE cie=00000000 pc=0000000000039080..00000000000390cc
  DW_CFA_advance_loc: 4 to 0000000000039084
  DW_CFA_def_cfa_offset: 32
  DW_CFA_offset: r29 (x29) at cfa-32
  DW_CFA_offset: r30 (x30) at cfa-24
  DW_CFA_advance_loc: 12 to 0000000000039090
  DW_CFA_offset: r19 (x19) at cfa-16
  DW_CFA_offset: r20 (x20) at cfa-8
  DW_CFA_advance_loc: 56 to 00000000000390c8
  DW_CFA_restore: r30 (x30)
  DW_CFA_restore: r29 (x29)
  DW_CFA_restore: r19 (x19)
  DW_CFA_restore: r20 (x20)
  DW_CFA_def_cfa_offset: 0

000016e8 0000000000000024 000016ec FDE cie=00000000 pc=00000000000390d0..0000000000039168
  DW_CFA_advance_loc: 4 to 00000000000390d4
  DW_CFA_def_cfa_offset: 32
  DW_CFA_offset: r29 (x29) at cfa-32
  DW_CFA_offset: r30 (x30) at cfa-24
  DW_CFA_advance_loc: 12 to 00000000000390e0
  DW_CFA_offset: r19 (x19) at cfa-16
  DW_CFA_offset: r20 (x20) at cfa-8
  DW_CFA_advance_loc: 88 to 0000000000039138
  DW_CFA_remember_state
  DW_CFA_restore: r30 (x30)
  DW_CFA_restore: r29 (x29)
  DW_CFA_restore: r19 (x19)
  DW_CFA_restore: r20 (x20)
  DW_CFA_def_cfa_offset: 0
  DW_CFA_advance_loc: 4 to 000000000003913c
  DW_CFA_restore_state
  DW_CFA_nop

00001710 0000000000000010 00001714 FDE cie=00000000 pc=0000000000039170..00000000000391a0
  DW_CFA_nop
  DW_CFA_nop
  DW_CFA_nop

00001724 0000000000000010 00001728 FDE cie=00000000 pc=00000000000391a0..00000000000391a8
  DW_CFA_nop
  DW_CFA_nop
  DW_CFA_nop

00001738 0000000000000030 0000173c FDE cie=00000000 pc=00000000000391b0..00000000000392e8
  DW_CFA_advance_loc: 4 to 00000000000391b4
  DW_CFA_def_cfa_offset: 80
  DW_CFA_offset: r29 (x29) at cfa-80
  DW_CFA_offset: r30 (x30) at cfa-72
  DW_CFA_advance_loc: 8 to 00000000000391bc
  DW_CFA_offset: r23 (x23) at cfa-32
  DW_CFA_offset: r24 (x24) at cfa-24
  DW_CFA_advance_loc: 24 to 00000000000391d4
  DW_CFA_offset: r19 (x19) at cfa-64
  DW_CFA_offset: r20 (x20) at cfa-56
  DW_CFA_offset: r21 (x21) at cfa-48
  DW_CFA_offset: r22 (x22) at cfa-40
  DW_CFA_advance_loc: 136 to 000000000003925c
  DW_CFA_remember_state
  DW_CFA_restore: r30 (x30)
  DW_CFA_restore: r29 (x29)
  DW_CFA_restore: r23 (x23)
  DW_CFA_restore: r24 (x24)
  DW_CFA_restore: r21 (x21)
  DW_CFA_restore: r22 (x22)
  DW_CFA_restore: r19 (x19)
  DW_CFA_restore: r20 (x20)
  DW_CFA_def_cfa_offset: 0
  DW_CFA_advance_loc: 4 to 0000000000039260
  DW_CFA_restore_state

0000176c 0000000000000024 00001770 FDE cie=00000000 pc=00000000000392f0..0000000000039898
  DW_CFA_advance_loc: 4 to 00000000000392f4
  DW_CFA_def_cfa_offset: 32
  DW_CFA_offset: r29 (x29) at cfa-32
  DW_CFA_offset: r30 (x30) at cfa-24
  DW_CFA_advance_loc: 12 to 0000000000039300
  DW_CFA_offset: r19 (x19) at cfa-16
  DW_CFA_offset: r20 (x20) at cfa-8
  DW_CFA_advance_loc: 120 to 0000000000039378
  DW_CFA_remember_state
  DW_CFA_restore: r30 (x30)
  DW_CFA_restore: r29 (x29)
  DW_CFA_restore: r19 (x19)
  DW_CFA_restore: r20 (x20)
  DW_CFA_def_cfa_offset: 0
  DW_CFA_advance_loc: 4 to 000000000003937c
  DW_CFA_restore_state
  DW_CFA_nop

00001794 0000000000000010 00001798 FDE cie=00000000 pc=00000000000398a0..00000000000398d8
  DW_CFA_nop
  DW_CFA_nop
  DW_CFA_nop

000017a8 0000000000000020 000017ac FDE cie=00000000 pc=00000000000398e0..000000000003a474
  DW_CFA_advance_loc: 48 to 0000000000039910
  DW_CFA_def_cfa_offset: 48
  DW_CFA_offset: r29 (x29) at cfa-48
  DW_CFA_offset: r30 (x30) at cfa-40
  DW_CFA_advance_loc: 24 to 0000000000039928
  DW_CFA_offset: r19 (x19) at cfa-32
  DW_CFA_advance_loc: 56 to 0000000000039960
  DW_CFA_restore: r30 (x30)
  DW_CFA_restore: r29 (x29)
  DW_CFA_restore: r19 (x19)
  DW_CFA_def_cfa_offset: 0
  DW_CFA_nop
  DW_CFA_nop
  DW_CFA_nop

000017cc 0000000000000040 000017d0 FDE cie=00000000 pc=000000000000a81c..000000000000d008
  DW_CFA_advance_loc: 4 to 000000000000a820
  DW_CFA_def_cfa_offset: 368
  DW_CFA_advance_loc: 4 to 000000000000a824
  DW_CFA_offset: r29 (x29) at cfa-304
  DW_CFA_offset: r30 (x30) at cfa-296
  DW_CFA_advance_loc: 40 to 000000000000a84c
  DW_CFA_offset: r19 (x19) at cfa-288
  DW_CFA_offset: r20 (x20) at cfa-280
  DW_CFA_offset: r21 (x21) at cfa-272
  DW_CFA_offset: r22 (x22) at cfa-264
  DW_CFA_offset: r23 (x23) at cfa-256
  DW_CFA_offset: r24 (x24) at cfa-248
  DW_CFA_offset: r25 (x25) at cfa-240
  DW_CFA_offset: r26 (x26) at cfa-232
  DW_CFA_advance_loc: 8 to 000000000000a854
  DW_CFA_offset: r27 (x27) at cfa-224
  DW_CFA_offset: r28 (x28) at cfa-216
  DW_CFA_advance_loc2: 10160 to 000000000000d004
  DW_CFA_restore: r29 (x29)
  DW_CFA_restore: r30 (x30)
  DW_CFA_restore: r27 (x27)
  DW_CFA_restore: r28 (x28)
  DW_CFA_restore: r25 (x25)
  DW_CFA_restore: r26 (x26)
  DW_CFA_restore: r23 (x23)
  DW_CFA_restore: r24 (x24)
  DW_CFA_restore: r21 (x21)
  DW_CFA_restore: r22 (x22)
  DW_CFA_restore: r19 (x19)
  DW_CFA_restore: r20 (x20)
  DW_CFA_def_cfa_offset: 0
  DW_CFA_nop
  DW_CFA_nop
  DW_CFA_nop

00001810 0000000000000034 00001814 FDE cie=00000000 pc=000000000003a474..000000000003a71c
  DW_CFA_advance_loc: 4 to 000000000003a478
  DW_CFA_def_cfa_offset: 96
  DW_CFA_offset: r29 (x29) at cfa-96
  DW_CFA_offset: r30 (x30) at cfa-88
  DW_CFA_advance_loc: 16 to 000000000003a488
  DW_CFA_offset: r19 (x19) at cfa-80
  DW_CFA_offset: r20 (x20) at cfa-72
  DW_CFA_advance_loc: 12 to 000000000003a494
  DW_CFA_offset: r21 (x21) at cfa-64
  DW_CFA_offset: r22 (x22) at cfa-56
  DW_CFA_advance_loc: 12 to 000000000003a4a0
  DW_CFA_offset: r23 (x23) at cfa-48
  DW_CFA_offset: r24 (x24) at cfa-40
  DW_CFA_advance_loc1: 388 to 000000000003a624
  DW_CFA_remember_state
  DW_CFA_restore: r30 (x30)
  DW_CFA_restore: r29 (x29)
  DW_CFA_restore: r23 (x23)
  DW_CFA_restore: r24 (x24)
  DW_CFA_restore: r21 (x21)
  DW_CFA_restore: r22 (x22)
  DW_CFA_restore: r19 (x19)
  DW_CFA_restore: r20 (x20)
  DW_CFA_def_cfa_offset: 0
  DW_CFA_advance_loc: 4 to 000000000003a628
  DW_CFA_restore_state
  DW_CFA_nop
  DW_CFA_nop

00001848 0000000000000028 0000184c FDE cie=00000000 pc=000000000003a720..000000000003a7d4
  DW_CFA_advance_loc: 4 to 000000000003a724
  DW_CFA_def_cfa_offset: 48
  DW_CFA_offset: r29 (x29) at cfa-48
  DW_CFA_offset: r30 (x30) at cfa-40
  DW_CFA_advance_loc: 8 to 000000000003a72c
  DW_CFA_offset: r19 (x19) at cfa-32
  DW_CFA_offset: r20 (x20) at cfa-24
  DW_CFA_advance_loc: 20 to 000000000003a740
  DW_CFA_offset: r21 (x21) at cfa-16
  DW_CFA_offset: r22 (x22) at cfa-8
  DW_CFA_advance_loc: 144 to 000000000003a7d0
  DW_CFA_restore: r30 (x30)
  DW_CFA_restore: r29 (x29)
  DW_CFA_restore: r21 (x21)
  DW_CFA_restore: r22 (x22)
  DW_CFA_restore: r19 (x19)
  DW_CFA_restore: r20 (x20)
  DW_CFA_def_cfa_offset: 0
  DW_CFA_nop

00001874 000000000000006c 00001878 FDE cie=00000000 pc=000000000003a7d4..000000000003aa20
  DW_CFA_advance_loc: 4 to 000000000003a7d8
  DW_CFA_def_cfa_offset: 112
  DW_CFA_offset: r29 (x29) at cfa-112
  DW_CFA_offset: r30 (x30) at cfa-104
  DW_CFA_advance_loc: 8 to 000000000003a7e0
  DW_CFA_offset: r19 (x19) at cfa-96
  DW_CFA_offset: r20 (x20) at cfa-88
  DW_CFA_advance_loc: 20 to 000000000003a7f4
  DW_CFA_offset: r23 (x23) at cfa-64
  DW_CFA_offset: r24 (x24) at cfa-56
  DW_CFA_advance_loc: 140 to 000000000003a880
  DW_CFA_offset: r22 (x22) at cfa-72
  DW_CFA_offset: r21 (x21) at cfa-80
  DW_CFA_advance_loc: 4 to 000000000003a884
  DW_CFA_offset: r26 (x26) at cfa-40
  DW_CFA_offset: r25 (x25) at cfa-48
  DW_CFA_advance_loc: 4 to 000000000003a888
  DW_CFA_offset: r28 (x28) at cfa-24
  DW_CFA_offset: r27 (x27) at cfa-32
  DW_CFA_advance_loc: 192 to 000000000003a948
  DW_CFA_restore: r26 (x26)
  DW_CFA_restore: r25 (x25)
  DW_CFA_advance_loc: 4 to 000000000003a94c
  DW_CFA_restore: r28 (x28)
  DW_CFA_restore: r27 (x27)
  DW_CFA_advance_loc: 28 to 000000000003a968
  DW_CFA_restore: r22 (x22)
  DW_CFA_restore: r21 (x21)
  DW_CFA_advance_loc: 28 to 000000000003a984
  DW_CFA_remember_state
  DW_CFA_restore: r30 (x30)
  DW_CFA_restore: r29 (x29)
  DW_CFA_restore: r23 (x23)
  DW_CFA_restore: r24 (x24)
  DW_CFA_restore: r19 (x19)
  DW_CFA_restore: r20 (x20)
  DW_CFA_def_cfa_offset: 0
  DW_CFA_advance_loc: 4 to 000000000003a988
  DW_CFA_restore_state
  DW_CFA_advance_loc: 24 to 000000000003a9a0
  DW_CFA_offset: r21 (x21) at cfa-80
  DW_CFA_offset: r22 (x22) at cfa-72
  DW_CFA_offset: r25 (x25) at cfa-48
  DW_CFA_offset: r26 (x26) at cfa-40
  DW_CFA_offset: r27 (x27) at cfa-32
  DW_CFA_offset: r28 (x28) at cfa-24
  DW_CFA_advance_loc: 28 to 000000000003a9bc
  DW_CFA_restore: r21 (x21)
  DW_CFA_restore: r22 (x22)
  DW_CFA_restore: r25 (x25)
  DW_CFA_restore: r26 (x26)
  DW_CFA_restore: r27 (x27)
  DW_CFA_restore: r28 (x28)
  DW_CFA_advance_loc: 4 to 000000000003a9c0
  DW_CFA_offset: r22 (x22) at cfa-72
  DW_CFA_offset: r21 (x21) at cfa-80
  DW_CFA_advance_loc: 68 to 000000000003aa04
  DW_CFA_remember_state
  DW_CFA_restore: r22 (x22)
  DW_CFA_restore: r21 (x21)
  DW_CFA_advance_loc: 4 to 000000000003aa08
  DW_CFA_restore_state
  DW_CFA_advance_loc: 8 to 000000000003aa10
  DW_CFA_offset: r26 (x26) at cfa-40
  DW_CFA_offset: r25 (x25) at cfa-48
  DW_CFA_advance_loc: 4 to 000000000003aa14
  DW_CFA_offset: r28 (x28) at cfa-24
  DW_CFA_offset: r27 (x27) at cfa-32
  DW_CFA_nop

000018e4 0000000000000040 000018e8 FDE cie=00000000 pc=000000000003aa20..000000000003c0d0
  DW_CFA_advance_loc: 4 to 000000000003aa24
  DW_CFA_def_cfa_offset: 144
  DW_CFA_offset: r29 (x29) at cfa-144
  DW_CFA_offset: r30 (x30) at cfa-136
  DW_CFA_advance_loc: 16 to 000000000003aa34
  DW_CFA_offset: r19 (x19) at cfa-128
  DW_CFA_offset: r20 (x20) at cfa-120
  DW_CFA_advance_loc: 8 to 000000000003aa3c
  DW_CFA_offset: r21 (x21) at cfa-112
  DW_CFA_offset: r22 (x22) at cfa-104
  DW_CFA_advance_loc: 12 to 000000000003aa48
  DW_CFA_offset: r23 (x23) at cfa-96
  DW_CFA_offset: r24 (x24) at cfa-88
  DW_CFA_advance_loc: 12 to 000000000003aa54
  DW_CFA_offset: r25 (x25) at cfa-80
  DW_CFA_offset: r26 (x26) at cfa-72
  DW_CFA_advance_loc: 12 to 000000000003aa60
  DW_CFA_offset: r27 (x27) at cfa-64
  DW_CFA_offset: r28 (x28) at cfa-56
  DW_CFA_advance_loc: 152 to 000000000003aaf8
  DW_CFA_remember_state
  DW_CFA_restore: r30 (x30)
  DW_CFA_restore: r29 (x29)
  DW_CFA_restore: r27 (x27)
  DW_CFA_restore: r28 (x28)
  DW_CFA_restore: r25 (x25)
  DW_CFA_restore: r26 (x26)
  DW_CFA_restore: r23 (x23)
  DW_CFA_restore: r24 (x24)
  DW_CFA_restore: r21 (x21)
  DW_CFA_restore: r22 (x22)
  DW_CFA_restore: r19 (x19)
  DW_CFA_restore: r20 (x20)
  DW_CFA_def_cfa_offset: 0
  DW_CFA_advance_loc: 4 to 000000000003aafc
  DW_CFA_restore_state

00001928 000000000000007c 0000192c FDE cie=00000000 pc=000000000003c0d0..000000000003c700
  DW_CFA_advance_loc: 4 to 000000000003c0d4
  DW_CFA_def_cfa_offset: 192
  DW_CFA_advance_loc: 12 to 000000000003c0e0
  DW_CFA_offset: r29 (x29) at cfa-176
  DW_CFA_offset: r30 (x30) at cfa-168
  DW_CFA_advance_loc: 8 to 000000000003c0e8
  DW_CFA_offset: r27 (x27) at cfa-96
  DW_CFA_offset: r28 (x28) at cfa-88
  DW_CFA_advance_loc: 48 to 000000000003c118
  DW_CFA_offset: r24 (x24) at cfa-120
  DW_CFA_offset: r23 (x23) at cfa-128
  DW_CFA_advance_loc: 16 to 000000000003c128
  DW_CFA_offset: r20 (x20) at cfa-152
  DW_CFA_offset: r19 (x19) at cfa-160
  DW_CFA_advance_loc: 16 to 000000000003c138
  DW_CFA_offset: r22 (x22) at cfa-136
  DW_CFA_offset: r21 (x21) at cfa-144
  DW_CFA_advance_loc: 8 to 000000000003c140
  DW_CFA_offset: r26 (x26) at cfa-104
  DW_CFA_offset: r25 (x25) at cfa-112
  DW_CFA_advance_loc: 212 to 000000000003c214
  DW_CFA_restore: r20 (x20)
  DW_CFA_restore: r19 (x19)
  DW_CFA_advance_loc: 4 to 000000000003c218
  DW_CFA_restore: r22 (x22)
  DW_CFA_restore: r21 (x21)
  DW_CFA_advance_loc: 4 to 000000000003c21c
  DW_CFA_restore: r24 (x24)
  DW_CFA_restore: r23 (x23)
  DW_CFA_advance_loc: 4 to 000000000003c220
  DW_CFA_restore: r26 (x26)
  DW_CFA_restore: r25 (x25)
  DW_CFA_advance_loc: 40 to 000000000003c248
  DW_CFA_restore: r29 (x29)
  DW_CFA_restore: r30 (x30)
  DW_CFA_restore: r27 (x27)
  DW_CFA_restore: r28 (x28)
  DW_CFA_def_cfa_offset: 0
  DW_CFA_advance_loc: 4 to 000000000003c24c
  DW_CFA_def_cfa_offset: 192
  DW_CFA_offset: r19 (x19) at cfa-160
  DW_CFA_offset: r20 (x20) at cfa-152
  DW_CFA_offset: r21 (x21) at cfa-144
  DW_CFA_offset: r22 (x22) at cfa-136
  DW_CFA_offset: r23 (x23) at cfa-128
  DW_CFA_offset: r24 (x24) at cfa-120
  DW_CFA_offset: r25 (x25) at cfa-112
  DW_CFA_offset: r26 (x26) at cfa-104
  DW_CFA_offset: r27 (x27) at cfa-96
  DW_CFA_offset: r28 (x28) at cfa-88
  DW_CFA_offset: r29 (x29) at cfa-176
  DW_CFA_offset: r30 (x30) at cfa-168
  DW_CFA_advance_loc1: 440 to 000000000003c404
  DW_CFA_restore: r19 (x19)
  DW_CFA_restore: r20 (x20)
  DW_CFA_restore: r21 (x21)
  DW_CFA_restore: r22 (x22)
  DW_CFA_restore: r23 (x23)
  DW_CFA_restore: r24 (x24)
  DW_CFA_restore: r25 (x25)
  DW_CFA_restore: r26 (x26)
  DW_CFA_advance_loc: 4 to 000000000003c408
  DW_CFA_offset: r20 (x20) at cfa-152
  DW_CFA_offset: r19 (x19) at cfa-160
  DW_CFA_advance_loc: 4 to 000000000003c40c
  DW_CFA_offset: r22 (x22) at cfa-136
  DW_CFA_offset: r21 (x21) at cfa-144
  DW_CFA_advance_loc: 4 to 000000000003c410
  DW_CFA_offset: r24 (x24) at cfa-120
  DW_CFA_offset: r23 (x23) at cfa-128
  DW_CFA_advance_loc: 4 to 000000000003c414
  DW_CFA_offset: r26 (x26) at cfa-104
  DW_CFA_offset: r25 (x25) at cfa-112

000019a8 0000000000000038 000019ac FDE cie=00000000 pc=000000000000d008..000000000000d43c
  DW_CFA_advance_loc: 4 to 000000000000d00c
  DW_CFA_def_cfa_offset: 80
  DW_CFA_offset: r29 (x29) at cfa-80
  DW_CFA_offset: r30 (x30) at cfa-72
  DW_CFA_advance_loc: 8 to 000000000000d014
  DW_CFA_offset: r19 (x19) at cfa-64
  DW_CFA_offset: r20 (x20) at cfa-56
  DW_CFA_advance_loc: 12 to 000000000000d020
  DW_CFA_offset: r21 (x21) at cfa-48
  DW_CFA_offset: r22 (x22) at cfa-40
  DW_CFA_advance_loc: 16 to 000000000000d030
  DW_CFA_offset: r23 (x23) at cfa-32
  DW_CFA_offset: r24 (x24) at cfa-24
  DW_CFA_advance_loc: 8 to 000000000000d038
  DW_CFA_offset: r25 (x25) at cfa-16
  DW_CFA_offset: r26 (x26) at cfa-8
  DW_CFA_advance_loc2: 1024 to 000000000000d438
  DW_CFA_restore: r30 (x30)
  DW_CFA_restore: r29 (x29)
  DW_CFA_restore: r25 (x25)
  DW_CFA_restore: r26 (x26)
  DW_CFA_restore: r23 (x23)
  DW_CFA_restore: r24 (x24)
  DW_CFA_restore: r21 (x21)
  DW_CFA_restore: r22 (x22)
  DW_CFA_restore: r19 (x19)
  DW_CFA_restore: r20 (x20)
  DW_CFA_def_cfa_offset: 0
  DW_CFA_nop

000019e4 0000000000000010 000019e8 FDE cie=00000000 pc=000000000003c700..000000000003c718
  DW_CFA_nop
  DW_CFA_nop
  DW_CFA_nop

000019f8 0000000000000038 000019fc FDE cie=00000000 pc=000000000003c720..000000000003c8bc
  DW_CFA_advance_loc: 4 to 000000000003c724
  DW_CFA_def_cfa_offset: 80
  DW_CFA_offset: r29 (x29) at cfa-80
  DW_CFA_offset: r30 (x30) at cfa-72
  DW_CFA_advance_loc: 12 to 000000000003c730
  DW_CFA_offset: r19 (x19) at cfa-64
  DW_CFA_offset: r20 (x20) at cfa-56
  DW_CFA_advance_loc: 12 to 000000000003c73c
  DW_CFA_offset: r21 (x21) at cfa-48
  DW_CFA_offset: r22 (x22) at cfa-40
  DW_CFA_offset: r23 (x23) at cfa-32
  DW_CFA_offset: r24 (x24) at cfa-24
  DW_CFA_advance_loc: 12 to 000000000003c748
  DW_CFA_offset: r25 (x25) at cfa-16
  DW_CFA_offset: r26 (x26) at cfa-8
  DW_CFA_advance_loc1: 316 to 000000000003c884
  DW_CFA_remember_state
  DW_CFA_restore: r30 (x30)
  DW_CFA_restore: r29 (x29)
  DW_CFA_restore: r25 (x25)
  DW_CFA_restore: r26 (x26)
  DW_CFA_restore: r23 (x23)
  DW_CFA_restore: r24 (x24)
  DW_CFA_restore: r21 (x21)
  DW_CFA_restore: r22 (x22)
  DW_CFA_restore: r19 (x19)
  DW_CFA_restore: r20 (x20)
  DW_CFA_def_cfa_offset: 0
  DW_CFA_advance_loc: 4 to 000000000003c888
  DW_CFA_restore_state

00001a34 0000000000000010 00001a38 FDE cie=00000000 pc=000000000000d43c..000000000000d464
  DW_CFA_nop
  DW_CFA_nop
  DW_CFA_nop

00001a48 0000000000000040 00001a4c FDE cie=00000000 pc=000000000000d464..000000000000e07c
  DW_CFA_advance_loc: 4 to 000000000000d468
  DW_CFA_def_cfa_offset: 192
  DW_CFA_offset: r29 (x29) at cfa-192
  DW_CFA_offset: r30 (x30) at cfa-184
  DW_CFA_advance_loc: 8 to 000000000000d470
  DW_CFA_offset: r19 (x19) at cfa-176
  DW_CFA_offset: r20 (x20) at cfa-168
  DW_CFA_advance_loc: 8 to 000000000000d478
  DW_CFA_offset: r27 (x27) at cfa-112
  DW_CFA_offset: r28 (x28) at cfa-104
  DW_CFA_advance_loc: 24 to 000000000000d490
  DW_CFA_offset: r21 (x21) at cfa-160
  DW_CFA_offset: r22 (x22) at cfa-152
  DW_CFA_offset: r23 (x23) at cfa-144
  DW_CFA_offset: r24 (x24) at cfa-136
  DW_CFA_offset: r25 (x25) at cfa-128
  DW_CFA_offset: r26 (x26) at cfa-120
  DW_CFA_advance_loc2: 3048 to 000000000000e078
  DW_CFA_restore: r30 (x30)
  DW_CFA_restore: r29 (x29)
  DW_CFA_restore: r27 (x27)
  DW_CFA_restore: r28 (x28)
  DW_CFA_restore: r25 (x25)
  DW_CFA_restore: r26 (x26)
  DW_CFA_restore: r23 (x23)
  DW_CFA_restore: r24 (x24)
  DW_CFA_restore: r21 (x21)
  DW_CFA_restore: r22 (x22)
  DW_CFA_restore: r19 (x19)
  DW_CFA_restore: r20 (x20)
  DW_CFA_def_cfa_offset: 0
  DW_CFA_nop
  DW_CFA_nop
  DW_CFA_nop

00001a8c 0000000000000010 00001a90 FDE cie=00000000 pc=000000000000e07c..000000000000e084
  DW_CFA_nop
  DW_CFA_nop
  DW_CFA_nop

00001aa0 0000000000000038 00001aa4 FDE cie=00000000 pc=000000000003c8c0..000000000003cbcc
  DW_CFA_advance_loc: 8 to 000000000003c8c8
  DW_CFA_def_cfa_offset: 32
  DW_CFA_offset: r29 (x29) at cfa-32
  DW_CFA_offset: r30 (x30) at cfa-24
  DW_CFA_advance_loc: 8 to 000000000003c8d0
  DW_CFA_offset: r19 (x19) at cfa-16
  DW_CFA_offset: r20 (x20) at cfa-8
  DW_CFA_advance_loc: 148 to 000000000003c964
  DW_CFA_remember_state
  DW_CFA_restore: r30 (x30)
  DW_CFA_restore: r29 (x29)
  DW_CFA_restore: r19 (x19)
  DW_CFA_restore: r20 (x20)
  DW_CFA_def_cfa_offset: 0
  DW_CFA_advance_loc: 4 to 000000000003c968
  DW_CFA_restore_state
  DW_CFA_advance_loc: 72 to 000000000003c9b0
  DW_CFA_def_cfa_offset: 0
  DW_CFA_restore: r19 (x19)
  DW_CFA_restore: r20 (x20)
  DW_CFA_restore: r29 (x29)
  DW_CFA_restore: r30 (x30)
  DW_CFA_advance_loc: 12 to 000000000003c9bc
  DW_CFA_def_cfa_offset: 32
  DW_CFA_offset: r19 (x19) at cfa-16
  DW_CFA_offset: r20 (x20) at cfa-8
  DW_CFA_offset: r29 (x29) at cfa-32
  DW_CFA_offset: r30 (x30) at cfa-24
  DW_CFA_nop
  DW_CFA_nop
  DW_CFA_nop

00001adc 0000000000000040 00001ae0 FDE cie=00000000 pc=000000000003cbd0..000000000003cccc
  DW_CFA_advance_loc: 4 to 000000000003cbd4
  DW_CFA_def_cfa_offset: 48
  DW_CFA_offset: r29 (x29) at cfa-48
  DW_CFA_offset: r30 (x30) at cfa-40
  DW_CFA_advance_loc: 12 to 000000000003cbe0
  DW_CFA_offset: r19 (x19) at cfa-32
  DW_CFA_offset: r20 (x20) at cfa-24
  DW_CFA_advance_loc: 20 to 000000000003cbf4
  DW_CFA_offset: r22 (x22) at cfa-8
  DW_CFA_offset: r21 (x21) at cfa-16
  DW_CFA_advance_loc: 88 to 000000000003cc4c
  DW_CFA_restore: r22 (x22)
  DW_CFA_restore: r21 (x21)
  DW_CFA_advance_loc: 12 to 000000000003cc58
  DW_CFA_remember_state
  DW_CFA_restore: r30 (x30)
  DW_CFA_restore: r29 (x29)
  DW_CFA_restore: r19 (x19)
  DW_CFA_restore: r20 (x20)
  DW_CFA_def_cfa_offset: 0
  DW_CFA_advance_loc: 4 to 000000000003cc5c
  DW_CFA_restore_state
  DW_CFA_advance_loc: 12 to 000000000003cc68
  DW_CFA_offset: r21 (x21) at cfa-16
  DW_CFA_offset: r22 (x22) at cfa-8
  DW_CFA_advance_loc: 24 to 000000000003cc80
  DW_CFA_remember_state
  DW_CFA_restore: r22 (x22)
  DW_CFA_restore: r21 (x21)
  DW_CFA_advance_loc: 4 to 000000000003cc84
  DW_CFA_restore: r30 (x30)
  DW_CFA_restore: r29 (x29)
  DW_CFA_restore: r19 (x19)
  DW_CFA_restore: r20 (x20)
  DW_CFA_def_cfa_offset: 0
  DW_CFA_advance_loc: 4 to 000000000003cc88
  DW_CFA_restore_state
  DW_CFA_nop
  DW_CFA_nop
  DW_CFA_nop

00001b20 0000000000000040 00001b24 FDE cie=00000000 pc=000000000000e084..000000000000e664
  DW_CFA_advance_loc: 4 to 000000000000e088
  DW_CFA_def_cfa_offset: 272
  DW_CFA_advance_loc: 16 to 000000000000e098
  DW_CFA_offset: r29 (x29) at cfa-208
  DW_CFA_offset: r30 (x30) at cfa-200
  DW_CFA_advance_loc: 8 to 000000000000e0a0
  DW_CFA_offset: r19 (x19) at cfa-192
  DW_CFA_offset: r20 (x20) at cfa-184
  DW_CFA_advance_loc: 16 to 000000000000e0b0
  DW_CFA_offset: r21 (x21) at cfa-176
  DW_CFA_offset: r22 (x22) at cfa-168
  DW_CFA_advance_loc: 28 to 000000000000e0cc
  DW_CFA_offset: r23 (x23) at cfa-160
  DW_CFA_offset: r24 (x24) at cfa-152
  DW_CFA_offset: r25 (x25) at cfa-144
  DW_CFA_offset: r26 (x26) at cfa-136
  DW_CFA_offset: r27 (x27) at cfa-128
  DW_CFA_offset: r28 (x28) at cfa-120
  DW_CFA_advance_loc2: 1428 to 000000000000e660
  DW_CFA_restore: r29 (x29)
  DW_CFA_restore: r30 (x30)
  DW_CFA_restore: r27 (x27)
  DW_CFA_restore: r28 (x28)
  DW_CFA_restore: r25 (x25)
  DW_CFA_restore: r26 (x26)
  DW_CFA_restore: r23 (x23)
  DW_CFA_restore: r24 (x24)
  DW_CFA_restore: r21 (x21)
  DW_CFA_restore: r22 (x22)
  DW_CFA_restore: r19 (x19)
  DW_CFA_restore: r20 (x20)
  DW_CFA_def_cfa_offset: 0
  DW_CFA_nop
  DW_CFA_nop

00001b64 000000000000004c 00001b68 FDE cie=00000000 pc=000000000003ccd0..000000000003e00c
  DW_CFA_advance_loc: 4 to 000000000003ccd4
  DW_CFA_def_cfa_offset: 2352
  DW_CFA_advance_loc: 16 to 000000000003cce4
  DW_CFA_offset: r29 (x29) at cfa-2288
  DW_CFA_offset: r30 (x30) at cfa-2280
  DW_CFA_advance_loc: 8 to 000000000003ccec
  DW_CFA_offset: r19 (x19) at cfa-2272
  DW_CFA_offset: r20 (x20) at cfa-2264
  DW_CFA_advance_loc: 24 to 000000000003cd04
  DW_CFA_offset: r21 (x21) at cfa-2256
  DW_CFA_offset: r22 (x22) at cfa-2248
  DW_CFA_offset: r23 (x23) at cfa-2240
  DW_CFA_offset: r24 (x24) at cfa-2232
  DW_CFA_offset: r25 (x25) at cfa-2224
  DW_CFA_offset: r26 (x26) at cfa-2216
  DW_CFA_offset: r27 (x27) at cfa-2208
  DW_CFA_offset: r28 (x28) at cfa-2200
  DW_CFA_advance_loc2: 1964 to 000000000003d4b0
  DW_CFA_remember_state
  DW_CFA_restore: r29 (x29)
  DW_CFA_restore: r30 (x30)
  DW_CFA_restore: r27 (x27)
  DW_CFA_restore: r28 (x28)
  DW_CFA_restore: r25 (x25)
  DW_CFA_restore: r26 (x26)
  DW_CFA_restore: r23 (x23)
  DW_CFA_restore: r24 (x24)
  DW_CFA_restore: r21 (x21)
  DW_CFA_restore: r22 (x22)
  DW_CFA_restore: r19 (x19)
  DW_CFA_restore: r20 (x20)
  DW_CFA_def_cfa_offset: 0
  DW_CFA_advance_loc: 4 to 000000000003d4b4
  DW_CFA_restore_state

00001bb4 0000000000000040 00001bb8 FDE cie=00000000 pc=000000000000e664..0000000000010da4
  DW_CFA_advance_loc: 4 to 000000000000e668
  DW_CFA_def_cfa_offset: 336
  DW_CFA_offset: r29 (x29) at cfa-336
  DW_CFA_offset: r30 (x30) at cfa-328
  DW_CFA_advance_loc: 8 to 000000000000e670
  DW_CFA_offset: r27 (x27) at cfa-256
  DW_CFA_offset: r28 (x28) at cfa-248
  DW_CFA_advance_loc: 16 to 000000000000e680
  DW_CFA_offset: r19 (x19) at cfa-320
  DW_CFA_offset: r20 (x20) at cfa-312
  DW_CFA_advance_loc: 20 to 000000000000e694
  DW_CFA_offset: r21 (x21) at cfa-304
  DW_CFA_offset: r22 (x22) at cfa-296
  DW_CFA_offset: r23 (x23) at cfa-288
  DW_CFA_offset: r24 (x24) at cfa-280
  DW_CFA_offset: r25 (x25) at cfa-272
  DW_CFA_offset: r26 (x26) at cfa-264
  DW_CFA_advance_loc2: 9996 to 0000000000010da0
  DW_CFA_restore: r30 (x30)
  DW_CFA_restore: r29 (x29)
  DW_CFA_restore: r27 (x27)
  DW_CFA_restore: r28 (x28)
  DW_CFA_restore: r25 (x25)
  DW_CFA_restore: r26 (x26)
  DW_CFA_restore: r23 (x23)
  DW_CFA_restore: r24 (x24)
  DW_CFA_restore: r21 (x21)
  DW_CFA_restore: r22 (x22)
  DW_CFA_restore: r19 (x19)
  DW_CFA_restore: r20 (x20)
  DW_CFA_def_cfa_offset: 0
  DW_CFA_nop
  DW_CFA_nop
  DW_CFA_nop

00001bf8 0000000000000040 00001bfc FDE cie=00000000 pc=0000000000010da4..00000000000114a0
  DW_CFA_advance_loc: 4 to 0000000000010da8
  DW_CFA_def_cfa_offset: 128
  DW_CFA_offset: r29 (x29) at cfa-128
  DW_CFA_offset: r30 (x30) at cfa-120
  DW_CFA_advance_loc: 16 to 0000000000010db8
  DW_CFA_offset: r19 (x19) at cfa-112
  DW_CFA_offset: r20 (x20) at cfa-104
  DW_CFA_advance_loc: 8 to 0000000000010dc0
  DW_CFA_offset: r21 (x21) at cfa-96
  DW_CFA_offset: r22 (x22) at cfa-88
  DW_CFA_advance_loc: 12 to 0000000000010dcc
  DW_CFA_offset: r23 (x23) at cfa-80
  DW_CFA_offset: r24 (x24) at cfa-72
  DW_CFA_advance_loc: 8 to 0000000000010dd4
  DW_CFA_offset: r25 (x25) at cfa-64
  DW_CFA_offset: r26 (x26) at cfa-56
  DW_CFA_advance_loc: 8 to 0000000000010ddc
  DW_CFA_offset: r27 (x27) at cfa-48
  DW_CFA_offset: r28 (x28) at cfa-40
  DW_CFA_advance_loc2: 1728 to 000000000001149c
  DW_CFA_restore: r30 (x30)
  DW_CFA_restore: r29 (x29)
  DW_CFA_restore: r27 (x27)
  DW_CFA_restore: r28 (x28)
  DW_CFA_restore: r25 (x25)
  DW_CFA_restore: r26 (x26)
  DW_CFA_restore: r23 (x23)
  DW_CFA_restore: r24 (x24)
  DW_CFA_restore: r21 (x21)
  DW_CFA_restore: r22 (x22)
  DW_CFA_restore: r19 (x19)
  DW_CFA_restore: r20 (x20)
  DW_CFA_def_cfa_offset: 0
  DW_CFA_nop

00001c3c 0000000000000038 00001c40 FDE cie=00000000 pc=00000000000114a0..00000000000115cc
  DW_CFA_advance_loc: 4 to 00000000000114a4
  DW_CFA_def_cfa_offset: 368
  DW_CFA_offset: r29 (x29) at cfa-368
  DW_CFA_offset: r30 (x30) at cfa-360
  DW_CFA_advance_loc: 16 to 00000000000114b4
  DW_CFA_offset: r19 (x19) at cfa-352
  DW_CFA_offset: r20 (x20) at cfa-344
  DW_CFA_advance_loc: 12 to 00000000000114c0
  DW_CFA_offset: r21 (x21) at cfa-336
  DW_CFA_offset: r22 (x22) at cfa-328
  DW_CFA_advance_loc: 12 to 00000000000114cc
  DW_CFA_offset: r23 (x23) at cfa-320
  DW_CFA_offset: r24 (x24) at cfa-312
  DW_CFA_advance_loc: 12 to 00000000000114d8
  DW_CFA_offset: r25 (x25) at cfa-304
  DW_CFA_offset: r26 (x26) at cfa-296
  DW_CFA_advance_loc: 240 to 00000000000115c8
  DW_CFA_restore: r30 (x30)
  DW_CFA_restore: r29 (x29)
  DW_CFA_restore: r25 (x25)
  DW_CFA_restore: r26 (x26)
  DW_CFA_restore: r23 (x23)
  DW_CFA_restore: r24 (x24)
  DW_CFA_restore: r21 (x21)
  DW_CFA_restore: r22 (x22)
  DW_CFA_restore: r19 (x19)
  DW_CFA_restore: r20 (x20)
  DW_CFA_def_cfa_offset: 0
  DW_CFA_nop
  DW_CFA_nop

00001c78 000000000000003c 00001c7c FDE cie=00000000 pc=000000000003e010..000000000003e1d4
  DW_CFA_advance_loc: 4 to 000000000003e014
  DW_CFA_def_cfa_offset: 64
  DW_CFA_offset: r29 (x29) at cfa-64
  DW_CFA_offset: r30 (x30) at cfa-56
  DW_CFA_advance_loc: 16 to 000000000003e024
  DW_CFA_offset: r19 (x19) at cfa-48
  DW_CFA_offset: r20 (x20) at cfa-40
  DW_CFA_advance_loc: 12 to 000000000003e030
  DW_CFA_offset: r21 (x21) at cfa-32
  DW_CFA_offset: r22 (x22) at cfa-24
  DW_CFA_advance_loc: 168 to 000000000003e0d8
  DW_CFA_remember_state
  DW_CFA_restore: r30 (x30)
  DW_CFA_restore: r29 (x29)
  DW_CFA_restore: r21 (x21)
  DW_CFA_restore: r22 (x22)
  DW_CFA_restore: r19 (x19)
  DW_CFA_restore: r20 (x20)
  DW_CFA_def_cfa_offset: 0
  DW_CFA_advance_loc: 4 to 000000000003e0dc
  DW_CFA_restore_state
  DW_CFA_advance_loc: 68 to 000000000003e120
  DW_CFA_remember_state
  DW_CFA_restore: r30 (x30)
  DW_CFA_restore: r29 (x29)
  DW_CFA_restore: r21 (x21)
  DW_CFA_restore: r22 (x22)
  DW_CFA_restore: r19 (x19)
  DW_CFA_restore: r20 (x20)
  DW_CFA_def_cfa_offset: 0
  DW_CFA_advance_loc: 4 to 000000000003e124
  DW_CFA_restore_state
  DW_CFA_nop
  DW_CFA_nop
  DW_CFA_nop
  DW_CFA_nop
  DW_CFA_nop
  DW_CFA_nop

00001cb8 0000000000000030 00001cbc FDE cie=00000000 pc=000000000003e1e0..000000000003e274
  DW_CFA_advance_loc: 4 to 000000000003e1e4
  DW_CFA_def_cfa_offset: 32
  DW_CFA_offset: r29 (x29) at cfa-32
  DW_CFA_offset: r30 (x30) at cfa-24
  DW_CFA_advance_loc: 8 to 000000000003e1ec
  DW_CFA_offset: r19 (x19) at cfa-16
  DW_CFA_offset: r20 (x20) at cfa-8
  DW_CFA_advance_loc: 52 to 000000000003e220
  DW_CFA_remember_state
  DW_CFA_restore: r30 (x30)
  DW_CFA_restore: r29 (x29)
  DW_CFA_restore: r19 (x19)
  DW_CFA_restore: r20 (x20)
  DW_CFA_def_cfa_offset: 0
  DW_CFA_advance_loc: 4 to 000000000003e224
  DW_CFA_restore_state
  DW_CFA_advance_loc: 32 to 000000000003e244
  DW_CFA_remember_state
  DW_CFA_restore: r30 (x30)
  DW_CFA_restore: r29 (x29)
  DW_CFA_restore: r19 (x19)
  DW_CFA_restore: r20 (x20)
  DW_CFA_def_cfa_offset: 0
  DW_CFA_advance_loc: 12 to 000000000003e250
  DW_CFA_restore_state
  DW_CFA_nop
  DW_CFA_nop
  DW_CFA_nop

00001cec 0000000000000040 00001cf0 FDE cie=00000000 pc=00000000000115cc..0000000000011b14
  DW_CFA_advance_loc: 4 to 00000000000115d0
  DW_CFA_def_cfa_offset: 128
  DW_CFA_offset: r29 (x29) at cfa-128
  DW_CFA_offset: r30 (x30) at cfa-120
  DW_CFA_advance_loc: 16 to 00000000000115e0
  DW_CFA_offset: r21 (x21) at cfa-96
  DW_CFA_offset: r22 (x22) at cfa-88
  DW_CFA_advance_loc: 8 to 00000000000115e8
  DW_CFA_offset: r25 (x25) at cfa-64
  DW_CFA_offset: r26 (x26) at cfa-56
  DW_CFA_advance_loc: 8 to 00000000000115f0
  DW_CFA_offset: r19 (x19) at cfa-112
  DW_CFA_offset: r20 (x20) at cfa-104
  DW_CFA_advance_loc: 12 to 00000000000115fc
  DW_CFA_offset: r23 (x23) at cfa-80
  DW_CFA_offset: r24 (x24) at cfa-72
  DW_CFA_advance_loc: 8 to 0000000000011604
  DW_CFA_offset: r27 (x27) at cfa-48
  DW_CFA_offset: r28 (x28) at cfa-40
  DW_CFA_advance_loc2: 1292 to 0000000000011b10
  DW_CFA_restore: r30 (x30)
  DW_CFA_restore: r29 (x29)
  DW_CFA_restore: r27 (x27)
  DW_CFA_restore: r28 (x28)
  DW_CFA_restore: r25 (x25)
  DW_CFA_restore: r26 (x26)
  DW_CFA_restore: r23 (x23)
  DW_CFA_restore: r24 (x24)
  DW_CFA_restore: r21 (x21)
  DW_CFA_restore: r22 (x22)
  DW_CFA_restore: r19 (x19)
  DW_CFA_restore: r20 (x20)
  DW_CFA_def_cfa_offset: 0
  DW_CFA_nop

00001d30 0000000000000010 00001d34 FDE cie=00000000 pc=0000000000011b14..0000000000011b2c
  DW_CFA_nop
  DW_CFA_nop
  DW_CFA_nop

00001d44 0000000000000010 00001d48 FDE cie=00000000 pc=0000000000011b2c..0000000000011b7c
  DW_CFA_nop
  DW_CFA_nop
  DW_CFA_nop

00001d58 000000000000003c 00001d5c FDE cie=00000000 pc=0000000000011b7c..0000000000011d10
  DW_CFA_advance_loc: 4 to 0000000000011b80
  DW_CFA_def_cfa_offset: 128
  DW_CFA_offset: r29 (x29) at cfa-128
  DW_CFA_offset: r30 (x30) at cfa-120
  DW_CFA_advance_loc: 12 to 0000000000011b8c
  DW_CFA_offset: r25 (x25) at cfa-64
  DW_CFA_offset: r26 (x26) at cfa-56
  DW_CFA_advance_loc: 20 to 0000000000011ba0
  DW_CFA_offset: r19 (x19) at cfa-112
  DW_CFA_offset: r20 (x20) at cfa-104
  DW_CFA_offset: r21 (x21) at cfa-96
  DW_CFA_offset: r22 (x22) at cfa-88
  DW_CFA_advance_loc: 44 to 0000000000011bcc
  DW_CFA_offset: r23 (x23) at cfa-80
  DW_CFA_offset: r24 (x24) at cfa-72
  DW_CFA_offset: r27 (x27) at cfa-48
  DW_CFA_offset: r28 (x28) at cfa-40
  DW_CFA_advance_loc1: 320 to 0000000000011d0c
  DW_CFA_restore: r30 (x30)
  DW_CFA_restore: r29 (x29)
  DW_CFA_restore: r27 (x27)
  DW_CFA_restore: r28 (x28)
  DW_CFA_restore: r25 (x25)
  DW_CFA_restore: r26 (x26)
  DW_CFA_restore: r23 (x23)
  DW_CFA_restore: r24 (x24)
  DW_CFA_restore: r21 (x21)
  DW_CFA_restore: r22 (x22)
  DW_CFA_restore: r19 (x19)
  DW_CFA_restore: r20 (x20)
  DW_CFA_def_cfa_offset: 0

00001d98 0000000000000010 00001d9c FDE cie=00000000 pc=0000000000011d10..0000000000011d4c
  DW_CFA_nop
  DW_CFA_nop
  DW_CFA_nop

00001dac 0000000000000010 00001db0 FDE cie=00000000 pc=0000000000011d4c..0000000000011d50
  DW_CFA_nop
  DW_CFA_nop
  DW_CFA_nop

00001dc0 0000000000000020 00001dc4 FDE cie=00000000 pc=000000000003e274..000000000003e31c
  DW_CFA_advance_loc: 4 to 000000000003e278
  DW_CFA_def_cfa_offset: 48
  DW_CFA_offset: r29 (x29) at cfa-48
  DW_CFA_offset: r30 (x30) at cfa-40
  DW_CFA_advance_loc: 24 to 000000000003e290
  DW_CFA_offset: r19 (x19) at cfa-32
  DW_CFA_advance_loc: 100 to 000000000003e2f4
  DW_CFA_remember_state
  DW_CFA_restore: r30 (x30)
  DW_CFA_restore: r29 (x29)
  DW_CFA_restore: r19 (x19)
  DW_CFA_def_cfa_offset: 0
  DW_CFA_advance_loc: 4 to 000000000003e2f8
  DW_CFA_restore_state

00001de4 0000000000000010 00001de8 FDE cie=00000000 pc=0000000000011d50..0000000000011d58
  DW_CFA_nop
  DW_CFA_nop
  DW_CFA_nop

00001df8 0000000000000010 00001dfc FDE cie=00000000 pc=0000000000011d58..0000000000011d60
  DW_CFA_nop
  DW_CFA_nop
  DW_CFA_nop

00001e0c 0000000000000010 00001e10 FDE cie=00000000 pc=0000000000011d60..0000000000011d94
  DW_CFA_nop
  DW_CFA_nop
  DW_CFA_nop

00001e20 0000000000000010 00001e24 FDE cie=00000000 pc=0000000000011d94..0000000000011de4
  DW_CFA_nop
  DW_CFA_nop
  DW_CFA_nop

00001e34 0000000000000010 00001e38 FDE cie=00000000 pc=0000000000011de4..0000000000011dfc
  DW_CFA_nop
  DW_CFA_nop
  DW_CFA_nop

00001e48 0000000000000010 00001e4c FDE cie=00000000 pc=0000000000011dfc..0000000000011e10
  DW_CFA_nop
  DW_CFA_nop
  DW_CFA_nop

00001e5c 0000000000000010 00001e60 FDE cie=00000000 pc=0000000000011e10..0000000000011e18
  DW_CFA_nop
  DW_CFA_nop
  DW_CFA_nop

00001e70 0000000000000020 00001e74 FDE cie=00000000 pc=0000000000011e18..0000000000011e98
  DW_CFA_advance_loc: 4 to 0000000000011e1c
  DW_CFA_def_cfa_offset: 32
  DW_CFA_offset: r29 (x29) at cfa-32
  DW_CFA_offset: r30 (x30) at cfa-24
  DW_CFA_advance_loc: 8 to 0000000000011e24
  DW_CFA_offset: r19 (x19) at cfa-16
  DW_CFA_advance_loc: 112 to 0000000000011e94
  DW_CFA_restore: r30 (x30)
  DW_CFA_restore: r29 (x29)
  DW_CFA_restore: r19 (x19)
  DW_CFA_def_cfa_offset: 0
  DW_CFA_nop
  DW_CFA_nop
  DW_CFA_nop

00001e94 0000000000000010 00001e98 FDE cie=00000000 pc=0000000000011e98..0000000000011ea0
  DW_CFA_nop
  DW_CFA_nop
  DW_CFA_nop

00001ea8 0000000000000010 00001eac FDE cie=00000000 pc=0000000000011ea0..0000000000011ea8
  DW_CFA_nop
  DW_CFA_nop
  DW_CFA_nop

00001ebc 000000000000002c 00001ec0 FDE cie=00000000 pc=0000000000011ea8..0000000000011f50
  DW_CFA_advance_loc: 4 to 0000000000011eac
  DW_CFA_def_cfa_offset: 64
  DW_CFA_offset: r29 (x29) at cfa-64
  DW_CFA_offset: r30 (x30) at cfa-56
  DW_CFA_advance_loc: 8 to 0000000000011eb4
  DW_CFA_offset: r19 (x19) at cfa-48
  DW_CFA_offset: r20 (x20) at cfa-40
  DW_CFA_advance_loc: 8 to 0000000000011ebc
  DW_CFA_offset: r21 (x21) at cfa-32
  DW_CFA_offset: r22 (x22) at cfa-24
  DW_CFA_advance_loc: 12 to 0000000000011ec8
  DW_CFA_offset: r23 (x23) at cfa-16
  DW_CFA_advance_loc: 132 to 0000000000011f4c
  DW_CFA_restore: r30 (x30)
  DW_CFA_restore: r29 (x29)
  DW_CFA_restore: r23 (x23)
  DW_CFA_restore: r21 (x21)
  DW_CFA_restore: r22 (x22)
  DW_CFA_restore: r19 (x19)
  DW_CFA_restore: r20 (x20)
  DW_CFA_def_cfa_offset: 0
  DW_CFA_nop

00001eec 0000000000000020 00001ef0 FDE cie=00000000 pc=0000000000011f50..0000000000011f94
  DW_CFA_advance_loc: 4 to 0000000000011f54
  DW_CFA_def_cfa_offset: 32
  DW_CFA_offset: r29 (x29) at cfa-32
  DW_CFA_offset: r30 (x30) at cfa-24
  DW_CFA_advance_loc: 16 to 0000000000011f64
  DW_CFA_offset: r19 (x19) at cfa-16
  DW_CFA_advance_loc: 44 to 0000000000011f90
  DW_CFA_restore: r30 (x30)
  DW_CFA_restore: r29 (x29)
  DW_CFA_restore: r19 (x19)
  DW_CFA_def_cfa_offset: 0
  DW_CFA_nop
  DW_CFA_nop
  DW_CFA_nop

00001f10 0000000000000020 00001f14 FDE cie=00000000 pc=0000000000011f94..0000000000011fd4
  DW_CFA_advance_loc: 4 to 0000000000011f98
  DW_CFA_def_cfa_offset: 32
  DW_CFA_offset: r29 (x29) at cfa-32
  DW_CFA_offset: r30 (x30) at cfa-24
  DW_CFA_advance_loc: 8 to 0000000000011fa0
  DW_CFA_offset: r19 (x19) at cfa-16
  DW_CFA_offset: r20 (x20) at cfa-8
  DW_CFA_advance_loc: 48 to 0000000000011fd0
  DW_CFA_restore: r30 (x30)
  DW_CFA_restore: r29 (x29)
  DW_CFA_restore: r19 (x19)
  DW_CFA_restore: r20 (x20)
  DW_CFA_def_cfa_offset: 0

00001f34 0000000000000028 00001f38 FDE cie=00000000 pc=0000000000011fd4..0000000000012024
  DW_CFA_advance_loc: 4 to 0000000000011fd8
  DW_CFA_def_cfa_offset: 48
  DW_CFA_offset: r29 (x29) at cfa-48
  DW_CFA_offset: r30 (x30) at cfa-40
  DW_CFA_advance_loc: 8 to 0000000000011fe0
  DW_CFA_offset_extended: r72 (v8) at cfa-16
  DW_CFA_advance_loc: 8 to 0000000000011fe8
  DW_CFA_offset: r19 (x19) at cfa-32
  DW_CFA_offset: r20 (x20) at cfa-24
  DW_CFA_advance_loc: 56 to 0000000000012020
  DW_CFA_restore: r30 (x30)
  DW_CFA_restore: r29 (x29)
  DW_CFA_restore: r19 (x19)
  DW_CFA_restore: r20 (x20)
  DW_CFA_restore_extended: r72 (v8)
  DW_CFA_def_cfa_offset: 0
  DW_CFA_nop
  DW_CFA_nop

00001f60 0000000000000028 00001f64 FDE cie=00000000 pc=0000000000012024..0000000000012078
  DW_CFA_advance_loc: 4 to 0000000000012028
  DW_CFA_def_cfa_offset: 48
  DW_CFA_offset: r29 (x29) at cfa-48
  DW_CFA_offset: r30 (x30) at cfa-40
  DW_CFA_advance_loc: 8 to 0000000000012030
  DW_CFA_offset_extended: r72 (v8) at cfa-16
  DW_CFA_advance_loc: 8 to 0000000000012038
  DW_CFA_offset: r19 (x19) at cfa-32
  DW_CFA_offset: r20 (x20) at cfa-24
  DW_CFA_advance_loc: 60 to 0000000000012074
  DW_CFA_restore: r30 (x30)
  DW_CFA_restore: r29 (x29)
  DW_CFA_restore: r19 (x19)
  DW_CFA_restore: r20 (x20)
  DW_CFA_restore_extended: r72 (v8)
  DW_CFA_def_cfa_offset: 0
  DW_CFA_nop
  DW_CFA_nop

00001f8c 0000000000000020 00001f90 FDE cie=00000000 pc=0000000000012078..00000000000120b8
  DW_CFA_advance_loc: 4 to 000000000001207c
  DW_CFA_def_cfa_offset: 32
  DW_CFA_offset: r29 (x29) at cfa-32
  DW_CFA_offset: r30 (x30) at cfa-24
  DW_CFA_advance_loc: 12 to 0000000000012088
  DW_CFA_offset: r19 (x19) at cfa-16
  DW_CFA_advance_loc: 44 to 00000000000120b4
  DW_CFA_restore: r30 (x30)
  DW_CFA_restore: r29 (x29)
  DW_CFA_restore: r19 (x19)
  DW_CFA_def_cfa_offset: 0
  DW_CFA_nop
  DW_CFA_nop
  DW_CFA_nop

00001fb0 000000000000003c 00001fb4 FDE cie=00000000 pc=00000000000120b8..000000000001237c
  DW_CFA_advance_loc: 4 to 00000000000120bc
  DW_CFA_def_cfa_offset: 128
  DW_CFA_offset: r29 (x29) at cfa-128
  DW_CFA_offset: r30 (x30) at cfa-120
  DW_CFA_advance_loc: 8 to 00000000000120c4
  DW_CFA_offset: r19 (x19) at cfa-112
  DW_CFA_offset: r20 (x20) at cfa-104
  DW_CFA_advance_loc: 12 to 00000000000120d0
  DW_CFA_offset: r21 (x21) at cfa-96
  DW_CFA_offset: r22 (x22) at cfa-88
  DW_CFA_advance_loc: 24 to 00000000000120e8
  DW_CFA_offset: r23 (x23) at cfa-80
  DW_CFA_offset: r24 (x24) at cfa-72
  DW_CFA_offset: r25 (x25) at cfa-64
  DW_CFA_offset: r26 (x26) at cfa-56
  DW_CFA_offset: r27 (x27) at cfa-48
  DW_CFA_offset: r28 (x28) at cfa-40
  DW_CFA_advance_loc1: 656 to 0000000000012378
  DW_CFA_restore: r30 (x30)
  DW_CFA_restore: r29 (x29)
  DW_CFA_restore: r27 (x27)
  DW_CFA_restore: r28 (x28)
  DW_CFA_restore: r25 (x25)
  DW_CFA_restore: r26 (x26)
  DW_CFA_restore: r23 (x23)
  DW_CFA_restore: r24 (x24)
  DW_CFA_restore: r21 (x21)
  DW_CFA_restore: r22 (x22)
  DW_CFA_restore: r19 (x19)
  DW_CFA_restore: r20 (x20)
  DW_CFA_def_cfa_offset: 0

00001ff0 0000000000000038 00001ff4 FDE cie=00000000 pc=000000000001237c..000000000001267c
  DW_CFA_advance_loc: 4 to 0000000000012380
  DW_CFA_def_cfa_offset: 96
  DW_CFA_offset: r29 (x29) at cfa-96
  DW_CFA_offset: r30 (x30) at cfa-88
  DW_CFA_advance_loc: 24 to 0000000000012398
  DW_CFA_offset: r19 (x19) at cfa-80
  DW_CFA_offset: r20 (x20) at cfa-72
  DW_CFA_offset: r21 (x21) at cfa-64
  DW_CFA_offset: r22 (x22) at cfa-56
  DW_CFA_advance_loc: 8 to 00000000000123a0
  DW_CFA_offset: r23 (x23) at cfa-48
  DW_CFA_offset: r24 (x24) at cfa-40
  DW_CFA_advance_loc: 12 to 00000000000123ac
  DW_CFA_offset: r25 (x25) at cfa-32
  DW_CFA_offset: r26 (x26) at cfa-24
  DW_CFA_advance_loc1: 716 to 0000000000012678
  DW_CFA_restore: r30 (x30)
  DW_CFA_restore: r29 (x29)
  DW_CFA_restore: r25 (x25)
  DW_CFA_restore: r26 (x26)
  DW_CFA_restore: r23 (x23)
  DW_CFA_restore: r24 (x24)
  DW_CFA_restore: r21 (x21)
  DW_CFA_restore: r22 (x22)
  DW_CFA_restore: r19 (x19)
  DW_CFA_restore: r20 (x20)
  DW_CFA_def_cfa_offset: 0
  DW_CFA_nop
  DW_CFA_nop
  DW_CFA_nop

0000202c 000000000000001c 00002030 FDE cie=00000000 pc=000000000003e320..000000000003e344
  DW_CFA_advance_loc: 4 to 000000000003e324
  DW_CFA_def_cfa_offset: 16
  DW_CFA_offset: r29 (x29) at cfa-16
  DW_CFA_offset: r30 (x30) at cfa-8
  DW_CFA_advance_loc: 28 to 000000000003e340
  DW_CFA_restore: r30 (x30)
  DW_CFA_restore: r29 (x29)
  DW_CFA_def_cfa_offset: 0
  DW_CFA_nop
  DW_CFA_nop
  DW_CFA_nop

0000204c 0000000000000020 00002050 FDE cie=00000000 pc=000000000001267c..0000000000013df8
  DW_CFA_advance_loc2: 5628 to 0000000000013c78
  DW_CFA_def_cfa_offset: 32
  DW_CFA_offset: r29 (x29) at cfa-32
  DW_CFA_offset: r30 (x30) at cfa-24
  DW_CFA_advance_loc: 16 to 0000000000013c88
  DW_CFA_offset: r19 (x19) at cfa-16
  DW_CFA_advance_loc: 44 to 0000000000013cb4
  DW_CFA_restore: r30 (x30)
  DW_CFA_restore: r29 (x29)
  DW_CFA_restore: r19 (x19)
  DW_CFA_def_cfa_offset: 0
  DW_CFA_nop

00002070 0000000000000028 00002074 FDE cie=00000000 pc=0000000000013df8..0000000000013e9c
  DW_CFA_advance_loc: 4 to 0000000000013dfc
  DW_CFA_def_cfa_offset: 80
  DW_CFA_offset: r29 (x29) at cfa-80
  DW_CFA_offset: r30 (x30) at cfa-72
  DW_CFA_advance_loc: 16 to 0000000000013e0c
  DW_CFA_offset: r19 (x19) at cfa-64
  DW_CFA_offset: r20 (x20) at cfa-56
  DW_CFA_advance_loc: 12 to 0000000000013e18
  DW_CFA_offset: r21 (x21) at cfa-48
  DW_CFA_offset: r22 (x22) at cfa-40
  DW_CFA_advance_loc: 128 to 0000000000013e98
  DW_CFA_restore: r30 (x30)
  DW_CFA_restore: r29 (x29)
  DW_CFA_restore: r21 (x21)
  DW_CFA_restore: r22 (x22)
  DW_CFA_restore: r19 (x19)
  DW_CFA_restore: r20 (x20)
  DW_CFA_def_cfa_offset: 0
  DW_CFA_nop

0000209c 0000000000000024 000020a0 FDE cie=00000000 pc=0000000000013e9c..0000000000013f68
  DW_CFA_advance_loc: 4 to 0000000000013ea0
  DW_CFA_def_cfa_offset: 80
  DW_CFA_offset: r29 (x29) at cfa-80
  DW_CFA_offset: r30 (x30) at cfa-72
  DW_CFA_advance_loc: 8 to 0000000000013ea8
  DW_CFA_offset: r19 (x19) at cfa-64
  DW_CFA_offset: r20 (x20) at cfa-56
  DW_CFA_advance_loc: 16 to 0000000000013eb8
  DW_CFA_offset: r21 (x21) at cfa-48
  DW_CFA_advance_loc: 172 to 0000000000013f64
  DW_CFA_restore: r30 (x30)
  DW_CFA_restore: r29 (x29)
  DW_CFA_restore: r21 (x21)
  DW_CFA_restore: r19 (x19)
  DW_CFA_restore: r20 (x20)
  DW_CFA_def_cfa_offset: 0

000020c4 000000000000002c 000020c8 FDE cie=00000000 pc=0000000000013f68..000000000001401c
  DW_CFA_advance_loc: 4 to 0000000000013f6c
  DW_CFA_def_cfa_offset: 96
  DW_CFA_offset: r29 (x29) at cfa-96
  DW_CFA_offset: r30 (x30) at cfa-88
  DW_CFA_advance_loc: 16 to 0000000000013f7c
  DW_CFA_offset: r19 (x19) at cfa-80
  DW_CFA_offset: r20 (x20) at cfa-72
  DW_CFA_advance_loc: 12 to 0000000000013f88
  DW_CFA_offset: r21 (x21) at cfa-64
  DW_CFA_offset: r22 (x22) at cfa-56
  DW_CFA_advance_loc: 12 to 0000000000013f94
  DW_CFA_offset: r23 (x23) at cfa-48
  DW_CFA_advance_loc: 132 to 0000000000014018
  DW_CFA_restore: r30 (x30)
  DW_CFA_restore: r29 (x29)
  DW_CFA_restore: r23 (x23)
  DW_CFA_restore: r21 (x21)
  DW_CFA_restore: r22 (x22)
  DW_CFA_restore: r19 (x19)
  DW_CFA_restore: r20 (x20)
  DW_CFA_def_cfa_offset: 0
  DW_CFA_nop

000020f4 0000000000000024 000020f8 FDE cie=00000000 pc=000000000001401c..00000000000140c4
  DW_CFA_advance_loc: 4 to 0000000000014020
  DW_CFA_def_cfa_offset: 80
  DW_CFA_offset: r29 (x29) at cfa-80
  DW_CFA_offset: r30 (x30) at cfa-72
  DW_CFA_advance_loc: 16 to 0000000000014030
  DW_CFA_offset: r19 (x19) at cfa-64
  DW_CFA_offset: r20 (x20) at cfa-56
  DW_CFA_advance_loc: 12 to 000000000001403c
  DW_CFA_offset: r21 (x21) at cfa-48
  DW_CFA_advance_loc: 132 to 00000000000140c0
  DW_CFA_restore: r30 (x30)
  DW_CFA_restore: r29 (x29)
  DW_CFA_restore: r21 (x21)
  DW_CFA_restore: r19 (x19)
  DW_CFA_restore: r20 (x20)
  DW_CFA_def_cfa_offset: 0

0000211c 0000000000000028 00002120 FDE cie=00000000 pc=00000000000140c4..000000000001416c
  DW_CFA_advance_loc: 4 to 00000000000140c8
  DW_CFA_def_cfa_offset: 80
  DW_CFA_offset: r29 (x29) at cfa-80
  DW_CFA_offset: r30 (x30) at cfa-72
  DW_CFA_advance_loc: 16 to 00000000000140d8
  DW_CFA_offset: r19 (x19) at cfa-64
  DW_CFA_offset: r20 (x20) at cfa-56
  DW_CFA_advance_loc: 12 to 00000000000140e4
  DW_CFA_offset: r21 (x21) at cfa-48
  DW_CFA_offset: r22 (x22) at cfa-40
  DW_CFA_advance_loc: 132 to 0000000000014168
  DW_CFA_restore: r30 (x30)
  DW_CFA_restore: r29 (x29)
  DW_CFA_restore: r21 (x21)
  DW_CFA_restore: r22 (x22)
  DW_CFA_restore: r19 (x19)
  DW_CFA_restore: r20 (x20)
  DW_CFA_def_cfa_offset: 0
  DW_CFA_nop

00002148 0000000000000020 0000214c FDE cie=00000000 pc=000000000001416c..00000000000141c0
  DW_CFA_advance_loc: 4 to 0000000000014170
  DW_CFA_def_cfa_offset: 32
  DW_CFA_offset: r29 (x29) at cfa-32
  DW_CFA_offset: r30 (x30) at cfa-24
  DW_CFA_advance_loc: 16 to 0000000000014180
  DW_CFA_offset: r19 (x19) at cfa-16
  DW_CFA_advance_loc: 60 to 00000000000141bc
  DW_CFA_restore: r30 (x30)
  DW_CFA_restore: r29 (x29)
  DW_CFA_restore: r19 (x19)
  DW_CFA_def_cfa_offset: 0
  DW_CFA_nop
  DW_CFA_nop
  DW_CFA_nop

0000216c 0000000000000020 00002170 FDE cie=00000000 pc=00000000000141c0..000000000001421c
  DW_CFA_advance_loc: 4 to 00000000000141c4
  DW_CFA_def_cfa_offset: 32
  DW_CFA_offset: r29 (x29) at cfa-32
  DW_CFA_offset: r30 (x30) at cfa-24
  DW_CFA_advance_loc: 8 to 00000000000141cc
  DW_CFA_offset: r19 (x19) at cfa-16
  DW_CFA_offset: r20 (x20) at cfa-8
  DW_CFA_advance_loc: 76 to 0000000000014218
  DW_CFA_restore: r30 (x30)
  DW_CFA_restore: r29 (x29)
  DW_CFA_restore: r19 (x19)
  DW_CFA_restore: r20 (x20)
  DW_CFA_def_cfa_offset: 0

00002190 000000000000002c 00002194 FDE cie=00000000 pc=000000000001421c..00000000000142ec
  DW_CFA_advance_loc: 4 to 0000000000014220
  DW_CFA_def_cfa_offset: 96
  DW_CFA_offset: r29 (x29) at cfa-96
  DW_CFA_offset: r30 (x30) at cfa-88
  DW_CFA_advance_loc: 20 to 0000000000014234
  DW_CFA_offset: r19 (x19) at cfa-80
  DW_CFA_offset: r20 (x20) at cfa-72
  DW_CFA_offset: r21 (x21) at cfa-64
  DW_CFA_offset: r22 (x22) at cfa-56
  DW_CFA_advance_loc: 12 to 0000000000014240
  DW_CFA_offset: r23 (x23) at cfa-48
  DW_CFA_advance_loc: 168 to 00000000000142e8
  DW_CFA_restore: r30 (x30)
  DW_CFA_restore: r29 (x29)
  DW_CFA_restore: r23 (x23)
  DW_CFA_restore: r21 (x21)
  DW_CFA_restore: r22 (x22)
  DW_CFA_restore: r19 (x19)
  DW_CFA_restore: r20 (x20)
  DW_CFA_def_cfa_offset: 0
  DW_CFA_nop
  DW_CFA_nop

000021c0 0000000000000024 000021c4 FDE cie=00000000 pc=00000000000142ec..0000000000014354
  DW_CFA_advance_loc: 4 to 00000000000142f0
  DW_CFA_def_cfa_offset: 48
  DW_CFA_offset: r29 (x29) at cfa-48
  DW_CFA_offset: r30 (x30) at cfa-40
  DW_CFA_advance_loc: 8 to 00000000000142f8
  DW_CFA_offset: r19 (x19) at cfa-32
  DW_CFA_offset: r20 (x20) at cfa-24
  DW_CFA_advance_loc: 8 to 0000000000014300
  DW_CFA_offset: r21 (x21) at cfa-16
  DW_CFA_advance_loc: 80 to 0000000000014350
  DW_CFA_restore: r30 (x30)
  DW_CFA_restore: r29 (x29)
  DW_CFA_restore: r21 (x21)
  DW_CFA_restore: r19 (x19)
  DW_CFA_restore: r20 (x20)
  DW_CFA_def_cfa_offset: 0

000021e8 000000000000001c 000021ec FDE cie=00000000 pc=0000000000014354..000000000001437c
  DW_CFA_advance_loc: 4 to 0000000000014358
  DW_CFA_def_cfa_offset: 16
  DW_CFA_offset: r29 (x29) at cfa-16
  DW_CFA_offset: r30 (x30) at cfa-8
  DW_CFA_advance_loc: 32 to 0000000000014378
  DW_CFA_restore: r30 (x30)
  DW_CFA_restore: r29 (x29)
  DW_CFA_def_cfa_offset: 0
  DW_CFA_nop
  DW_CFA_nop
  DW_CFA_nop

00002208 000000000000002c 0000220c FDE cie=00000000 pc=000000000001437c..0000000000014450
  DW_CFA_advance_loc: 4 to 0000000000014380
  DW_CFA_def_cfa_offset: 96
  DW_CFA_offset: r29 (x29) at cfa-96
  DW_CFA_offset: r30 (x30) at cfa-88
  DW_CFA_advance_loc: 16 to 0000000000014390
  DW_CFA_offset: r19 (x19) at cfa-80
  DW_CFA_offset: r20 (x20) at cfa-72
  DW_CFA_advance_loc: 8 to 0000000000014398
  DW_CFA_offset: r21 (x21) at cfa-64
  DW_CFA_offset: r22 (x22) at cfa-56
  DW_CFA_advance_loc: 8 to 00000000000143a0
  DW_CFA_offset: r23 (x23) at cfa-48
  DW_CFA_advance_loc: 172 to 000000000001444c
  DW_CFA_restore: r30 (x30)
  DW_CFA_restore: r29 (x29)
  DW_CFA_restore: r23 (x23)
  DW_CFA_restore: r21 (x21)
  DW_CFA_restore: r22 (x22)
  DW_CFA_restore: r19 (x19)
  DW_CFA_restore: r20 (x20)
  DW_CFA_def_cfa_offset: 0
  DW_CFA_nop

00002238 000000000000001c 0000223c FDE cie=00000000 pc=0000000000014450..00000000000144a8
  DW_CFA_advance_loc: 4 to 0000000000014454
  DW_CFA_def_cfa_offset: 16
  DW_CFA_offset: r29 (x29) at cfa-16
  DW_CFA_offset: r30 (x30) at cfa-8
  DW_CFA_advance_loc: 80 to 00000000000144a4
  DW_CFA_restore: r30 (x30)
  DW_CFA_restore: r29 (x29)
  DW_CFA_def_cfa_offset: 0
  DW_CFA_nop
  DW_CFA_nop
  DW_CFA_nop

00002258 000000000000001c 0000225c FDE cie=00000000 pc=00000000000144a8..0000000000014500
  DW_CFA_advance_loc: 4 to 00000000000144ac
  DW_CFA_def_cfa_offset: 16
  DW_CFA_offset: r29 (x29) at cfa-16
  DW_CFA_offset: r30 (x30) at cfa-8
  DW_CFA_advance_loc: 80 to 00000000000144fc
  DW_CFA_restore: r30 (x30)
  DW_CFA_restore: r29 (x29)
  DW_CFA_def_cfa_offset: 0
  DW_CFA_nop
  DW_CFA_nop
  DW_CFA_nop

00002278 0000000000000020 0000227c FDE cie=00000000 pc=0000000000014500..00000000000145e0
  DW_CFA_advance_loc: 4 to 0000000000014504
  DW_CFA_def_cfa_offset: 32
  DW_CFA_offset: r29 (x29) at cfa-32
  DW_CFA_offset: r30 (x30) at cfa-24
  DW_CFA_advance_loc: 12 to 0000000000014510
  DW_CFA_offset: r19 (x19) at cfa-16
  DW_CFA_advance_loc: 204 to 00000000000145dc
  DW_CFA_restore: r30 (x30)
  DW_CFA_restore: r29 (x29)
  DW_CFA_restore: r19 (x19)
  DW_CFA_def_cfa_offset: 0
  DW_CFA_nop
  DW_CFA_nop
  DW_CFA_nop

0000229c 0000000000000010 000022a0 FDE cie=00000000 pc=00000000000145e0..00000000000145e4
  DW_CFA_nop
  DW_CFA_nop
  DW_CFA_nop

000022b0 000000000000001c 000022b4 FDE cie=00000000 pc=00000000000145e4..0000000000014624
  DW_CFA_advance_loc: 12 to 00000000000145f0
  DW_CFA_def_cfa_offset: 16
  DW_CFA_offset: r29 (x29) at cfa-16
  DW_CFA_offset: r30 (x30) at cfa-8
  DW_CFA_advance_loc: 40 to 0000000000014618
  DW_CFA_def_cfa_offset: 0
  DW_CFA_restore: r29 (x29)
  DW_CFA_restore: r30 (x30)
  DW_CFA_nop
  DW_CFA_nop
  DW_CFA_nop

000022d0 000000000000001c 000022d4 FDE cie=00000000 pc=0000000000014624..0000000000014660
  DW_CFA_advance_loc: 12 to 0000000000014630
  DW_CFA_def_cfa_offset: 16
  DW_CFA_offset: r29 (x29) at cfa-16
  DW_CFA_offset: r30 (x30) at cfa-8
  DW_CFA_advance_loc: 40 to 0000000000014658
  DW_CFA_def_cfa_offset: 0
  DW_CFA_restore: r29 (x29)
  DW_CFA_restore: r30 (x30)
  DW_CFA_nop
  DW_CFA_nop
  DW_CFA_nop

000022f0 0000000000000010 000022f4 FDE cie=00000000 pc=0000000000014660..0000000000014668
  DW_CFA_nop
  DW_CFA_nop
  DW_CFA_nop

00002304 0000000000000024 00002308 FDE cie=00000000 pc=0000000000014668..00000000000146e4
  DW_CFA_advance_loc: 8 to 0000000000014670
  DW_CFA_def_cfa_offset: 48
  DW_CFA_offset: r29 (x29) at cfa-48
  DW_CFA_offset: r30 (x30) at cfa-40
  DW_CFA_advance_loc: 8 to 0000000000014678
  DW_CFA_offset: r19 (x19) at cfa-32
  DW_CFA_offset: r20 (x20) at cfa-24
  DW_CFA_advance_loc: 12 to 0000000000014684
  DW_CFA_offset: r21 (x21) at cfa-16
  DW_CFA_advance_loc: 80 to 00000000000146d4
  DW_CFA_restore: r30 (x30)
  DW_CFA_restore: r29 (x29)
  DW_CFA_restore: r21 (x21)
  DW_CFA_restore: r19 (x19)
  DW_CFA_restore: r20 (x20)
  DW_CFA_def_cfa_offset: 0

0000232c 0000000000000010 00002330 FDE cie=00000000 pc=00000000000146e4..00000000000146f0
  DW_CFA_nop
  DW_CFA_nop
  DW_CFA_nop

00002340 0000000000000010 00002344 FDE cie=00000000 pc=00000000000146f0..00000000000146fc
  DW_CFA_nop
  DW_CFA_nop
  DW_CFA_nop

00002354 0000000000000020 00002358 FDE cie=00000000 pc=00000000000146fc..0000000000014790
  DW_CFA_advance_loc: 4 to 0000000000014700
  DW_CFA_def_cfa_offset: 80
  DW_CFA_offset: r29 (x29) at cfa-80
  DW_CFA_offset: r30 (x30) at cfa-72
  DW_CFA_advance_loc: 40 to 0000000000014728
  DW_CFA_offset: r19 (x19) at cfa-64
  DW_CFA_offset: r20 (x20) at cfa-56
  DW_CFA_advance_loc: 100 to 000000000001478c
  DW_CFA_restore: r30 (x30)
  DW_CFA_restore: r29 (x29)
  DW_CFA_restore: r19 (x19)
  DW_CFA_restore: r20 (x20)
  DW_CFA_def_cfa_offset: 0

00002378 0000000000000030 0000237c FDE cie=00000000 pc=0000000000014790..0000000000014870
  DW_CFA_advance_loc: 4 to 0000000000014794
  DW_CFA_def_cfa_offset: 96
  DW_CFA_offset: r29 (x29) at cfa-96
  DW_CFA_offset: r30 (x30) at cfa-88
  DW_CFA_advance_loc: 24 to 00000000000147ac
  DW_CFA_offset: r19 (x19) at cfa-80
  DW_CFA_offset: r20 (x20) at cfa-72
  DW_CFA_offset: r21 (x21) at cfa-64
  DW_CFA_advance_loc: 104 to 0000000000014814
  DW_CFA_remember_state
  DW_CFA_restore: r30 (x30)
  DW_CFA_restore: r29 (x29)
  DW_CFA_restore: r21 (x21)
  DW_CFA_restore: r19 (x19)
  DW_CFA_restore: r20 (x20)
  DW_CFA_def_cfa_offset: 0
  DW_CFA_advance_loc: 4 to 0000000000014818
  DW_CFA_restore_state
  DW_CFA_advance_loc: 84 to 000000000001486c
  DW_CFA_restore: r30 (x30)
  DW_CFA_restore: r29 (x29)
  DW_CFA_restore: r21 (x21)
  DW_CFA_restore: r19 (x19)
  DW_CFA_restore: r20 (x20)
  DW_CFA_def_cfa_offset: 0
  DW_CFA_nop
  DW_CFA_nop

000023ac 0000000000000020 000023b0 FDE cie=00000000 pc=0000000000014870..00000000000148ec
  DW_CFA_advance_loc: 4 to 0000000000014874
  DW_CFA_def_cfa_offset: 80
  DW_CFA_offset: r29 (x29) at cfa-80
  DW_CFA_offset: r30 (x30) at cfa-72
  DW_CFA_advance_loc: 24 to 000000000001488c
  DW_CFA_offset: r19 (x19) at cfa-64
  DW_CFA_offset: r20 (x20) at cfa-56
  DW_CFA_advance_loc: 92 to 00000000000148e8
  DW_CFA_restore: r30 (x30)
  DW_CFA_restore: r29 (x29)
  DW_CFA_restore: r19 (x19)
  DW_CFA_restore: r20 (x20)
  DW_CFA_def_cfa_offset: 0

000023d0 0000000000000010 000023d4 FDE cie=00000000 pc=00000000000148ec..00000000000148f0
  DW_CFA_nop
  DW_CFA_nop
  DW_CFA_nop

000023e4 0000000000000028 000023e8 FDE cie=00000000 pc=00000000000148f0..00000000000149a0
  DW_CFA_advance_loc: 4 to 00000000000148f4
  DW_CFA_def_cfa_offset: 48
  DW_CFA_offset: r29 (x29) at cfa-48
  DW_CFA_offset: r30 (x30) at cfa-40
  DW_CFA_advance_loc: 8 to 00000000000148fc
  DW_CFA_offset: r21 (x21) at cfa-16
  DW_CFA_offset: r22 (x22) at cfa-8
  DW_CFA_advance_loc: 8 to 0000000000014904
  DW_CFA_offset: r19 (x19) at cfa-32
  DW_CFA_offset: r20 (x20) at cfa-24
  DW_CFA_advance_loc: 152 to 000000000001499c
  DW_CFA_restore: r30 (x30)
  DW_CFA_restore: r29 (x29)
  DW_CFA_restore: r21 (x21)
  DW_CFA_restore: r22 (x22)
  DW_CFA_restore: r19 (x19)
  DW_CFA_restore: r20 (x20)
  DW_CFA_def_cfa_offset: 0
  DW_CFA_nop

00002410 0000000000000028 00002414 FDE cie=00000000 pc=00000000000149a0..00000000000149e4
  DW_CFA_advance_loc: 4 to 00000000000149a4
  DW_CFA_def_cfa_offset: 32
  DW_CFA_offset: r29 (x29) at cfa-32
  DW_CFA_offset: r30 (x30) at cfa-24
  DW_CFA_advance_loc: 8 to 00000000000149ac
  DW_CFA_offset: r19 (x19) at cfa-16
  DW_CFA_advance_loc: 36 to 00000000000149d0
  DW_CFA_remember_state
  DW_CFA_restore: r30 (x30)
  DW_CFA_restore: r29 (x29)
  DW_CFA_restore: r19 (x19)
  DW_CFA_def_cfa_offset: 0
  DW_CFA_advance_loc: 4 to 00000000000149d4
  DW_CFA_restore_state
  DW_CFA_advance_loc: 12 to 00000000000149e0
  DW_CFA_restore: r30 (x30)
  DW_CFA_restore: r29 (x29)
  DW_CFA_restore: r19 (x19)
  DW_CFA_def_cfa_offset: 0
  DW_CFA_nop
  DW_CFA_nop

0000243c 000000000000002c 00002440 FDE cie=00000000 pc=00000000000149e4..0000000000014a98
  DW_CFA_advance_loc: 8 to 00000000000149ec
  DW_CFA_def_cfa_offset: 64
  DW_CFA_offset: r29 (x29) at cfa-64
  DW_CFA_offset: r30 (x30) at cfa-56
  DW_CFA_advance_loc: 8 to 00000000000149f4
  DW_CFA_offset: r21 (x21) at cfa-32
  DW_CFA_offset: r22 (x22) at cfa-24
  DW_CFA_advance_loc: 16 to 0000000000014a04
  DW_CFA_offset: r19 (x19) at cfa-48
  DW_CFA_offset: r20 (x20) at cfa-40
  DW_CFA_offset: r23 (x23) at cfa-16
  DW_CFA_advance_loc: 136 to 0000000000014a8c
  DW_CFA_restore: r30 (x30)
  DW_CFA_restore: r29 (x29)
  DW_CFA_restore: r23 (x23)
  DW_CFA_restore: r21 (x21)
  DW_CFA_restore: r22 (x22)
  DW_CFA_restore: r19 (x19)
  DW_CFA_restore: r20 (x20)
  DW_CFA_def_cfa_offset: 0
  DW_CFA_nop
  DW_CFA_nop

0000246c 0000000000000024 00002470 FDE cie=00000000 pc=0000000000014a98..0000000000014af4
  DW_CFA_advance_loc: 4 to 0000000000014a9c
  DW_CFA_def_cfa_offset: 48
  DW_CFA_offset: r29 (x29) at cfa-48
  DW_CFA_offset: r30 (x30) at cfa-40
  DW_CFA_advance_loc: 8 to 0000000000014aa4
  DW_CFA_offset: r19 (x19) at cfa-32
  DW_CFA_offset: r20 (x20) at cfa-24
  DW_CFA_advance_loc: 12 to 0000000000014ab0
  DW_CFA_offset: r21 (x21) at cfa-16
  DW_CFA_advance_loc: 64 to 0000000000014af0
  DW_CFA_restore: r30 (x30)
  DW_CFA_restore: r29 (x29)
  DW_CFA_restore: r21 (x21)
  DW_CFA_restore: r19 (x19)
  DW_CFA_restore: r20 (x20)
  DW_CFA_def_cfa_offset: 0

00002494 0000000000000024 00002498 FDE cie=00000000 pc=0000000000014af4..0000000000014be4
  DW_CFA_advance_loc: 4 to 0000000000014af8
  DW_CFA_def_cfa_offset: 80
  DW_CFA_offset: r29 (x29) at cfa-80
  DW_CFA_offset: r30 (x30) at cfa-72
  DW_CFA_advance_loc: 16 to 0000000000014b08
  DW_CFA_offset: r19 (x19) at cfa-64
  DW_CFA_offset: r20 (x20) at cfa-56
  DW_CFA_advance_loc: 8 to 0000000000014b10
  DW_CFA_offset: r21 (x21) at cfa-48
  DW_CFA_advance_loc: 208 to 0000000000014be0
  DW_CFA_restore: r30 (x30)
  DW_CFA_restore: r29 (x29)
  DW_CFA_restore: r21 (x21)
  DW_CFA_restore: r19 (x19)
  DW_CFA_restore: r20 (x20)
  DW_CFA_def_cfa_offset: 0

000024bc 000000000000004c 000024c0 FDE cie=00000000 pc=0000000000014be4..0000000000014de0
  DW_CFA_advance_loc: 4 to 0000000000014be8
  DW_CFA_def_cfa_offset: 128
  DW_CFA_offset: r29 (x29) at cfa-128
  DW_CFA_offset: r30 (x30) at cfa-120
  DW_CFA_advance_loc: 16 to 0000000000014bf8
  DW_CFA_offset: r19 (x19) at cfa-112
  DW_CFA_offset: r20 (x20) at cfa-104
  DW_CFA_advance_loc: 12 to 0000000000014c04
  DW_CFA_offset: r21 (x21) at cfa-96
  DW_CFA_offset: r22 (x22) at cfa-88
  DW_CFA_advance_loc: 8 to 0000000000014c0c
  DW_CFA_offset: r23 (x23) at cfa-80
  DW_CFA_offset: r24 (x24) at cfa-72
  DW_CFA_advance_loc: 12 to 0000000000014c18
  DW_CFA_offset: r25 (x25) at cfa-64
  DW_CFA_offset: r26 (x26) at cfa-56
  DW_CFA_offset: r27 (x27) at cfa-48
  DW_CFA_advance_loc: 204 to 0000000000014ce4
  DW_CFA_remember_state
  DW_CFA_restore: r30 (x30)
  DW_CFA_restore: r29 (x29)
  DW_CFA_restore: r27 (x27)
  DW_CFA_restore: r25 (x25)
  DW_CFA_restore: r26 (x26)
  DW_CFA_restore: r23 (x23)
  DW_CFA_restore: r24 (x24)
  DW_CFA_restore: r21 (x21)
  DW_CFA_restore: r22 (x22)
  DW_CFA_restore: r19 (x19)
  DW_CFA_restore: r20 (x20)
  DW_CFA_def_cfa_offset: 0
  DW_CFA_advance_loc: 4 to 0000000000014ce8
  DW_CFA_restore_state
  DW_CFA_advance_loc: 244 to 0000000000014ddc
  DW_CFA_restore: r30 (x30)
  DW_CFA_restore: r29 (x29)
  DW_CFA_restore: r27 (x27)
  DW_CFA_restore: r25 (x25)
  DW_CFA_restore: r26 (x26)
  DW_CFA_restore: r23 (x23)
  DW_CFA_restore: r24 (x24)
  DW_CFA_restore: r21 (x21)
  DW_CFA_restore: r22 (x22)
  DW_CFA_restore: r19 (x19)
  DW_CFA_restore: r20 (x20)
  DW_CFA_def_cfa_offset: 0
  DW_CFA_nop
  DW_CFA_nop

0000250c 000000000000003c 00002510 FDE cie=00000000 pc=0000000000014de0..0000000000014f0c
  DW_CFA_advance_loc: 4 to 0000000000014de4
  DW_CFA_def_cfa_offset: 128
  DW_CFA_offset: r29 (x29) at cfa-128
  DW_CFA_offset: r30 (x30) at cfa-120
  DW_CFA_advance_loc: 16 to 0000000000014df4
  DW_CFA_offset: r19 (x19) at cfa-112
  DW_CFA_offset: r20 (x20) at cfa-104
  DW_CFA_advance_loc: 12 to 0000000000014e00
  DW_CFA_offset: r21 (x21) at cfa-96
  DW_CFA_offset: r22 (x22) at cfa-88
  DW_CFA_advance_loc: 12 to 0000000000014e0c
  DW_CFA_offset: r23 (x23) at cfa-80
  DW_CFA_offset: r24 (x24) at cfa-72
  DW_CFA_offset: r25 (x25) at cfa-64
  DW_CFA_offset: r26 (x26) at cfa-56
  DW_CFA_advance_loc: 8 to 0000000000014e14
  DW_CFA_offset: r27 (x27) at cfa-48
  DW_CFA_offset: r28 (x28) at cfa-40
  DW_CFA_advance_loc: 244 to 0000000000014f08
  DW_CFA_restore: r30 (x30)
  DW_CFA_restore: r29 (x29)
  DW_CFA_restore: r27 (x27)
  DW_CFA_restore: r28 (x28)
  DW_CFA_restore: r25 (x25)
  DW_CFA_restore: r26 (x26)
  DW_CFA_restore: r23 (x23)
  DW_CFA_restore: r24 (x24)
  DW_CFA_restore: r21 (x21)
  DW_CFA_restore: r22 (x22)
  DW_CFA_restore: r19 (x19)
  DW_CFA_restore: r20 (x20)
  DW_CFA_def_cfa_offset: 0

0000254c 000000000000003c 00002550 FDE cie=00000000 pc=0000000000014f0c..000000000001510c
  DW_CFA_advance_loc: 4 to 0000000000014f10
  DW_CFA_def_cfa_offset: 112
  DW_CFA_offset: r29 (x29) at cfa-112
  DW_CFA_offset: r30 (x30) at cfa-104
  DW_CFA_advance_loc: 28 to 0000000000014f2c
  DW_CFA_offset: r19 (x19) at cfa-96
  DW_CFA_offset: r20 (x20) at cfa-88
  DW_CFA_offset: r21 (x21) at cfa-80
  DW_CFA_offset: r22 (x22) at cfa-72
  DW_CFA_advance_loc: 12 to 0000000000014f38
  DW_CFA_offset: r23 (x23) at cfa-64
  DW_CFA_offset: r24 (x24) at cfa-56
  DW_CFA_advance_loc1: 416 to 00000000000150d8
  DW_CFA_remember_state
  DW_CFA_restore: r30 (x30)
  DW_CFA_restore: r29 (x29)
  DW_CFA_restore: r23 (x23)
  DW_CFA_restore: r24 (x24)
  DW_CFA_restore: r21 (x21)
  DW_CFA_restore: r22 (x22)
  DW_CFA_restore: r19 (x19)
  DW_CFA_restore: r20 (x20)
  DW_CFA_def_cfa_offset: 0
  DW_CFA_advance_loc: 4 to 00000000000150dc
  DW_CFA_restore_state
  DW_CFA_advance_loc: 44 to 0000000000015108
  DW_CFA_restore: r30 (x30)
  DW_CFA_restore: r29 (x29)
  DW_CFA_restore: r23 (x23)
  DW_CFA_restore: r24 (x24)
  DW_CFA_restore: r21 (x21)
  DW_CFA_restore: r22 (x22)
  DW_CFA_restore: r19 (x19)
  DW_CFA_restore: r20 (x20)
  DW_CFA_def_cfa_offset: 0

0000258c 0000000000000038 00002590 FDE cie=00000000 pc=000000000001510c..00000000000153f0
  DW_CFA_advance_loc: 4 to 0000000000015110
  DW_CFA_def_cfa_offset: 128
  DW_CFA_offset: r29 (x29) at cfa-128
  DW_CFA_offset: r30 (x30) at cfa-120
  DW_CFA_advance_loc: 16 to 0000000000015120
  DW_CFA_offset: r19 (x19) at cfa-112
  DW_CFA_offset: r20 (x20) at cfa-104
  DW_CFA_advance_loc: 12 to 000000000001512c
  DW_CFA_offset: r21 (x21) at cfa-96
  DW_CFA_offset: r22 (x22) at cfa-88
  DW_CFA_advance_loc: 8 to 0000000000015134
  DW_CFA_offset: r23 (x23) at cfa-80
  DW_CFA_offset: r24 (x24) at cfa-72
  DW_CFA_advance_loc: 12 to 0000000000015140
  DW_CFA_offset: r25 (x25) at cfa-64
  DW_CFA_offset: r26 (x26) at cfa-56
  DW_CFA_advance_loc1: 684 to 00000000000153ec
  DW_CFA_restore: r30 (x30)
  DW_CFA_restore: r29 (x29)
  DW_CFA_restore: r25 (x25)
  DW_CFA_restore: r26 (x26)
  DW_CFA_restore: r23 (x23)
  DW_CFA_restore: r24 (x24)
  DW_CFA_restore: r21 (x21)
  DW_CFA_restore: r22 (x22)
  DW_CFA_restore: r19 (x19)
  DW_CFA_restore: r20 (x20)
  DW_CFA_def_cfa_offset: 0
  DW_CFA_nop

000025c8 000000000000002c 000025cc FDE cie=00000000 pc=00000000000153f0..0000000000015554
  DW_CFA_advance_loc: 4 to 00000000000153f4
  DW_CFA_def_cfa_offset: 96
  DW_CFA_offset: r29 (x29) at cfa-96
  DW_CFA_offset: r30 (x30) at cfa-88
  DW_CFA_advance_loc: 16 to 0000000000015404
  DW_CFA_offset: r19 (x19) at cfa-80
  DW_CFA_offset: r20 (x20) at cfa-72
  DW_CFA_advance_loc: 12 to 0000000000015410
  DW_CFA_offset: r21 (x21) at cfa-64
  DW_CFA_offset: r22 (x22) at cfa-56
  DW_CFA_advance_loc: 12 to 000000000001541c
  DW_CFA_offset: r23 (x23) at cfa-48
  DW_CFA_advance_loc1: 308 to 0000000000015550
  DW_CFA_restore: r30 (x30)
  DW_CFA_restore: r29 (x29)
  DW_CFA_restore: r23 (x23)
  DW_CFA_restore: r21 (x21)
  DW_CFA_restore: r22 (x22)
  DW_CFA_restore: r19 (x19)
  DW_CFA_restore: r20 (x20)
  DW_CFA_def_cfa_offset: 0

000025f8 0000000000000038 000025fc FDE cie=00000000 pc=0000000000015554..00000000000156ec
  DW_CFA_advance_loc: 4 to 0000000000015558
  DW_CFA_def_cfa_offset: 112
  DW_CFA_offset: r29 (x29) at cfa-112
  DW_CFA_offset: r30 (x30) at cfa-104
  DW_CFA_advance_loc: 16 to 0000000000015568
  DW_CFA_offset: r19 (x19) at cfa-96
  DW_CFA_offset: r20 (x20) at cfa-88
  DW_CFA_advance_loc: 12 to 0000000000015574
  DW_CFA_offset: r21 (x21) at cfa-80
  DW_CFA_offset: r22 (x22) at cfa-72
  DW_CFA_advance_loc: 8 to 000000000001557c
  DW_CFA_offset: r23 (x23) at cfa-64
  DW_CFA_offset: r24 (x24) at cfa-56
  DW_CFA_advance_loc: 12 to 0000000000015588
  DW_CFA_offset: r25 (x25) at cfa-48
  DW_CFA_offset: r26 (x26) at cfa-40
  DW_CFA_advance_loc1: 352 to 00000000000156e8
  DW_CFA_restore: r30 (x30)
  DW_CFA_restore: r29 (x29)
  DW_CFA_restore: r25 (x25)
  DW_CFA_restore: r26 (x26)
  DW_CFA_restore: r23 (x23)
  DW_CFA_restore: r24 (x24)
  DW_CFA_restore: r21 (x21)
  DW_CFA_restore: r22 (x22)
  DW_CFA_restore: r19 (x19)
  DW_CFA_restore: r20 (x20)
  DW_CFA_def_cfa_offset: 0
  DW_CFA_nop
  DW_CFA_nop

00002634 000000000000002c 00002638 FDE cie=00000000 pc=00000000000156ec..00000000000157a4
  DW_CFA_advance_loc: 8 to 00000000000156f4
  DW_CFA_def_cfa_offset: 64
  DW_CFA_offset: r29 (x29) at cfa-64
  DW_CFA_offset: r30 (x30) at cfa-56
  DW_CFA_advance_loc: 8 to 00000000000156fc
  DW_CFA_offset: r21 (x21) at cfa-32
  DW_CFA_offset: r22 (x22) at cfa-24
  DW_CFA_advance_loc: 16 to 000000000001570c
  DW_CFA_offset: r19 (x19) at cfa-48
  DW_CFA_offset: r20 (x20) at cfa-40
  DW_CFA_offset: r23 (x23) at cfa-16
  DW_CFA_advance_loc: 140 to 0000000000015798
  DW_CFA_restore: r30 (x30)
  DW_CFA_restore: r29 (x29)
  DW_CFA_restore: r23 (x23)
  DW_CFA_restore: r21 (x21)
  DW_CFA_restore: r22 (x22)
  DW_CFA_restore: r19 (x19)
  DW_CFA_restore: r20 (x20)
  DW_CFA_def_cfa_offset: 0
  DW_CFA_nop
  DW_CFA_nop

00002664 000000000000002c 00002668 FDE cie=00000000 pc=00000000000157a4..000000000001592c
  DW_CFA_advance_loc: 4 to 00000000000157a8
  DW_CFA_def_cfa_offset: 64
  DW_CFA_offset: r29 (x29) at cfa-64
  DW_CFA_offset: r30 (x30) at cfa-56
  DW_CFA_advance_loc: 8 to 00000000000157b0
  DW_CFA_offset: r19 (x19) at cfa-48
  DW_CFA_offset: r20 (x20) at cfa-40
  DW_CFA_advance_loc: 16 to 00000000000157c0
  DW_CFA_offset: r21 (x21) at cfa-32
  DW_CFA_offset: r22 (x22) at cfa-24
  DW_CFA_offset: r23 (x23) at cfa-16
  DW_CFA_advance_loc1: 360 to 0000000000015928
  DW_CFA_restore: r30 (x30)
  DW_CFA_restore: r29 (x29)
  DW_CFA_restore: r23 (x23)
  DW_CFA_restore: r21 (x21)
  DW_CFA_restore: r22 (x22)
  DW_CFA_restore: r19 (x19)
  DW_CFA_restore: r20 (x20)
  DW_CFA_def_cfa_offset: 0
  DW_CFA_nop

00002694 0000000000000028 00002698 FDE cie=00000000 pc=000000000001592c..00000000000159b4
  DW_CFA_advance_loc: 4 to 0000000000015930
  DW_CFA_def_cfa_offset: 32
  DW_CFA_offset: r29 (x29) at cfa-32
  DW_CFA_offset: r30 (x30) at cfa-24
  DW_CFA_advance_loc: 8 to 0000000000015938
  DW_CFA_offset: r19 (x19) at cfa-16
  DW_CFA_advance_loc: 96 to 0000000000015998
  DW_CFA_remember_state
  DW_CFA_restore: r30 (x30)
  DW_CFA_restore: r29 (x29)
  DW_CFA_restore: r19 (x19)
  DW_CFA_def_cfa_offset: 0
  DW_CFA_advance_loc: 4 to 000000000001599c
  DW_CFA_restore_state
  DW_CFA_advance_loc: 20 to 00000000000159b0
  DW_CFA_restore: r30 (x30)
  DW_CFA_restore: r29 (x29)
  DW_CFA_restore: r19 (x19)
  DW_CFA_def_cfa_offset: 0
  DW_CFA_nop
  DW_CFA_nop

000026c0 000000000000001c 000026c4 FDE cie=00000000 pc=00000000000159b4..00000000000159f4
  DW_CFA_advance_loc: 12 to 00000000000159c0
  DW_CFA_def_cfa_offset: 16
  DW_CFA_offset: r29 (x29) at cfa-16
  DW_CFA_offset: r30 (x30) at cfa-8
  DW_CFA_advance_loc: 40 to 00000000000159e8
  DW_CFA_def_cfa_offset: 0
  DW_CFA_restore: r29 (x29)
  DW_CFA_restore: r30 (x30)
  DW_CFA_nop
  DW_CFA_nop
  DW_CFA_nop

000026e0 000000000000002c 000026e4 FDE cie=00000000 pc=00000000000159f4..0000000000015b54
  DW_CFA_advance_loc: 4 to 00000000000159f8
  DW_CFA_def_cfa_offset: 128
  DW_CFA_offset: r29 (x29) at cfa-128
  DW_CFA_offset: r30 (x30) at cfa-120
  DW_CFA_advance_loc: 20 to 0000000000015a0c
  DW_CFA_offset: r19 (x19) at cfa-112
  DW_CFA_offset: r20 (x20) at cfa-104
  DW_CFA_offset: r21 (x21) at cfa-96
  DW_CFA_offset: r22 (x22) at cfa-88
  DW_CFA_advance_loc: 12 to 0000000000015a18
  DW_CFA_offset: r23 (x23) at cfa-80
  DW_CFA_advance_loc1: 312 to 0000000000015b50
  DW_CFA_restore: r30 (x30)
  DW_CFA_restore: r29 (x29)
  DW_CFA_restore: r23 (x23)
  DW_CFA_restore: r21 (x21)
  DW_CFA_restore: r22 (x22)
  DW_CFA_restore: r19 (x19)
  DW_CFA_restore: r20 (x20)
  DW_CFA_def_cfa_offset: 0

00002710 000000000000002c 00002714 FDE cie=00000000 pc=0000000000015b54..0000000000015bdc
  DW_CFA_advance_loc: 4 to 0000000000015b58
  DW_CFA_def_cfa_offset: 32
  DW_CFA_offset: r29 (x29) at cfa-32
  DW_CFA_offset: r30 (x30) at cfa-24
  DW_CFA_advance_loc: 8 to 0000000000015b60
  DW_CFA_offset: r19 (x19) at cfa-16
  DW_CFA_offset: r20 (x20) at cfa-8
  DW_CFA_advance_loc: 108 to 0000000000015bcc
  DW_CFA_remember_state
  DW_CFA_restore: r30 (x30)
  DW_CFA_restore: r29 (x29)
  DW_CFA_restore: r19 (x19)
  DW_CFA_restore: r20 (x20)
  DW_CFA_def_cfa_offset: 0
  DW_CFA_advance_loc: 4 to 0000000000015bd0
  DW_CFA_restore_state
  DW_CFA_advance_loc: 8 to 0000000000015bd8
  DW_CFA_restore: r30 (x30)
  DW_CFA_restore: r29 (x29)
  DW_CFA_restore: r19 (x19)
  DW_CFA_restore: r20 (x20)
  DW_CFA_def_cfa_offset: 0
  DW_CFA_nop
  DW_CFA_nop

00002740 0000000000000024 00002744 FDE cie=00000000 pc=0000000000015bdc..0000000000015c90
  DW_CFA_advance_loc: 4 to 0000000000015be0
  DW_CFA_def_cfa_offset: 48
  DW_CFA_offset: r29 (x29) at cfa-48
  DW_CFA_offset: r30 (x30) at cfa-40
  DW_CFA_advance_loc: 8 to 0000000000015be8
  DW_CFA_offset: r21 (x21) at cfa-16
  DW_CFA_advance_loc: 12 to 0000000000015bf4
  DW_CFA_offset: r19 (x19) at cfa-32
  DW_CFA_offset: r20 (x20) at cfa-24
  DW_CFA_advance_loc: 152 to 0000000000015c8c
  DW_CFA_restore: r30 (x30)
  DW_CFA_restore: r29 (x29)
  DW_CFA_restore: r21 (x21)
  DW_CFA_restore: r19 (x19)
  DW_CFA_restore: r20 (x20)
  DW_CFA_def_cfa_offset: 0

00002768 0000000000000010 0000276c FDE cie=00000000 pc=0000000000015c90..0000000000015c9c
  DW_CFA_nop
  DW_CFA_nop
  DW_CFA_nop

0000277c 0000000000000010 00002780 FDE cie=00000000 pc=0000000000015c9c..0000000000015ca8
  DW_CFA_nop
  DW_CFA_nop
  DW_CFA_nop

00002790 0000000000000024 00002794 FDE cie=00000000 pc=0000000000015ca8..0000000000015d1c
  DW_CFA_advance_loc: 4 to 0000000000015cac
  DW_CFA_def_cfa_offset: 48
  DW_CFA_offset: r29 (x29) at cfa-48
  DW_CFA_offset: r30 (x30) at cfa-40
  DW_CFA_advance_loc: 12 to 0000000000015cb8
  DW_CFA_offset: r19 (x19) at cfa-32
  DW_CFA_offset: r20 (x20) at cfa-24
  DW_CFA_offset: r21 (x21) at cfa-16
  DW_CFA_advance_loc: 96 to 0000000000015d18
  DW_CFA_restore: r30 (x30)
  DW_CFA_restore: r29 (x29)
  DW_CFA_restore: r21 (x21)
  DW_CFA_restore: r19 (x19)
  DW_CFA_restore: r20 (x20)
  DW_CFA_def_cfa_offset: 0
  DW_CFA_nop

000027b8 000000000000002c 000027bc FDE cie=00000000 pc=0000000000015d1c..0000000000015e34
  DW_CFA_advance_loc: 4 to 0000000000015d20
  DW_CFA_def_cfa_offset: 96
  DW_CFA_offset: r29 (x29) at cfa-96
  DW_CFA_offset: r30 (x30) at cfa-88
  DW_CFA_advance_loc: 16 to 0000000000015d30
  DW_CFA_offset: r19 (x19) at cfa-80
  DW_CFA_offset: r20 (x20) at cfa-72
  DW_CFA_advance_loc: 8 to 0000000000015d38
  DW_CFA_offset: r21 (x21) at cfa-64
  DW_CFA_offset: r22 (x22) at cfa-56
  DW_CFA_advance_loc: 8 to 0000000000015d40
  DW_CFA_offset: r23 (x23) at cfa-48
  DW_CFA_advance_loc: 240 to 0000000000015e30
  DW_CFA_restore: r30 (x30)
  DW_CFA_restore: r29 (x29)
  DW_CFA_restore: r23 (x23)
  DW_CFA_restore: r21 (x21)
  DW_CFA_restore: r22 (x22)
  DW_CFA_restore: r19 (x19)
  DW_CFA_restore: r20 (x20)
  DW_CFA_def_cfa_offset: 0
  DW_CFA_nop

000027e8 0000000000000028 000027ec FDE cie=00000000 pc=0000000000015e34..0000000000015ec0
  DW_CFA_advance_loc: 4 to 0000000000015e38
  DW_CFA_def_cfa_offset: 48
  DW_CFA_offset: r29 (x29) at cfa-48
  DW_CFA_offset: r30 (x30) at cfa-40
  DW_CFA_advance_loc: 8 to 0000000000015e40
  DW_CFA_offset: r19 (x19) at cfa-32
  DW_CFA_offset: r20 (x20) at cfa-24
  DW_CFA_advance_loc: 8 to 0000000000015e48
  DW_CFA_offset: r21 (x21) at cfa-16
  DW_CFA_offset: r22 (x22) at cfa-8
  DW_CFA_advance_loc: 116 to 0000000000015ebc
  DW_CFA_restore: r30 (x30)
  DW_CFA_restore: r29 (x29)
  DW_CFA_restore: r21 (x21)
  DW_CFA_restore: r22 (x22)
  DW_CFA_restore: r19 (x19)
  DW_CFA_restore: r20 (x20)
  DW_CFA_def_cfa_offset: 0
  DW_CFA_nop

00002814 000000000000002c 00002818 FDE cie=00000000 pc=0000000000015ec0..0000000000016000
  DW_CFA_advance_loc: 4 to 0000000000015ec4
  DW_CFA_def_cfa_offset: 96
  DW_CFA_offset: r29 (x29) at cfa-96
  DW_CFA_offset: r30 (x30) at cfa-88
  DW_CFA_advance_loc: 16 to 0000000000015ed4
  DW_CFA_offset: r19 (x19) at cfa-80
  DW_CFA_offset: r20 (x20) at cfa-72
  DW_CFA_advance_loc: 12 to 0000000000015ee0
  DW_CFA_offset: r21 (x21) at cfa-64
  DW_CFA_offset: r22 (x22) at cfa-56
  DW_CFA_advance_loc: 12 to 0000000000015eec
  DW_CFA_offset: r23 (x23) at cfa-48
  DW_CFA_advance_loc1: 272 to 0000000000015ffc
  DW_CFA_restore: r30 (x30)
  DW_CFA_restore: r29 (x29)
  DW_CFA_restore: r23 (x23)
  DW_CFA_restore: r21 (x21)
  DW_CFA_restore: r22 (x22)
  DW_CFA_restore: r19 (x19)
  DW_CFA_restore: r20 (x20)
  DW_CFA_def_cfa_offset: 0

00002844 0000000000000028 00002848 FDE cie=00000000 pc=0000000000016000..0000000000016104
  DW_CFA_advance_loc: 4 to 0000000000016004
  DW_CFA_def_cfa_offset: 48
  DW_CFA_offset: r29 (x29) at cfa-48
  DW_CFA_offset: r30 (x30) at cfa-40
  DW_CFA_advance_loc: 8 to 000000000001600c
  DW_CFA_offset: r19 (x19) at cfa-32
  DW_CFA_offset: r20 (x20) at cfa-24
  DW_CFA_advance_loc: 12 to 0000000000016018
  DW_CFA_offset: r21 (x21) at cfa-16
  DW_CFA_offset: r22 (x22) at cfa-8
  DW_CFA_advance_loc: 232 to 0000000000016100
  DW_CFA_restore: r30 (x30)
  DW_CFA_restore: r29 (x29)
  DW_CFA_restore: r21 (x21)
  DW_CFA_restore: r22 (x22)
  DW_CFA_restore: r19 (x19)
  DW_CFA_restore: r20 (x20)
  DW_CFA_def_cfa_offset: 0
  DW_CFA_nop

00002870 0000000000000034 00002874 FDE cie=00000000 pc=0000000000016104..00000000000162e8
  DW_CFA_advance_loc: 4 to 0000000000016108
  DW_CFA_def_cfa_offset: 80
  DW_CFA_offset: r29 (x29) at cfa-80
  DW_CFA_offset: r30 (x30) at cfa-72
  DW_CFA_advance_loc: 8 to 0000000000016110
  DW_CFA_offset: r21 (x21) at cfa-48
  DW_CFA_offset: r22 (x22) at cfa-40
  DW_CFA_advance_loc: 20 to 0000000000016124
  DW_CFA_offset: r19 (x19) at cfa-64
  DW_CFA_offset: r20 (x20) at cfa-56
  DW_CFA_offset: r23 (x23) at cfa-32
  DW_CFA_offset: r24 (x24) at cfa-24
  DW_CFA_offset: r25 (x25) at cfa-16
  DW_CFA_offset: r26 (x26) at cfa-8
  DW_CFA_advance_loc1: 448 to 00000000000162e4
  DW_CFA_restore: r30 (x30)
  DW_CFA_restore: r29 (x29)
  DW_CFA_restore: r25 (x25)
  DW_CFA_restore: r26 (x26)
  DW_CFA_restore: r23 (x23)
  DW_CFA_restore: r24 (x24)
  DW_CFA_restore: r21 (x21)
  DW_CFA_restore: r22 (x22)
  DW_CFA_restore: r19 (x19)
  DW_CFA_restore: r20 (x20)
  DW_CFA_def_cfa_offset: 0

000028a8 0000000000000038 000028ac FDE cie=00000000 pc=00000000000162e8..00000000000164ac
  DW_CFA_advance_loc: 4 to 00000000000162ec
  DW_CFA_def_cfa_offset: 192
  DW_CFA_offset: r29 (x29) at cfa-192
  DW_CFA_offset: r30 (x30) at cfa-184
  DW_CFA_advance_loc: 16 to 00000000000162fc
  DW_CFA_offset: r19 (x19) at cfa-176
  DW_CFA_offset: r20 (x20) at cfa-168
  DW_CFA_advance_loc: 16 to 000000000001630c
  DW_CFA_offset: r21 (x21) at cfa-160
  DW_CFA_offset: r22 (x22) at cfa-152
  DW_CFA_offset: r23 (x23) at cfa-144
  DW_CFA_offset: r24 (x24) at cfa-136
  DW_CFA_advance_loc: 8 to 0000000000016314
  DW_CFA_offset: r25 (x25) at cfa-128
  DW_CFA_offset: r26 (x26) at cfa-120
  DW_CFA_advance_loc1: 404 to 00000000000164a8
  DW_CFA_restore: r30 (x30)
  DW_CFA_restore: r29 (x29)
  DW_CFA_restore: r25 (x25)
  DW_CFA_restore: r26 (x26)
  DW_CFA_restore: r23 (x23)
  DW_CFA_restore: r24 (x24)
  DW_CFA_restore: r21 (x21)
  DW_CFA_restore: r22 (x22)
  DW_CFA_restore: r19 (x19)
  DW_CFA_restore: r20 (x20)
  DW_CFA_def_cfa_offset: 0
  DW_CFA_nop
  DW_CFA_nop

000028e4 0000000000000028 000028e8 FDE cie=00000000 pc=00000000000164ac..00000000000165e8
  DW_CFA_advance_loc: 4 to 00000000000164b0
  DW_CFA_def_cfa_offset: 48
  DW_CFA_offset: r29 (x29) at cfa-48
  DW_CFA_offset: r30 (x30) at cfa-40
  DW_CFA_advance_loc: 8 to 00000000000164b8
  DW_CFA_offset: r21 (x21) at cfa-16
  DW_CFA_offset: r22 (x22) at cfa-8
  DW_CFA_advance_loc: 12 to 00000000000164c4
  DW_CFA_offset: r19 (x19) at cfa-32
  DW_CFA_offset: r20 (x20) at cfa-24
  DW_CFA_advance_loc1: 288 to 00000000000165e4
  DW_CFA_restore: r30 (x30)
  DW_CFA_restore: r29 (x29)
  DW_CFA_restore: r21 (x21)
  DW_CFA_restore: r22 (x22)
  DW_CFA_restore: r19 (x19)
  DW_CFA_restore: r20 (x20)
  DW_CFA_def_cfa_offset: 0

00002910 0000000000000030 00002914 FDE cie=00000000 pc=00000000000165e8..0000000000016790
  DW_CFA_advance_loc: 4 to 00000000000165ec
  DW_CFA_def_cfa_offset: 96
  DW_CFA_offset: r29 (x29) at cfa-96
  DW_CFA_offset: r30 (x30) at cfa-88
  DW_CFA_advance_loc: 16 to 00000000000165fc
  DW_CFA_offset: r19 (x19) at cfa-80
  DW_CFA_offset: r20 (x20) at cfa-72
  DW_CFA_advance_loc: 8 to 0000000000016604
  DW_CFA_offset: r21 (x21) at cfa-64
  DW_CFA_offset: r22 (x22) at cfa-56
  DW_CFA_advance_loc: 12 to 0000000000016610
  DW_CFA_offset: r23 (x23) at cfa-48
  DW_CFA_offset: r24 (x24) at cfa-40
  DW_CFA_advance_loc1: 380 to 000000000001678c
  DW_CFA_restore: r30 (x30)
  DW_CFA_restore: r29 (x29)
  DW_CFA_restore: r23 (x23)
  DW_CFA_restore: r24 (x24)
  DW_CFA_restore: r21 (x21)
  DW_CFA_restore: r22 (x22)
  DW_CFA_restore: r19 (x19)
  DW_CFA_restore: r20 (x20)
  DW_CFA_def_cfa_offset: 0
  DW_CFA_nop

00002944 0000000000000030 00002948 FDE cie=00000000 pc=0000000000016790..0000000000016874
  DW_CFA_advance_loc: 4 to 0000000000016794
  DW_CFA_def_cfa_offset: 48
  DW_CFA_offset: r29 (x29) at cfa-48
  DW_CFA_offset: r30 (x30) at cfa-40
  DW_CFA_advance_loc: 8 to 000000000001679c
  DW_CFA_offset: r19 (x19) at cfa-32
  DW_CFA_offset: r20 (x20) at cfa-24
  DW_CFA_advance_loc: 12 to 00000000000167a8
  DW_CFA_offset: r21 (x21) at cfa-16
  DW_CFA_advance_loc: 180 to 000000000001685c
  DW_CFA_remember_state
  DW_CFA_restore: r30 (x30)
  DW_CFA_restore: r29 (x29)
  DW_CFA_restore: r21 (x21)
  DW_CFA_restore: r19 (x19)
  DW_CFA_restore: r20 (x20)
  DW_CFA_def_cfa_offset: 0
  DW_CFA_advance_loc: 4 to 0000000000016860
  DW_CFA_restore_state
  DW_CFA_advance_loc: 16 to 0000000000016870
  DW_CFA_restore: r30 (x30)
  DW_CFA_restore: r29 (x29)
  DW_CFA_restore: r21 (x21)
  DW_CFA_restore: r19 (x19)
  DW_CFA_restore: r20 (x20)
  DW_CFA_def_cfa_offset: 0
  DW_CFA_nop

00002978 0000000000000030 0000297c FDE cie=00000000 pc=0000000000016874..0000000000016b2c
  DW_CFA_advance_loc: 4 to 0000000000016878
  DW_CFA_def_cfa_offset: 112
  DW_CFA_offset: r29 (x29) at cfa-112
  DW_CFA_offset: r30 (x30) at cfa-104
  DW_CFA_advance_loc: 32 to 0000000000016898
  DW_CFA_offset: r19 (x19) at cfa-96
  DW_CFA_offset: r20 (x20) at cfa-88
  DW_CFA_offset: r21 (x21) at cfa-80
  DW_CFA_offset: r22 (x22) at cfa-72
  DW_CFA_offset: r23 (x23) at cfa-64
  DW_CFA_offset: r24 (x24) at cfa-56
  DW_CFA_offset: r25 (x25) at cfa-48
  DW_CFA_advance_loc1: 656 to 0000000000016b28
  DW_CFA_restore: r30 (x30)
  DW_CFA_restore: r29 (x29)
  DW_CFA_restore: r25 (x25)
  DW_CFA_restore: r23 (x23)
  DW_CFA_restore: r24 (x24)
  DW_CFA_restore: r21 (x21)
  DW_CFA_restore: r22 (x22)
  DW_CFA_restore: r19 (x19)
  DW_CFA_restore: r20 (x20)
  DW_CFA_def_cfa_offset: 0

000029ac 0000000000000028 000029b0 FDE cie=00000000 pc=0000000000016b2c..0000000000016cec
  DW_CFA_advance_loc: 4 to 0000000000016b30
  DW_CFA_def_cfa_offset: 48
  DW_CFA_offset: r29 (x29) at cfa-48
  DW_CFA_offset: r30 (x30) at cfa-40
  DW_CFA_advance_loc: 8 to 0000000000016b38
  DW_CFA_offset: r21 (x21) at cfa-16
  DW_CFA_offset: r22 (x22) at cfa-8
  DW_CFA_advance_loc: 12 to 0000000000016b44
  DW_CFA_offset: r19 (x19) at cfa-32
  DW_CFA_offset: r20 (x20) at cfa-24
  DW_CFA_advance_loc1: 420 to 0000000000016ce8
  DW_CFA_restore: r30 (x30)
  DW_CFA_restore: r29 (x29)
  DW_CFA_restore: r21 (x21)
  DW_CFA_restore: r22 (x22)
  DW_CFA_restore: r19 (x19)
  DW_CFA_restore: r20 (x20)
  DW_CFA_def_cfa_offset: 0

000029d8 0000000000000024 000029dc FDE cie=00000000 pc=0000000000016cec..0000000000016dfc
  DW_CFA_advance_loc: 4 to 0000000000016cf0
  DW_CFA_def_cfa_offset: 80
  DW_CFA_offset: r29 (x29) at cfa-80
  DW_CFA_offset: r30 (x30) at cfa-72
  DW_CFA_advance_loc: 16 to 0000000000016d00
  DW_CFA_offset: r19 (x19) at cfa-64
  DW_CFA_offset: r20 (x20) at cfa-56
  DW_CFA_advance_loc: 12 to 0000000000016d0c
  DW_CFA_offset: r21 (x21) at cfa-48
  DW_CFA_advance_loc: 236 to 0000000000016df8
  DW_CFA_restore: r30 (x30)
  DW_CFA_restore: r29 (x29)
  DW_CFA_restore: r21 (x21)
  DW_CFA_restore: r19 (x19)
  DW_CFA_restore: r20 (x20)
  DW_CFA_def_cfa_offset: 0

00002a00 000000000000001c 00002a04 FDE cie=00000000 pc=0000000000016dfc..0000000000016e50
  DW_CFA_advance_loc: 52 to 0000000000016e30
  DW_CFA_def_cfa_offset: 16
  DW_CFA_offset: r29 (x29) at cfa-16
  DW_CFA_offset: r30 (x30) at cfa-8
  DW_CFA_advance_loc: 8 to 0000000000016e38
  DW_CFA_def_cfa_offset: 0
  DW_CFA_restore: r29 (x29)
  DW_CFA_restore: r30 (x30)
  DW_CFA_nop
  DW_CFA_nop
  DW_CFA_nop

00002a20 0000000000000020 00002a24 FDE cie=00000000 pc=0000000000016e50..0000000000016e8c
  DW_CFA_advance_loc: 4 to 0000000000016e54
  DW_CFA_def_cfa_offset: 32
  DW_CFA_offset: r29 (x29) at cfa-32
  DW_CFA_offset: r30 (x30) at cfa-24
  DW_CFA_advance_loc: 8 to 0000000000016e5c
  DW_CFA_offset: r19 (x19) at cfa-16
  DW_CFA_offset: r20 (x20) at cfa-8
  DW_CFA_advance_loc: 44 to 0000000000016e88
  DW_CFA_restore: r30 (x30)
  DW_CFA_restore: r29 (x29)
  DW_CFA_restore: r19 (x19)
  DW_CFA_restore: r20 (x20)
  DW_CFA_def_cfa_offset: 0

00002a44 0000000000000010 00002a48 FDE cie=00000000 pc=0000000000016e8c..0000000000016e90
  DW_CFA_nop
  DW_CFA_nop
  DW_CFA_nop

00002a58 0000000000000034 00002a5c FDE cie=00000000 pc=0000000000016e90..0000000000016f48
  DW_CFA_advance_loc: 4 to 0000000000016e94
  DW_CFA_def_cfa_offset: 96
  DW_CFA_advance_loc: 4 to 0000000000016e98
  DW_CFA_offset: r29 (x29) at cfa-80
  DW_CFA_offset: r30 (x30) at cfa-72
  DW_CFA_advance_loc: 8 to 0000000000016ea0
  DW_CFA_offset: r19 (x19) at cfa-64
  DW_CFA_offset: r20 (x20) at cfa-56
  DW_CFA_advance_loc: 8 to 0000000000016ea8
  DW_CFA_offset: r21 (x21) at cfa-48
  DW_CFA_offset: r22 (x22) at cfa-40
  DW_CFA_advance_loc: 8 to 0000000000016eb0
  DW_CFA_offset: r23 (x23) at cfa-32
  DW_CFA_offset: r24 (x24) at cfa-24
  DW_CFA_advance_loc: 8 to 0000000000016eb8
  DW_CFA_offset: r25 (x25) at cfa-16
  DW_CFA_advance_loc: 140 to 0000000000016f44
  DW_CFA_restore: r29 (x29)
  DW_CFA_restore: r30 (x30)
  DW_CFA_restore: r25 (x25)
  DW_CFA_restore: r23 (x23)
  DW_CFA_restore: r24 (x24)
  DW_CFA_restore: r21 (x21)
  DW_CFA_restore: r22 (x22)
  DW_CFA_restore: r19 (x19)
  DW_CFA_restore: r20 (x20)
  DW_CFA_def_cfa_offset: 0
  DW_CFA_nop

00002a90 0000000000000034 00002a94 FDE cie=00000000 pc=0000000000016f48..000000000001709c
  DW_CFA_advance_loc: 4 to 0000000000016f4c
  DW_CFA_def_cfa_offset: 80
  DW_CFA_offset: r29 (x29) at cfa-80
  DW_CFA_offset: r30 (x30) at cfa-72
  DW_CFA_advance_loc: 8 to 0000000000016f54
  DW_CFA_offset: r19 (x19) at cfa-64
  DW_CFA_offset: r20 (x20) at cfa-56
  DW_CFA_advance_loc: 16 to 0000000000016f64
  DW_CFA_offset: r21 (x21) at cfa-48
  DW_CFA_offset: r22 (x22) at cfa-40
  DW_CFA_offset: r23 (x23) at cfa-32
  DW_CFA_offset: r24 (x24) at cfa-24
  DW_CFA_advance_loc: 12 to 0000000000016f70
  DW_CFA_offset: r25 (x25) at cfa-16
  DW_CFA_advance_loc1: 296 to 0000000000017098
  DW_CFA_restore: r30 (x30)
  DW_CFA_restore: r29 (x29)
  DW_CFA_restore: r25 (x25)
  DW_CFA_restore: r23 (x23)
  DW_CFA_restore: r24 (x24)
  DW_CFA_restore: r21 (x21)
  DW_CFA_restore: r22 (x22)
  DW_CFA_restore: r19 (x19)
  DW_CFA_restore: r20 (x20)
  DW_CFA_def_cfa_offset: 0
  DW_CFA_nop
  DW_CFA_nop

00002ac8 0000000000000030 00002acc FDE cie=00000000 pc=000000000001709c..0000000000017264
  DW_CFA_advance_loc: 4 to 00000000000170a0
  DW_CFA_def_cfa_offset: 64
  DW_CFA_offset: r29 (x29) at cfa-64
  DW_CFA_offset: r30 (x30) at cfa-56
  DW_CFA_advance_loc: 20 to 00000000000170b4
  DW_CFA_offset: r19 (x19) at cfa-48
  DW_CFA_offset: r20 (x20) at cfa-40
  DW_CFA_offset: r21 (x21) at cfa-32
  DW_CFA_offset: r22 (x22) at cfa-24
  DW_CFA_offset: r23 (x23) at cfa-16
  DW_CFA_offset: r24 (x24) at cfa-8
  DW_CFA_advance_loc1: 428 to 0000000000017260
  DW_CFA_restore: r30 (x30)
  DW_CFA_restore: r29 (x29)
  DW_CFA_restore: r23 (x23)
  DW_CFA_restore: r24 (x24)
  DW_CFA_restore: r21 (x21)
  DW_CFA_restore: r22 (x22)
  DW_CFA_restore: r19 (x19)
  DW_CFA_restore: r20 (x20)
  DW_CFA_def_cfa_offset: 0
  DW_CFA_nop
  DW_CFA_nop
  DW_CFA_nop

00002afc 0000000000000030 00002b00 FDE cie=00000000 pc=0000000000017264..0000000000017438
  DW_CFA_advance_loc: 4 to 0000000000017268
  DW_CFA_def_cfa_offset: 64
  DW_CFA_offset: r29 (x29) at cfa-64
  DW_CFA_offset: r30 (x30) at cfa-56
  DW_CFA_advance_loc: 20 to 000000000001727c
  DW_CFA_offset: r19 (x19) at cfa-48
  DW_CFA_offset: r20 (x20) at cfa-40
  DW_CFA_offset: r21 (x21) at cfa-32
  DW_CFA_offset: r22 (x22) at cfa-24
  DW_CFA_offset: r23 (x23) at cfa-16
  DW_CFA_offset: r24 (x24) at cfa-8
  DW_CFA_advance_loc1: 440 to 0000000000017434
  DW_CFA_restore: r30 (x30)
  DW_CFA_restore: r29 (x29)
  DW_CFA_restore: r23 (x23)
  DW_CFA_restore: r24 (x24)
  DW_CFA_restore: r21 (x21)
  DW_CFA_restore: r22 (x22)
  DW_CFA_restore: r19 (x19)
  DW_CFA_restore: r20 (x20)
  DW_CFA_def_cfa_offset: 0
  DW_CFA_nop
  DW_CFA_nop
  DW_CFA_nop

00002b30 0000000000000020 00002b34 FDE cie=00000000 pc=0000000000017438..00000000000174b8
  DW_CFA_advance_loc: 4 to 000000000001743c
  DW_CFA_def_cfa_offset: 32
  DW_CFA_offset: r29 (x29) at cfa-32
  DW_CFA_offset: r30 (x30) at cfa-24
  DW_CFA_advance_loc: 32 to 000000000001745c
  DW_CFA_offset: r19 (x19) at cfa-16
  DW_CFA_advance_loc: 88 to 00000000000174b4
  DW_CFA_restore: r30 (x30)
  DW_CFA_restore: r29 (x29)
  DW_CFA_restore: r19 (x19)
  DW_CFA_def_cfa_offset: 0
  DW_CFA_nop
  DW_CFA_nop
  DW_CFA_nop

00002b54 0000000000000030 00002b58 FDE cie=00000000 pc=00000000000174b8..00000000000175f0
  DW_CFA_advance_loc: 4 to 00000000000174bc
  DW_CFA_def_cfa_offset: 64
  DW_CFA_offset: r29 (x29) at cfa-64
  DW_CFA_offset: r30 (x30) at cfa-56
  DW_CFA_advance_loc: 8 to 00000000000174c4
  DW_CFA_offset: r19 (x19) at cfa-48
  DW_CFA_offset: r20 (x20) at cfa-40
  DW_CFA_advance_loc: 8 to 00000000000174cc
  DW_CFA_offset: r21 (x21) at cfa-32
  DW_CFA_offset: r22 (x22) at cfa-24
  DW_CFA_advance_loc: 8 to 00000000000174d4
  DW_CFA_offset: r23 (x23) at cfa-16
  DW_CFA_offset: r24 (x24) at cfa-8
  DW_CFA_advance_loc1: 280 to 00000000000175ec
  DW_CFA_restore: r30 (x30)
  DW_CFA_restore: r29 (x29)
  DW_CFA_restore: r23 (x23)
  DW_CFA_restore: r24 (x24)
  DW_CFA_restore: r21 (x21)
  DW_CFA_restore: r22 (x22)
  DW_CFA_restore: r19 (x19)
  DW_CFA_restore: r20 (x20)
  DW_CFA_def_cfa_offset: 0
  DW_CFA_nop

00002b88 000000000000002c 00002b8c FDE cie=00000000 pc=00000000000175f0..0000000000017714
  DW_CFA_advance_loc: 4 to 00000000000175f4
  DW_CFA_def_cfa_offset: 64
  DW_CFA_offset: r29 (x29) at cfa-64
  DW_CFA_offset: r30 (x30) at cfa-56
  DW_CFA_advance_loc: 12 to 0000000000017600
  DW_CFA_offset: r19 (x19) at cfa-48
  DW_CFA_offset: r20 (x20) at cfa-40
  DW_CFA_advance_loc: 36 to 0000000000017624
  DW_CFA_offset: r21 (x21) at cfa-32
  DW_CFA_offset: r22 (x22) at cfa-24
  DW_CFA_offset: r23 (x23) at cfa-16
  DW_CFA_advance_loc: 236 to 0000000000017710
  DW_CFA_restore: r30 (x30)
  DW_CFA_restore: r29 (x29)
  DW_CFA_restore: r23 (x23)
  DW_CFA_restore: r21 (x21)
  DW_CFA_restore: r22 (x22)
  DW_CFA_restore: r19 (x19)
  DW_CFA_restore: r20 (x20)
  DW_CFA_def_cfa_offset: 0
  DW_CFA_nop
  DW_CFA_nop

00002bb8 0000000000000030 00002bbc FDE cie=00000000 pc=0000000000017714..0000000000017904
  DW_CFA_advance_loc: 4 to 0000000000017718
  DW_CFA_def_cfa_offset: 96
  DW_CFA_offset: r29 (x29) at cfa-96
  DW_CFA_offset: r30 (x30) at cfa-88
  DW_CFA_advance_loc: 8 to 0000000000017720
  DW_CFA_offset: r19 (x19) at cfa-80
  DW_CFA_offset: r20 (x20) at cfa-72
  DW_CFA_advance_loc: 16 to 0000000000017730
  DW_CFA_offset: r21 (x21) at cfa-64
  DW_CFA_offset: r22 (x22) at cfa-56
  DW_CFA_advance_loc: 8 to 0000000000017738
  DW_CFA_offset: r23 (x23) at cfa-48
  DW_CFA_offset: r24 (x24) at cfa-40
  DW_CFA_advance_loc1: 456 to 0000000000017900
  DW_CFA_restore: r30 (x30)
  DW_CFA_restore: r29 (x29)
  DW_CFA_restore: r23 (x23)
  DW_CFA_restore: r24 (x24)
  DW_CFA_restore: r21 (x21)
  DW_CFA_restore: r22 (x22)
  DW_CFA_restore: r19 (x19)
  DW_CFA_restore: r20 (x20)
  DW_CFA_def_cfa_offset: 0
  DW_CFA_nop

00002bec 000000000000003c 00002bf0 FDE cie=00000000 pc=0000000000017904..000000000001811c
  DW_CFA_advance_loc: 4 to 0000000000017908
  DW_CFA_def_cfa_offset: 128
  DW_CFA_offset: r29 (x29) at cfa-128
  DW_CFA_offset: r30 (x30) at cfa-120
  DW_CFA_advance_loc: 16 to 0000000000017918
  DW_CFA_offset: r19 (x19) at cfa-112
  DW_CFA_offset: r20 (x20) at cfa-104
  DW_CFA_advance_loc: 20 to 000000000001792c
  DW_CFA_offset: r21 (x21) at cfa-96
  DW_CFA_offset: r22 (x22) at cfa-88
  DW_CFA_offset: r23 (x23) at cfa-80
  DW_CFA_offset: r24 (x24) at cfa-72
  DW_CFA_offset: r25 (x25) at cfa-64
  DW_CFA_offset: r26 (x26) at cfa-56
  DW_CFA_offset: r27 (x27) at cfa-48
  DW_CFA_offset: r28 (x28) at cfa-40
  DW_CFA_advance_loc2: 2028 to 0000000000018118
  DW_CFA_restore: r30 (x30)
  DW_CFA_restore: r29 (x29)
  DW_CFA_restore: r27 (x27)
  DW_CFA_restore: r28 (x28)
  DW_CFA_restore: r25 (x25)
  DW_CFA_restore: r26 (x26)
  DW_CFA_restore: r23 (x23)
  DW_CFA_restore: r24 (x24)
  DW_CFA_restore: r21 (x21)
  DW_CFA_restore: r22 (x22)
  DW_CFA_restore: r19 (x19)
  DW_CFA_restore: r20 (x20)
  DW_CFA_def_cfa_offset: 0

00002c2c 0000000000000030 00002c30 FDE cie=00000000 pc=000000000001811c..0000000000018244
  DW_CFA_advance_loc: 4 to 0000000000018120
  DW_CFA_def_cfa_offset: 64
  DW_CFA_offset: r29 (x29) at cfa-64
  DW_CFA_offset: r30 (x30) at cfa-56
  DW_CFA_advance_loc: 8 to 0000000000018128
  DW_CFA_offset: r19 (x19) at cfa-48
  DW_CFA_offset: r20 (x20) at cfa-40
  DW_CFA_advance_loc: 20 to 000000000001813c
  DW_CFA_offset: r21 (x21) at cfa-32
  DW_CFA_offset: r22 (x22) at cfa-24
  DW_CFA_offset: r23 (x23) at cfa-16
  DW_CFA_offset: r24 (x24) at cfa-8
  DW_CFA_advance_loc1: 260 to 0000000000018240
  DW_CFA_restore: r30 (x30)
  DW_CFA_restore: r29 (x29)
  DW_CFA_restore: r23 (x23)
  DW_CFA_restore: r24 (x24)
  DW_CFA_restore: r21 (x21)
  DW_CFA_restore: r22 (x22)
  DW_CFA_restore: r19 (x19)
  DW_CFA_restore: r20 (x20)
  DW_CFA_def_cfa_offset: 0
  DW_CFA_nop
  DW_CFA_nop

00002c60 000000000000003c 00002c64 FDE cie=00000000 pc=0000000000018244..00000000000184b0
  DW_CFA_advance_loc: 4 to 0000000000018248
  DW_CFA_def_cfa_offset: 96
  DW_CFA_offset: r29 (x29) at cfa-96
  DW_CFA_offset: r30 (x30) at cfa-88
  DW_CFA_advance_loc: 12 to 0000000000018254
  DW_CFA_offset: r19 (x19) at cfa-80
  DW_CFA_offset: r20 (x20) at cfa-72
  DW_CFA_offset: r21 (x21) at cfa-64
  DW_CFA_offset: r22 (x22) at cfa-56
  DW_CFA_advance_loc: 8 to 000000000001825c
  DW_CFA_offset: r23 (x23) at cfa-48
  DW_CFA_offset: r24 (x24) at cfa-40
  DW_CFA_advance_loc: 8 to 0000000000018264
  DW_CFA_offset: r25 (x25) at cfa-32
  DW_CFA_offset: r26 (x26) at cfa-24
  DW_CFA_advance_loc: 12 to 0000000000018270
  DW_CFA_offset: r27 (x27) at cfa-16
  DW_CFA_advance_loc1: 572 to 00000000000184ac
  DW_CFA_restore: r30 (x30)
  DW_CFA_restore: r29 (x29)
  DW_CFA_restore: r27 (x27)
  DW_CFA_restore: r25 (x25)
  DW_CFA_restore: r26 (x26)
  DW_CFA_restore: r23 (x23)
  DW_CFA_restore: r24 (x24)
  DW_CFA_restore: r21 (x21)
  DW_CFA_restore: r22 (x22)
  DW_CFA_restore: r19 (x19)
  DW_CFA_restore: r20 (x20)
  DW_CFA_def_cfa_offset: 0
  DW_CFA_nop
  DW_CFA_nop
  DW_CFA_nop

00002ca0 0000000000000030 00002ca4 FDE cie=00000000 pc=00000000000184b0..0000000000018788
  DW_CFA_advance_loc: 4 to 00000000000184b4
  DW_CFA_def_cfa_offset: 96
  DW_CFA_offset: r29 (x29) at cfa-96
  DW_CFA_offset: r30 (x30) at cfa-88
  DW_CFA_advance_loc: 20 to 00000000000184c8
  DW_CFA_offset: r19 (x19) at cfa-80
  DW_CFA_offset: r20 (x20) at cfa-72
  DW_CFA_offset: r21 (x21) at cfa-64
  DW_CFA_offset: r22 (x22) at cfa-56
  DW_CFA_advance_loc: 8 to 00000000000184d0
  DW_CFA_offset: r23 (x23) at cfa-48
  DW_CFA_offset: r24 (x24) at cfa-40
  DW_CFA_advance_loc1: 692 to 0000000000018784
  DW_CFA_restore: r30 (x30)
  DW_CFA_restore: r29 (x29)
  DW_CFA_restore: r23 (x23)
  DW_CFA_restore: r24 (x24)
  DW_CFA_restore: r21 (x21)
  DW_CFA_restore: r22 (x22)
  DW_CFA_restore: r19 (x19)
  DW_CFA_restore: r20 (x20)
  DW_CFA_def_cfa_offset: 0
  DW_CFA_nop
  DW_CFA_nop

00002cd4 0000000000000028 00002cd8 FDE cie=00000000 pc=0000000000018788..0000000000018904
  DW_CFA_advance_loc: 4 to 000000000001878c
  DW_CFA_def_cfa_offset: 48
  DW_CFA_offset: r29 (x29) at cfa-48
  DW_CFA_offset: r30 (x30) at cfa-40
  DW_CFA_advance_loc: 16 to 000000000001879c
  DW_CFA_offset: r19 (x19) at cfa-32
  DW_CFA_offset: r20 (x20) at cfa-24
  DW_CFA_offset: r21 (x21) at cfa-16
  DW_CFA_offset: r22 (x22) at cfa-8
  DW_CFA_advance_loc1: 356 to 0000000000018900
  DW_CFA_restore: r30 (x30)
  DW_CFA_restore: r29 (x29)
  DW_CFA_restore: r21 (x21)
  DW_CFA_restore: r22 (x22)
  DW_CFA_restore: r19 (x19)
  DW_CFA_restore: r20 (x20)
  DW_CFA_def_cfa_offset: 0
  DW_CFA_nop

00002d00 000000000000002c 00002d04 FDE cie=00000000 pc=0000000000018904..0000000000019610
  DW_CFA_advance_loc: 4 to 0000000000018908
  DW_CFA_def_cfa_offset: 112
  DW_CFA_offset: r29 (x29) at cfa-112
  DW_CFA_offset: r30 (x30) at cfa-104
  DW_CFA_advance_loc: 12 to 0000000000018914
  DW_CFA_offset: r23 (x23) at cfa-64
  DW_CFA_offset: r24 (x24) at cfa-56
  DW_CFA_advance_loc: 8 to 000000000001891c
  DW_CFA_offset: r19 (x19) at cfa-96
  DW_CFA_offset: r20 (x20) at cfa-88
  DW_CFA_advance_loc: 12 to 0000000000018928
  DW_CFA_offset: r21 (x21) at cfa-80
  DW_CFA_offset: r22 (x22) at cfa-72
  DW_CFA_advance_loc: 20 to 000000000001893c
  DW_CFA_offset: r25 (x25) at cfa-48
  DW_CFA_offset: r26 (x26) at cfa-40
  DW_CFA_offset: r27 (x27) at cfa-32
  DW_CFA_offset: r28 (x28) at cfa-24

00002d30 0000000000000020 00002d34 FDE cie=00000000 pc=0000000000019610..0000000000019650
  DW_CFA_advance_loc: 4 to 0000000000019614
  DW_CFA_def_cfa_offset: 32
  DW_CFA_offset: r29 (x29) at cfa-32
  DW_CFA_offset: r30 (x30) at cfa-24
  DW_CFA_advance_loc: 8 to 000000000001961c
  DW_CFA_offset: r19 (x19) at cfa-16
  DW_CFA_offset: r20 (x20) at cfa-8
  DW_CFA_advance_loc: 48 to 000000000001964c
  DW_CFA_restore: r30 (x30)
  DW_CFA_restore: r29 (x29)
  DW_CFA_restore: r19 (x19)
  DW_CFA_restore: r20 (x20)
  DW_CFA_def_cfa_offset: 0

00002d54 0000000000000010 00002d58 FDE cie=00000000 pc=0000000000019650..00000000000196a8
  DW_CFA_nop
  DW_CFA_nop
  DW_CFA_nop

00002d68 0000000000000010 00002d6c FDE cie=00000000 pc=00000000000196a8..00000000000196dc
  DW_CFA_nop
  DW_CFA_nop
  DW_CFA_nop

00002d7c 0000000000000020 00002d80 FDE cie=00000000 pc=00000000000196dc..000000000001975c
  DW_CFA_advance_loc: 4 to 00000000000196e0
  DW_CFA_def_cfa_offset: 64
  DW_CFA_offset: r29 (x29) at cfa-64
  DW_CFA_offset: r30 (x30) at cfa-56
  DW_CFA_advance_loc: 24 to 00000000000196f8
  DW_CFA_offset: r19 (x19) at cfa-48
  DW_CFA_advance_loc: 96 to 0000000000019758
  DW_CFA_restore: r30 (x30)
  DW_CFA_restore: r29 (x29)
  DW_CFA_restore: r19 (x19)
  DW_CFA_def_cfa_offset: 0
  DW_CFA_nop
  DW_CFA_nop
  DW_CFA_nop

00002da0 0000000000000030 00002da4 FDE cie=00000000 pc=000000000001975c..0000000000019a34
  DW_CFA_advance_loc: 4 to 0000000000019760
  DW_CFA_def_cfa_offset: 176
  DW_CFA_offset: r29 (x29) at cfa-176
  DW_CFA_offset: r30 (x30) at cfa-168
  DW_CFA_advance_loc: 8 to 0000000000019768
  DW_CFA_offset: r19 (x19) at cfa-160
  DW_CFA_offset: r20 (x20) at cfa-152
  DW_CFA_advance_loc: 20 to 000000000001977c
  DW_CFA_offset: r21 (x21) at cfa-144
  DW_CFA_offset: r22 (x22) at cfa-136
  DW_CFA_advance_loc: 8 to 0000000000019784
  DW_CFA_offset: r23 (x23) at cfa-128
  DW_CFA_offset: r24 (x24) at cfa-120
  DW_CFA_advance_loc1: 684 to 0000000000019a30
  DW_CFA_restore: r30 (x30)
  DW_CFA_restore: r29 (x29)
  DW_CFA_restore: r23 (x23)
  DW_CFA_restore: r24 (x24)
  DW_CFA_restore: r21 (x21)
  DW_CFA_restore: r22 (x22)
  DW_CFA_restore: r19 (x19)
  DW_CFA_restore: r20 (x20)
  DW_CFA_def_cfa_offset: 0

00002dd4 0000000000000020 00002dd8 FDE cie=00000000 pc=0000000000019a34..0000000000019b24
  DW_CFA_advance_loc: 80 to 0000000000019a84
  DW_CFA_def_cfa_offset: 32
  DW_CFA_offset: r29 (x29) at cfa-32
  DW_CFA_offset: r30 (x30) at cfa-24
  DW_CFA_advance_loc: 16 to 0000000000019a94
  DW_CFA_offset: r19 (x19) at cfa-16
  DW_CFA_advance_loc: 44 to 0000000000019ac0
  DW_CFA_restore: r30 (x30)
  DW_CFA_restore: r29 (x29)
  DW_CFA_restore: r19 (x19)
  DW_CFA_def_cfa_offset: 0
  DW_CFA_nop
  DW_CFA_nop
  DW_CFA_nop

00002df8 0000000000000038 00002dfc FDE cie=00000000 pc=0000000000019b24..0000000000019bbc
  DW_CFA_advance_loc: 4 to 0000000000019b28
  DW_CFA_def_cfa_offset: 80
  DW_CFA_offset: r29 (x29) at cfa-80
  DW_CFA_offset: r30 (x30) at cfa-72
  DW_CFA_advance_loc: 12 to 0000000000019b34
  DW_CFA_offset: r19 (x19) at cfa-64
  DW_CFA_offset: r20 (x20) at cfa-56
  DW_CFA_advance_loc: 12 to 0000000000019b40
  DW_CFA_offset: r21 (x21) at cfa-48
  DW_CFA_offset: r22 (x22) at cfa-40
  DW_CFA_advance_loc: 12 to 0000000000019b4c
  DW_CFA_offset: r25 (x25) at cfa-16
  DW_CFA_offset: r26 (x26) at cfa-8
  DW_CFA_advance_loc: 12 to 0000000000019b58
  DW_CFA_offset: r23 (x23) at cfa-32
  DW_CFA_offset: r24 (x24) at cfa-24
  DW_CFA_advance_loc: 96 to 0000000000019bb8
  DW_CFA_restore: r30 (x30)
  DW_CFA_restore: r29 (x29)
  DW_CFA_restore: r25 (x25)
  DW_CFA_restore: r26 (x26)
  DW_CFA_restore: r23 (x23)
  DW_CFA_restore: r24 (x24)
  DW_CFA_restore: r21 (x21)
  DW_CFA_restore: r22 (x22)
  DW_CFA_restore: r19 (x19)
  DW_CFA_restore: r20 (x20)
  DW_CFA_def_cfa_offset: 0
  DW_CFA_nop
  DW_CFA_nop
  DW_CFA_nop

00002e34 0000000000000038 00002e38 FDE cie=00000000 pc=0000000000019bbc..0000000000019d2c
  DW_CFA_advance_loc: 4 to 0000000000019bc0
  DW_CFA_def_cfa_offset: 80
  DW_CFA_offset: r29 (x29) at cfa-80
  DW_CFA_offset: r30 (x30) at cfa-72
  DW_CFA_advance_loc: 24 to 0000000000019bd8
  DW_CFA_offset: r19 (x19) at cfa-64
  DW_CFA_offset: r20 (x20) at cfa-56
  DW_CFA_advance_loc: 12 to 0000000000019be4
  DW_CFA_offset: r21 (x21) at cfa-48
  DW_CFA_offset: r22 (x22) at cfa-40
  DW_CFA_advance_loc: 12 to 0000000000019bf0
  DW_CFA_offset: r23 (x23) at cfa-32
  DW_CFA_offset: r24 (x24) at cfa-24
  DW_CFA_advance_loc: 12 to 0000000000019bfc
  DW_CFA_offset: r25 (x25) at cfa-16
  DW_CFA_offset: r26 (x26) at cfa-8
  DW_CFA_advance_loc1: 300 to 0000000000019d28
  DW_CFA_restore: r30 (x30)
  DW_CFA_restore: r29 (x29)
  DW_CFA_restore: r25 (x25)
  DW_CFA_restore: r26 (x26)
  DW_CFA_restore: r23 (x23)
  DW_CFA_restore: r24 (x24)
  DW_CFA_restore: r21 (x21)
  DW_CFA_restore: r22 (x22)
  DW_CFA_restore: r19 (x19)
  DW_CFA_restore: r20 (x20)
  DW_CFA_def_cfa_offset: 0
  DW_CFA_nop
  DW_CFA_nop

00002e70 0000000000000024 00002e74 FDE cie=00000000 pc=0000000000019d2c..0000000000019d80
  DW_CFA_advance_loc: 4 to 0000000000019d30
  DW_CFA_def_cfa_offset: 48
  DW_CFA_offset: r29 (x29) at cfa-48
  DW_CFA_offset: r30 (x30) at cfa-40
  DW_CFA_advance_loc: 8 to 0000000000019d38
  DW_CFA_offset: r19 (x19) at cfa-32
  DW_CFA_offset: r20 (x20) at cfa-24
  DW_CFA_advance_loc: 16 to 0000000000019d48
  DW_CFA_offset: r21 (x21) at cfa-16
  DW_CFA_advance_loc: 52 to 0000000000019d7c
  DW_CFA_restore: r30 (x30)
  DW_CFA_restore: r29 (x29)
  DW_CFA_restore: r21 (x21)
  DW_CFA_restore: r19 (x19)
  DW_CFA_restore: r20 (x20)
  DW_CFA_def_cfa_offset: 0

00002e98 0000000000000010 00002e9c FDE cie=00000000 pc=0000000000019d80..0000000000019da0
  DW_CFA_nop
  DW_CFA_nop
  DW_CFA_nop

00002eac 00000000000000d8 00002eb0 FDE cie=00000000 pc=0000000000019da0..000000000001a86c
  DW_CFA_advance_loc: 4 to 0000000000019da4
  DW_CFA_def_cfa_offset: 80
  DW_CFA_offset: r29 (x29) at cfa-80
  DW_CFA_offset: r30 (x30) at cfa-72
  DW_CFA_advance_loc: 8 to 0000000000019dac
  DW_CFA_offset: r19 (x19) at cfa-64
  DW_CFA_offset: r20 (x20) at cfa-56
  DW_CFA_advance_loc: 12 to 0000000000019db8
  DW_CFA_offset: r21 (x21) at cfa-48
  DW_CFA_offset: r22 (x22) at cfa-40
  DW_CFA_advance_loc: 16 to 0000000000019dc8
  DW_CFA_offset: r23 (x23) at cfa-32
  DW_CFA_offset: r24 (x24) at cfa-24
  DW_CFA_offset: r25 (x25) at cfa-16
  DW_CFA_offset: r26 (x26) at cfa-8
  DW_CFA_advance_loc: 108 to 0000000000019e34
  DW_CFA_remember_state
  DW_CFA_restore: r30 (x30)
  DW_CFA_restore: r29 (x29)
  DW_CFA_restore: r25 (x25)
  DW_CFA_restore: r26 (x26)
  DW_CFA_restore: r23 (x23)
  DW_CFA_restore: r24 (x24)
  DW_CFA_restore: r21 (x21)
  DW_CFA_restore: r22 (x22)
  DW_CFA_restore: r19 (x19)
  DW_CFA_restore: r20 (x20)
  DW_CFA_def_cfa_offset: 0
  DW_CFA_advance_loc: 4 to 0000000000019e38
  DW_CFA_restore_state
  DW_CFA_advance_loc1: 440 to 0000000000019ff0
  DW_CFA_remember_state
  DW_CFA_restore: r30 (x30)
  DW_CFA_restore: r29 (x29)
  DW_CFA_restore: r25 (x25)
  DW_CFA_restore: r26 (x26)
  DW_CFA_restore: r23 (x23)
  DW_CFA_restore: r24 (x24)
  DW_CFA_restore: r21 (x21)
  DW_CFA_restore: r22 (x22)
  DW_CFA_restore: r19 (x19)
  DW_CFA_restore: r20 (x20)
  DW_CFA_def_cfa_offset: 0
  DW_CFA_advance_loc: 4 to 0000000000019ff4
  DW_CFA_restore_state
  DW_CFA_advance_loc: 184 to 000000000001a0ac
  DW_CFA_remember_state
  DW_CFA_restore: r30 (x30)
  DW_CFA_restore: r29 (x29)
  DW_CFA_restore: r25 (x25)
  DW_CFA_restore: r26 (x26)
  DW_CFA_restore: r23 (x23)
  DW_CFA_restore: r24 (x24)
  DW_CFA_restore: r21 (x21)
  DW_CFA_restore: r22 (x22)
  DW_CFA_restore: r19 (x19)
  DW_CFA_restore: r20 (x20)
  DW_CFA_def_cfa_offset: 0
  DW_CFA_advance_loc: 4 to 000000000001a0b0
  DW_CFA_restore_state
  DW_CFA_advance_loc2: 1024 to 000000000001a4b0
  DW_CFA_remember_state
  DW_CFA_restore: r30 (x30)
  DW_CFA_restore: r29 (x29)
  DW_CFA_restore: r25 (x25)
  DW_CFA_restore: r26 (x26)
  DW_CFA_restore: r23 (x23)
  DW_CFA_restore: r24 (x24)
  DW_CFA_restore: r21 (x21)
  DW_CFA_restore: r22 (x22)
  DW_CFA_restore: r19 (x19)
  DW_CFA_restore: r20 (x20)
  DW_CFA_def_cfa_offset: 0
  DW_CFA_advance_loc: 4 to 000000000001a4b4
  DW_CFA_restore_state
  DW_CFA_advance_loc: 196 to 000000000001a578
  DW_CFA_remember_state
  DW_CFA_restore: r30 (x30)
  DW_CFA_restore: r29 (x29)
  DW_CFA_restore: r25 (x25)
  DW_CFA_restore: r26 (x26)
  DW_CFA_restore: r23 (x23)
  DW_CFA_restore: r24 (x24)
  DW_CFA_restore: r21 (x21)
  DW_CFA_restore: r22 (x22)
  DW_CFA_restore: r19 (x19)
  DW_CFA_restore: r20 (x20)
  DW_CFA_def_cfa_offset: 0
  DW_CFA_advance_loc: 4 to 000000000001a57c
  DW_CFA_restore_state
  DW_CFA_advance_loc: 116 to 000000000001a5f0
  DW_CFA_remember_state
  DW_CFA_restore: r30 (x30)
  DW_CFA_restore: r29 (x29)
  DW_CFA_restore: r25 (x25)
  DW_CFA_restore: r26 (x26)
  DW_CFA_restore: r23 (x23)
  DW_CFA_restore: r24 (x24)
  DW_CFA_restore: r21 (x21)
  DW_CFA_restore: r22 (x22)
  DW_CFA_restore: r19 (x19)
  DW_CFA_restore: r20 (x20)
  DW_CFA_def_cfa_offset: 0
  DW_CFA_advance_loc: 4 to 000000000001a5f4
  DW_CFA_restore_state
  DW_CFA_advance_loc: 112 to 000000000001a664
  DW_CFA_remember_state
  DW_CFA_restore: r30 (x30)
  DW_CFA_restore: r29 (x29)
  DW_CFA_restore: r25 (x25)
  DW_CFA_restore: r26 (x26)
  DW_CFA_restore: r23 (x23)
  DW_CFA_restore: r24 (x24)
  DW_CFA_restore: r21 (x21)
  DW_CFA_restore: r22 (x22)
  DW_CFA_restore: r19 (x19)
  DW_CFA_restore: r20 (x20)
  DW_CFA_def_cfa_offset: 0
  DW_CFA_advance_loc: 8 to 000000000001a66c
  DW_CFA_restore_state
  DW_CFA_advance_loc: 72 to 000000000001a6b4
  DW_CFA_remember_state
  DW_CFA_restore: r30 (x30)
  DW_CFA_restore: r29 (x29)
  DW_CFA_restore: r25 (x25)
  DW_CFA_restore: r26 (x26)
  DW_CFA_restore: r23 (x23)
  DW_CFA_restore: r24 (x24)
  DW_CFA_restore: r21 (x21)
  DW_CFA_restore: r22 (x22)
  DW_CFA_restore: r19 (x19)
  DW_CFA_restore: r20 (x20)
  DW_CFA_def_cfa_offset: 0
  DW_CFA_advance_loc: 8 to 000000000001a6bc
  DW_CFA_restore_state
  DW_CFA_advance_loc: 240 to 000000000001a7ac
  DW_CFA_remember_state
  DW_CFA_restore: r30 (x30)
  DW_CFA_restore: r29 (x29)
  DW_CFA_restore: r25 (x25)
  DW_CFA_restore: r26 (x26)
  DW_CFA_restore: r23 (x23)
  DW_CFA_restore: r24 (x24)
  DW_CFA_restore: r21 (x21)
  DW_CFA_restore: r22 (x22)
  DW_CFA_restore: r19 (x19)
  DW_CFA_restore: r20 (x20)
  DW_CFA_def_cfa_offset: 0
  DW_CFA_advance_loc: 20 to 000000000001a7c0
  DW_CFA_restore_state
  DW_CFA_advance_loc: 136 to 000000000001a848
  DW_CFA_remember_state
  DW_CFA_restore: r30 (x30)
  DW_CFA_restore: r29 (x29)
  DW_CFA_restore: r25 (x25)
  DW_CFA_restore: r26 (x26)
  DW_CFA_restore: r23 (x23)
  DW_CFA_restore: r24 (x24)
  DW_CFA_restore: r21 (x21)
  DW_CFA_restore: r22 (x22)
  DW_CFA_restore: r19 (x19)
  DW_CFA_restore: r20 (x20)
  DW_CFA_def_cfa_offset: 0
  DW_CFA_advance_loc: 4 to 000000000001a84c
  DW_CFA_restore_state
  DW_CFA_advance_loc: 28 to 000000000001a868
  DW_CFA_restore: r30 (x30)
  DW_CFA_restore: r29 (x29)
  DW_CFA_restore: r25 (x25)
  DW_CFA_restore: r26 (x26)
  DW_CFA_restore: r23 (x23)
  DW_CFA_restore: r24 (x24)
  DW_CFA_restore: r21 (x21)
  DW_CFA_restore: r22 (x22)
  DW_CFA_restore: r19 (x19)
  DW_CFA_restore: r20 (x20)
  DW_CFA_def_cfa_offset: 0
  DW_CFA_nop

00002f88 0000000000000074 00002f8c FDE cie=00000000 pc=000000000001a86c..000000000001ab08
  DW_CFA_advance_loc: 4 to 000000000001a870
  DW_CFA_def_cfa_offset: 64
  DW_CFA_offset: r29 (x29) at cfa-64
  DW_CFA_offset: r30 (x30) at cfa-56
  DW_CFA_advance_loc: 8 to 000000000001a878
  DW_CFA_offset: r19 (x19) at cfa-48
  DW_CFA_offset: r20 (x20) at cfa-40
  DW_CFA_advance_loc: 16 to 000000000001a888
  DW_CFA_offset: r21 (x21) at cfa-32
  DW_CFA_offset: r22 (x22) at cfa-24
  DW_CFA_advance_loc: 8 to 000000000001a890
  DW_CFA_offset: r23 (x23) at cfa-16
  DW_CFA_offset: r24 (x24) at cfa-8
  DW_CFA_advance_loc: 164 to 000000000001a934
  DW_CFA_remember_state
  DW_CFA_restore: r30 (x30)
  DW_CFA_restore: r29 (x29)
  DW_CFA_restore: r23 (x23)
  DW_CFA_restore: r24 (x24)
  DW_CFA_restore: r21 (x21)
  DW_CFA_restore: r22 (x22)
  DW_CFA_restore: r19 (x19)
  DW_CFA_restore: r20 (x20)
  DW_CFA_def_cfa_offset: 0
  DW_CFA_advance_loc: 4 to 000000000001a938
  DW_CFA_restore_state
  DW_CFA_advance_loc: 60 to 000000000001a974
  DW_CFA_remember_state
  DW_CFA_restore: r30 (x30)
  DW_CFA_restore: r29 (x29)
  DW_CFA_restore: r23 (x23)
  DW_CFA_restore: r24 (x24)
  DW_CFA_restore: r21 (x21)
  DW_CFA_restore: r22 (x22)
  DW_CFA_restore: r19 (x19)
  DW_CFA_restore: r20 (x20)
  DW_CFA_def_cfa_offset: 0
  DW_CFA_advance_loc: 12 to 000000000001a980
  DW_CFA_restore_state
  DW_CFA_advance_loc: 252 to 000000000001aa7c
  DW_CFA_remember_state
  DW_CFA_restore: r30 (x30)
  DW_CFA_restore: r29 (x29)
  DW_CFA_restore: r23 (x23)
  DW_CFA_restore: r24 (x24)
  DW_CFA_restore: r21 (x21)
  DW_CFA_restore: r22 (x22)
  DW_CFA_restore: r19 (x19)
  DW_CFA_restore: r20 (x20)
  DW_CFA_def_cfa_offset: 0
  DW_CFA_advance_loc: 4 to 000000000001aa80
  DW_CFA_restore_state
  DW_CFA_advance_loc: 36 to 000000000001aaa4
  DW_CFA_remember_state
  DW_CFA_restore: r30 (x30)
  DW_CFA_restore: r29 (x29)
  DW_CFA_restore: r23 (x23)
  DW_CFA_restore: r24 (x24)
  DW_CFA_restore: r21 (x21)
  DW_CFA_restore: r22 (x22)
  DW_CFA_restore: r19 (x19)
  DW_CFA_restore: r20 (x20)
  DW_CFA_def_cfa_offset: 0
  DW_CFA_advance_loc: 4 to 000000000001aaa8
  DW_CFA_restore_state
  DW_CFA_advance_loc: 64 to 000000000001aae8
  DW_CFA_remember_state
  DW_CFA_restore: r30 (x30)
  DW_CFA_restore: r29 (x29)
  DW_CFA_restore: r23 (x23)
  DW_CFA_restore: r24 (x24)
  DW_CFA_restore: r21 (x21)
  DW_CFA_restore: r22 (x22)
  DW_CFA_restore: r19 (x19)
  DW_CFA_restore: r20 (x20)
  DW_CFA_def_cfa_offset: 0
  DW_CFA_advance_loc: 4 to 000000000001aaec
  DW_CFA_restore_state
  DW_CFA_advance_loc: 24 to 000000000001ab04
  DW_CFA_restore: r30 (x30)
  DW_CFA_restore: r29 (x29)
  DW_CFA_restore: r23 (x23)
  DW_CFA_restore: r24 (x24)
  DW_CFA_restore: r21 (x21)
  DW_CFA_restore: r22 (x22)
  DW_CFA_restore: r19 (x19)
  DW_CFA_restore: r20 (x20)
  DW_CFA_def_cfa_offset: 0

00003000 0000000000000038 00003004 FDE cie=00000000 pc=000000000001ab08..000000000001ac2c
  DW_CFA_advance_loc: 4 to 000000000001ab0c
  DW_CFA_def_cfa_offset: 64
  DW_CFA_offset: r29 (x29) at cfa-64
  DW_CFA_offset: r30 (x30) at cfa-56
  DW_CFA_advance_loc: 8 to 000000000001ab14
  DW_CFA_offset: r19 (x19) at cfa-48
  DW_CFA_offset: r20 (x20) at cfa-40
  DW_CFA_advance_loc: 16 to 000000000001ab24
  DW_CFA_offset: r21 (x21) at cfa-32
  DW_CFA_offset: r22 (x22) at cfa-24
  DW_CFA_advance_loc: 12 to 000000000001ab30
  DW_CFA_offset: r23 (x23) at cfa-16
  DW_CFA_advance_loc: 228 to 000000000001ac14
  DW_CFA_remember_state
  DW_CFA_restore: r30 (x30)
  DW_CFA_restore: r29 (x29)
  DW_CFA_restore: r23 (x23)
  DW_CFA_restore: r21 (x21)
  DW_CFA_restore: r22 (x22)
  DW_CFA_restore: r19 (x19)
  DW_CFA_restore: r20 (x20)
  DW_CFA_def_cfa_offset: 0
  DW_CFA_advance_loc: 4 to 000000000001ac18
  DW_CFA_restore_state
  DW_CFA_advance_loc: 16 to 000000000001ac28
  DW_CFA_restore: r30 (x30)
  DW_CFA_restore: r29 (x29)
  DW_CFA_restore: r23 (x23)
  DW_CFA_restore: r21 (x21)
  DW_CFA_restore: r22 (x22)
  DW_CFA_restore: r19 (x19)
  DW_CFA_restore: r20 (x20)
  DW_CFA_def_cfa_offset: 0

0000303c 0000000000000024 00003040 FDE cie=00000000 pc=000000000001ac2c..000000000001ace0
  DW_CFA_advance_loc: 4 to 000000000001ac30
  DW_CFA_def_cfa_offset: 48
  DW_CFA_offset: r29 (x29) at cfa-48
  DW_CFA_offset: r30 (x30) at cfa-40
  DW_CFA_advance_loc: 8 to 000000000001ac38
  DW_CFA_offset: r19 (x19) at cfa-32
  DW_CFA_offset: r20 (x20) at cfa-24
  DW_CFA_advance_loc: 8 to 000000000001ac40
  DW_CFA_offset: r21 (x21) at cfa-16
  DW_CFA_advance_loc: 156 to 000000000001acdc
  DW_CFA_restore: r30 (x30)
  DW_CFA_restore: r29 (x29)
  DW_CFA_restore: r21 (x21)
  DW_CFA_restore: r19 (x19)
  DW_CFA_restore: r20 (x20)
  DW_CFA_def_cfa_offset: 0

00003064 0000000000000024 00003068 FDE cie=00000000 pc=000000000001ace0..000000000001ad94
  DW_CFA_advance_loc: 4 to 000000000001ace4
  DW_CFA_def_cfa_offset: 48
  DW_CFA_offset: r29 (x29) at cfa-48
  DW_CFA_offset: r30 (x30) at cfa-40
  DW_CFA_advance_loc: 12 to 000000000001acf0
  DW_CFA_offset: r19 (x19) at cfa-32
  DW_CFA_offset: r20 (x20) at cfa-24
  DW_CFA_offset: r21 (x21) at cfa-16
  DW_CFA_advance_loc: 160 to 000000000001ad90
  DW_CFA_restore: r30 (x30)
  DW_CFA_restore: r29 (x29)
  DW_CFA_restore: r21 (x21)
  DW_CFA_restore: r19 (x19)
  DW_CFA_restore: r20 (x20)
  DW_CFA_def_cfa_offset: 0
  DW_CFA_nop

0000308c 0000000000000030 00003090 FDE cie=00000000 pc=000000000001ad94..000000000001ae6c
  DW_CFA_advance_loc: 4 to 000000000001ad98
  DW_CFA_def_cfa_offset: 64
  DW_CFA_offset: r29 (x29) at cfa-64
  DW_CFA_offset: r30 (x30) at cfa-56
  DW_CFA_advance_loc: 12 to 000000000001ada4
  DW_CFA_offset: r19 (x19) at cfa-48
  DW_CFA_offset: r20 (x20) at cfa-40
  DW_CFA_offset: r21 (x21) at cfa-32
  DW_CFA_offset: r22 (x22) at cfa-24
  DW_CFA_advance_loc: 12 to 000000000001adb0
  DW_CFA_offset: r23 (x23) at cfa-16
  DW_CFA_offset: r24 (x24) at cfa-8
  DW_CFA_advance_loc: 184 to 000000000001ae68
  DW_CFA_restore: r30 (x30)
  DW_CFA_restore: r29 (x29)
  DW_CFA_restore: r23 (x23)
  DW_CFA_restore: r24 (x24)
  DW_CFA_restore: r21 (x21)
  DW_CFA_restore: r22 (x22)
  DW_CFA_restore: r19 (x19)
  DW_CFA_restore: r20 (x20)
  DW_CFA_def_cfa_offset: 0
  DW_CFA_nop
  DW_CFA_nop
  DW_CFA_nop

000030c0 000000000000002c 000030c4 FDE cie=00000000 pc=000000000001ae6c..000000000001af30
  DW_CFA_advance_loc: 16 to 000000000001ae7c
  DW_CFA_def_cfa_offset: 64
  DW_CFA_offset: r29 (x29) at cfa-64
  DW_CFA_offset: r30 (x30) at cfa-56
  DW_CFA_advance_loc: 8 to 000000000001ae84
  DW_CFA_offset: r19 (x19) at cfa-48
  DW_CFA_offset: r20 (x20) at cfa-40
  DW_CFA_advance_loc: 16 to 000000000001ae94
  DW_CFA_offset: r21 (x21) at cfa-32
  DW_CFA_offset: r22 (x22) at cfa-24
  DW_CFA_offset: r23 (x23) at cfa-16
  DW_CFA_advance_loc: 144 to 000000000001af24
  DW_CFA_restore: r30 (x30)
  DW_CFA_restore: r29 (x29)
  DW_CFA_restore: r23 (x23)
  DW_CFA_restore: r21 (x21)
  DW_CFA_restore: r22 (x22)
  DW_CFA_restore: r19 (x19)
  DW_CFA_restore: r20 (x20)
  DW_CFA_def_cfa_offset: 0
  DW_CFA_nop
  DW_CFA_nop

000030f0 000000000000001c 000030f4 FDE cie=00000000 pc=000000000001af30..000000000001afac
  DW_CFA_advance_loc: 4 to 000000000001af34
  DW_CFA_def_cfa_offset: 16
  DW_CFA_offset: r29 (x29) at cfa-16
  DW_CFA_offset: r30 (x30) at cfa-8
  DW_CFA_advance_loc: 116 to 000000000001afa8
  DW_CFA_restore: r30 (x30)
  DW_CFA_restore: r29 (x29)
  DW_CFA_def_cfa_offset: 0
  DW_CFA_nop
  DW_CFA_nop
  DW_CFA_nop

00003110 0000000000000020 00003114 FDE cie=00000000 pc=000000000001afac..000000000001b048
  DW_CFA_advance_loc: 4 to 000000000001afb0
  DW_CFA_def_cfa_offset: 32
  DW_CFA_offset: r29 (x29) at cfa-32
  DW_CFA_offset: r30 (x30) at cfa-24
  DW_CFA_advance_loc: 8 to 000000000001afb8
  DW_CFA_offset: r19 (x19) at cfa-16
  DW_CFA_offset: r20 (x20) at cfa-8
  DW_CFA_advance_loc: 140 to 000000000001b044
  DW_CFA_restore: r30 (x30)
  DW_CFA_restore: r29 (x29)
  DW_CFA_restore: r19 (x19)
  DW_CFA_restore: r20 (x20)
  DW_CFA_def_cfa_offset: 0

00003134 000000000000001c 00003138 FDE cie=00000000 pc=000000000001b048..000000000001b0bc
  DW_CFA_advance_loc: 4 to 000000000001b04c
  DW_CFA_def_cfa_offset: 16
  DW_CFA_offset: r29 (x29) at cfa-16
  DW_CFA_offset: r30 (x30) at cfa-8
  DW_CFA_advance_loc: 108 to 000000000001b0b8
  DW_CFA_restore: r30 (x30)
  DW_CFA_restore: r29 (x29)
  DW_CFA_def_cfa_offset: 0
  DW_CFA_nop
  DW_CFA_nop
  DW_CFA_nop

00003154 0000000000000028 00003158 FDE cie=00000000 pc=000000000001b0bc..000000000001b1ac
  DW_CFA_advance_loc: 4 to 000000000001b0c0
  DW_CFA_def_cfa_offset: 48
  DW_CFA_offset: r29 (x29) at cfa-48
  DW_CFA_offset: r30 (x30) at cfa-40
  DW_CFA_advance_loc: 8 to 000000000001b0c8
  DW_CFA_offset: r19 (x19) at cfa-32
  DW_CFA_offset: r20 (x20) at cfa-24
  DW_CFA_advance_loc: 12 to 000000000001b0d4
  DW_CFA_offset: r21 (x21) at cfa-16
  DW_CFA_offset: r22 (x22) at cfa-8
  DW_CFA_advance_loc: 212 to 000000000001b1a8
  DW_CFA_restore: r30 (x30)
  DW_CFA_restore: r29 (x29)
  DW_CFA_restore: r21 (x21)
  DW_CFA_restore: r22 (x22)
  DW_CFA_restore: r19 (x19)
  DW_CFA_restore: r20 (x20)
  DW_CFA_def_cfa_offset: 0
  DW_CFA_nop

00003180 0000000000000028 00003184 FDE cie=00000000 pc=000000000001b1ac..000000000001b28c
  DW_CFA_advance_loc: 16 to 000000000001b1bc
  DW_CFA_def_cfa_offset: 48
  DW_CFA_offset: r29 (x29) at cfa-48
  DW_CFA_offset: r30 (x30) at cfa-40
  DW_CFA_advance_loc: 8 to 000000000001b1c4
  DW_CFA_offset: r19 (x19) at cfa-32
  DW_CFA_offset: r20 (x20) at cfa-24
  DW_CFA_advance_loc: 12 to 000000000001b1d0
  DW_CFA_offset: r21 (x21) at cfa-16
  DW_CFA_offset: r22 (x22) at cfa-8
  DW_CFA_advance_loc: 176 to 000000000001b280
  DW_CFA_restore: r30 (x30)
  DW_CFA_restore: r29 (x29)
  DW_CFA_restore: r21 (x21)
  DW_CFA_restore: r22 (x22)
  DW_CFA_restore: r19 (x19)
  DW_CFA_restore: r20 (x20)
  DW_CFA_def_cfa_offset: 0
  DW_CFA_nop

000031ac 0000000000000028 000031b0 FDE cie=00000000 pc=000000000001b28c..000000000001b348
  DW_CFA_advance_loc: 4 to 000000000001b290
  DW_CFA_def_cfa_offset: 48
  DW_CFA_offset: r29 (x29) at cfa-48
  DW_CFA_offset: r30 (x30) at cfa-40
  DW_CFA_advance_loc: 20 to 000000000001b2a4
  DW_CFA_offset: r19 (x19) at cfa-32
  DW_CFA_offset: r20 (x20) at cfa-24
  DW_CFA_offset: r21 (x21) at cfa-16
  DW_CFA_offset: r22 (x22) at cfa-8
  DW_CFA_advance_loc: 160 to 000000000001b344
  DW_CFA_restore: r30 (x30)
  DW_CFA_restore: r29 (x29)
  DW_CFA_restore: r21 (x21)
  DW_CFA_restore: r22 (x22)
  DW_CFA_restore: r19 (x19)
  DW_CFA_restore: r20 (x20)
  DW_CFA_def_cfa_offset: 0
  DW_CFA_nop
  DW_CFA_nop

000031d8 0000000000000028 000031dc FDE cie=00000000 pc=000000000001b348..000000000001b438
  DW_CFA_advance_loc: 4 to 000000000001b34c
  DW_CFA_def_cfa_offset: 48
  DW_CFA_offset: r29 (x29) at cfa-48
  DW_CFA_offset: r30 (x30) at cfa-40
  DW_CFA_advance_loc: 20 to 000000000001b360
  DW_CFA_offset: r19 (x19) at cfa-32
  DW_CFA_offset: r20 (x20) at cfa-24
  DW_CFA_offset: r21 (x21) at cfa-16
  DW_CFA_offset: r22 (x22) at cfa-8
  DW_CFA_advance_loc: 212 to 000000000001b434
  DW_CFA_restore: r30 (x30)
  DW_CFA_restore: r29 (x29)
  DW_CFA_restore: r21 (x21)
  DW_CFA_restore: r22 (x22)
  DW_CFA_restore: r19 (x19)
  DW_CFA_restore: r20 (x20)
  DW_CFA_def_cfa_offset: 0
  DW_CFA_nop
  DW_CFA_nop

00003204 0000000000000028 00003208 FDE cie=00000000 pc=000000000001b438..000000000001b52c
  DW_CFA_advance_loc: 4 to 000000000001b43c
  DW_CFA_def_cfa_offset: 48
  DW_CFA_offset: r29 (x29) at cfa-48
  DW_CFA_offset: r30 (x30) at cfa-40
  DW_CFA_advance_loc: 8 to 000000000001b444
  DW_CFA_offset: r21 (x21) at cfa-16
  DW_CFA_offset: r22 (x22) at cfa-8
  DW_CFA_advance_loc: 8 to 000000000001b44c
  DW_CFA_offset: r19 (x19) at cfa-32
  DW_CFA_offset: r20 (x20) at cfa-24
  DW_CFA_advance_loc: 220 to 000000000001b528
  DW_CFA_restore: r30 (x30)
  DW_CFA_restore: r29 (x29)
  DW_CFA_restore: r21 (x21)
  DW_CFA_restore: r22 (x22)
  DW_CFA_restore: r19 (x19)
  DW_CFA_restore: r20 (x20)
  DW_CFA_def_cfa_offset: 0
  DW_CFA_nop

00003230 0000000000000030 00003234 FDE cie=00000000 pc=000000000001b52c..000000000001b634
  DW_CFA_advance_loc: 4 to 000000000001b530
  DW_CFA_def_cfa_offset: 64
  DW_CFA_offset: r29 (x29) at cfa-64
  DW_CFA_offset: r30 (x30) at cfa-56
  DW_CFA_advance_loc: 8 to 000000000001b538
  DW_CFA_offset: r19 (x19) at cfa-48
  DW_CFA_offset: r20 (x20) at cfa-40
  DW_CFA_advance_loc: 12 to 000000000001b544
  DW_CFA_offset: r21 (x21) at cfa-32
  DW_CFA_offset: r22 (x22) at cfa-24
  DW_CFA_advance_loc: 16 to 000000000001b554
  DW_CFA_offset: r23 (x23) at cfa-16
  DW_CFA_offset: r24 (x24) at cfa-8
  DW_CFA_advance_loc: 220 to 000000000001b630
  DW_CFA_restore: r30 (x30)
  DW_CFA_restore: r29 (x29)
  DW_CFA_restore: r23 (x23)
  DW_CFA_restore: r24 (x24)
  DW_CFA_restore: r21 (x21)
  DW_CFA_restore: r22 (x22)
  DW_CFA_restore: r19 (x19)
  DW_CFA_restore: r20 (x20)
  DW_CFA_def_cfa_offset: 0
  DW_CFA_nop
  DW_CFA_nop

00003264 0000000000000024 00003268 FDE cie=00000000 pc=000000000001b634..000000000001b680
  DW_CFA_advance_loc: 4 to 000000000001b638
  DW_CFA_def_cfa_offset: 48
  DW_CFA_offset: r29 (x29) at cfa-48
  DW_CFA_offset: r30 (x30) at cfa-40
  DW_CFA_advance_loc: 8 to 000000000001b640
  DW_CFA_offset: r19 (x19) at cfa-32
  DW_CFA_offset: r20 (x20) at cfa-24
  DW_CFA_advance_loc: 8 to 000000000001b648
  DW_CFA_offset: r21 (x21) at cfa-16
  DW_CFA_advance_loc: 52 to 000000000001b67c
  DW_CFA_restore: r30 (x30)
  DW_CFA_restore: r29 (x29)
  DW_CFA_restore: r21 (x21)
  DW_CFA_restore: r19 (x19)
  DW_CFA_restore: r20 (x20)
  DW_CFA_def_cfa_offset: 0

0000328c 0000000000000020 00003290 FDE cie=00000000 pc=000000000001b680..000000000001b6cc
  DW_CFA_advance_loc: 12 to 000000000001b68c
  DW_CFA_def_cfa_offset: 32
  DW_CFA_offset: r29 (x29) at cfa-32
  DW_CFA_offset: r30 (x30) at cfa-24
  DW_CFA_advance_loc: 12 to 000000000001b698
  DW_CFA_offset: r19 (x19) at cfa-16
  DW_CFA_offset: r20 (x20) at cfa-8
  DW_CFA_advance_loc: 48 to 000000000001b6c8
  DW_CFA_restore: r30 (x30)
  DW_CFA_restore: r29 (x29)
  DW_CFA_restore: r19 (x19)
  DW_CFA_restore: r20 (x20)
  DW_CFA_def_cfa_offset: 0

000032b0 0000000000000024 000032b4 FDE cie=00000000 pc=000000000001b6cc..000000000001b728
  DW_CFA_advance_loc: 12 to 000000000001b6d8
  DW_CFA_def_cfa_offset: 48
  DW_CFA_offset: r29 (x29) at cfa-48
  DW_CFA_offset: r30 (x30) at cfa-40
  DW_CFA_advance_loc: 8 to 000000000001b6e0
  DW_CFA_offset: r21 (x21) at cfa-16
  DW_CFA_advance_loc: 12 to 000000000001b6ec
  DW_CFA_offset: r19 (x19) at cfa-32
  DW_CFA_offset: r20 (x20) at cfa-24
  DW_CFA_advance_loc: 56 to 000000000001b724
  DW_CFA_restore: r30 (x30)
  DW_CFA_restore: r29 (x29)
  DW_CFA_restore: r21 (x21)
  DW_CFA_restore: r19 (x19)
  DW_CFA_restore: r20 (x20)
  DW_CFA_def_cfa_offset: 0

000032d8 0000000000000028 000032dc FDE cie=00000000 pc=000000000001b728..000000000001b7d0
  DW_CFA_advance_loc: 4 to 000000000001b72c
  DW_CFA_def_cfa_offset: 48
  DW_CFA_offset: r29 (x29) at cfa-48
  DW_CFA_offset: r30 (x30) at cfa-40
  DW_CFA_advance_loc: 8 to 000000000001b734
  DW_CFA_offset: r19 (x19) at cfa-32
  DW_CFA_offset: r20 (x20) at cfa-24
  DW_CFA_advance_loc: 8 to 000000000001b73c
  DW_CFA_offset: r21 (x21) at cfa-16
  DW_CFA_offset: r22 (x22) at cfa-8
  DW_CFA_advance_loc: 144 to 000000000001b7cc
  DW_CFA_restore: r30 (x30)
  DW_CFA_restore: r29 (x29)
  DW_CFA_restore: r21 (x21)
  DW_CFA_restore: r22 (x22)
  DW_CFA_restore: r19 (x19)
  DW_CFA_restore: r20 (x20)
  DW_CFA_def_cfa_offset: 0
  DW_CFA_nop

00003304 0000000000000024 00003308 FDE cie=00000000 pc=000000000001b7d0..000000000001b8b0
  DW_CFA_advance_loc: 4 to 000000000001b7d4
  DW_CFA_def_cfa_offset: 48
  DW_CFA_offset: r29 (x29) at cfa-48
  DW_CFA_offset: r30 (x30) at cfa-40
  DW_CFA_advance_loc: 12 to 000000000001b7e0
  DW_CFA_offset: r19 (x19) at cfa-32
  DW_CFA_offset: r20 (x20) at cfa-24
  DW_CFA_advance_loc: 12 to 000000000001b7ec
  DW_CFA_offset: r21 (x21) at cfa-16
  DW_CFA_advance_loc: 192 to 000000000001b8ac
  DW_CFA_restore: r30 (x30)
  DW_CFA_restore: r29 (x29)
  DW_CFA_restore: r21 (x21)
  DW_CFA_restore: r19 (x19)
  DW_CFA_restore: r20 (x20)
  DW_CFA_def_cfa_offset: 0

0000332c 0000000000000038 00003330 FDE cie=00000000 pc=000000000001b8b0..000000000001b9ec
  DW_CFA_advance_loc: 4 to 000000000001b8b4
  DW_CFA_def_cfa_offset: 64
  DW_CFA_offset: r29 (x29) at cfa-64
  DW_CFA_offset: r30 (x30) at cfa-56
  DW_CFA_advance_loc: 12 to 000000000001b8c0
  DW_CFA_offset: r19 (x19) at cfa-48
  DW_CFA_offset: r20 (x20) at cfa-40
  DW_CFA_advance_loc: 8 to 000000000001b8c8
  DW_CFA_offset: r23 (x23) at cfa-16
  DW_CFA_advance_loc: 16 to 000000000001b8d8
  DW_CFA_offset: r21 (x21) at cfa-32
  DW_CFA_offset: r22 (x22) at cfa-24
  DW_CFA_advance_loc: 248 to 000000000001b9d0
  DW_CFA_remember_state
  DW_CFA_restore: r30 (x30)
  DW_CFA_restore: r29 (x29)
  DW_CFA_restore: r23 (x23)
  DW_CFA_restore: r21 (x21)
  DW_CFA_restore: r22 (x22)
  DW_CFA_restore: r19 (x19)
  DW_CFA_restore: r20 (x20)
  DW_CFA_def_cfa_offset: 0
  DW_CFA_advance_loc: 4 to 000000000001b9d4
  DW_CFA_restore_state
  DW_CFA_advance_loc: 20 to 000000000001b9e8
  DW_CFA_restore: r30 (x30)
  DW_CFA_restore: r29 (x29)
  DW_CFA_restore: r23 (x23)
  DW_CFA_restore: r21 (x21)
  DW_CFA_restore: r22 (x22)
  DW_CFA_restore: r19 (x19)
  DW_CFA_restore: r20 (x20)
  DW_CFA_def_cfa_offset: 0

00003368 0000000000000040 0000336c FDE cie=00000000 pc=000000000001b9ec..000000000001bec8
  DW_CFA_advance_loc: 4 to 000000000001b9f0
  DW_CFA_def_cfa_offset: 128
  DW_CFA_offset: r29 (x29) at cfa-128
  DW_CFA_offset: r30 (x30) at cfa-120
  DW_CFA_advance_loc: 8 to 000000000001b9f8
  DW_CFA_offset: r23 (x23) at cfa-80
  DW_CFA_offset: r24 (x24) at cfa-72
  DW_CFA_advance_loc: 12 to 000000000001ba04
  DW_CFA_offset: r21 (x21) at cfa-96
  DW_CFA_offset: r22 (x22) at cfa-88
  DW_CFA_advance_loc: 20 to 000000000001ba18
  DW_CFA_offset: r19 (x19) at cfa-112
  DW_CFA_offset: r20 (x20) at cfa-104
  DW_CFA_offset: r25 (x25) at cfa-64
  DW_CFA_offset: r26 (x26) at cfa-56
  DW_CFA_offset: r27 (x27) at cfa-48
  DW_CFA_offset: r28 (x28) at cfa-40
  DW_CFA_advance_loc2: 1196 to 000000000001bec4
  DW_CFA_restore: r30 (x30)
  DW_CFA_restore: r29 (x29)
  DW_CFA_restore: r27 (x27)
  DW_CFA_restore: r28 (x28)
  DW_CFA_restore: r25 (x25)
  DW_CFA_restore: r26 (x26)
  DW_CFA_restore: r23 (x23)
  DW_CFA_restore: r24 (x24)
  DW_CFA_restore: r21 (x21)
  DW_CFA_restore: r22 (x22)
  DW_CFA_restore: r19 (x19)
  DW_CFA_restore: r20 (x20)
  DW_CFA_def_cfa_offset: 0
  DW_CFA_nop
  DW_CFA_nop
  DW_CFA_nop

000033ac 0000000000000010 000033b0 FDE cie=00000000 pc=000000000001bec8..000000000001bed0
  DW_CFA_nop
  DW_CFA_nop
  DW_CFA_nop

000033c0 0000000000000010 000033c4 FDE cie=00000000 pc=000000000001bed0..000000000001bed8
  DW_CFA_nop
  DW_CFA_nop
  DW_CFA_nop

000033d4 000000000000003c 000033d8 FDE cie=00000000 pc=000000000001bed8..000000000001c360
  DW_CFA_advance_loc: 4 to 000000000001bedc
  DW_CFA_def_cfa_offset: 128
  DW_CFA_offset: r29 (x29) at cfa-128
  DW_CFA_offset: r30 (x30) at cfa-120
  DW_CFA_advance_loc: 8 to 000000000001bee4
  DW_CFA_offset: r19 (x19) at cfa-112
  DW_CFA_offset: r20 (x20) at cfa-104
  DW_CFA_advance_loc: 28 to 000000000001bf00
  DW_CFA_offset: r21 (x21) at cfa-96
  DW_CFA_offset: r22 (x22) at cfa-88
  DW_CFA_offset: r23 (x23) at cfa-80
  DW_CFA_offset: r24 (x24) at cfa-72
  DW_CFA_offset: r25 (x25) at cfa-64
  DW_CFA_offset: r26 (x26) at cfa-56
  DW_CFA_offset: r27 (x27) at cfa-48
  DW_CFA_offset: r28 (x28) at cfa-40
  DW_CFA_advance_loc2: 1116 to 000000000001c35c
  DW_CFA_restore: r30 (x30)
  DW_CFA_restore: r29 (x29)
  DW_CFA_restore: r27 (x27)
  DW_CFA_restore: r28 (x28)
  DW_CFA_restore: r25 (x25)
  DW_CFA_restore: r26 (x26)
  DW_CFA_restore: r23 (x23)
  DW_CFA_restore: r24 (x24)
  DW_CFA_restore: r21 (x21)
  DW_CFA_restore: r22 (x22)
  DW_CFA_restore: r19 (x19)
  DW_CFA_restore: r20 (x20)
  DW_CFA_def_cfa_offset: 0

00003414 000000000000003c 00003418 FDE cie=00000000 pc=000000000001c360..000000000001c71c
  DW_CFA_advance_loc: 4 to 000000000001c364
  DW_CFA_def_cfa_offset: 128
  DW_CFA_offset: r29 (x29) at cfa-128
  DW_CFA_offset: r30 (x30) at cfa-120
  DW_CFA_advance_loc: 8 to 000000000001c36c
  DW_CFA_offset: r21 (x21) at cfa-96
  DW_CFA_offset: r22 (x22) at cfa-88
  DW_CFA_advance_loc: 8 to 000000000001c374
  DW_CFA_offset: r19 (x19) at cfa-112
  DW_CFA_offset: r20 (x20) at cfa-104
  DW_CFA_advance_loc: 16 to 000000000001c384
  DW_CFA_offset: r23 (x23) at cfa-80
  DW_CFA_offset: r24 (x24) at cfa-72
  DW_CFA_offset: r25 (x25) at cfa-64
  DW_CFA_offset: r26 (x26) at cfa-56
  DW_CFA_offset: r27 (x27) at cfa-48
  DW_CFA_offset: r28 (x28) at cfa-40
  DW_CFA_advance_loc1: 916 to 000000000001c718
  DW_CFA_restore: r30 (x30)
  DW_CFA_restore: r29 (x29)
  DW_CFA_restore: r27 (x27)
  DW_CFA_restore: r28 (x28)
  DW_CFA_restore: r25 (x25)
  DW_CFA_restore: r26 (x26)
  DW_CFA_restore: r23 (x23)
  DW_CFA_restore: r24 (x24)
  DW_CFA_restore: r21 (x21)
  DW_CFA_restore: r22 (x22)
  DW_CFA_restore: r19 (x19)
  DW_CFA_restore: r20 (x20)
  DW_CFA_def_cfa_offset: 0

00003454 0000000000000040 00003458 FDE cie=00000000 pc=000000000001c71c..000000000001d788
  DW_CFA_advance_loc: 4 to 000000000001c720
  DW_CFA_def_cfa_offset: 560
  DW_CFA_advance_loc: 12 to 000000000001c72c
  DW_CFA_offset: r29 (x29) at cfa-496
  DW_CFA_offset: r30 (x30) at cfa-488
  DW_CFA_advance_loc: 12 to 000000000001c738
  DW_CFA_offset: r19 (x19) at cfa-480
  DW_CFA_offset: r20 (x20) at cfa-472
  DW_CFA_advance_loc: 28 to 000000000001c754
  DW_CFA_offset: r21 (x21) at cfa-464
  DW_CFA_offset: r22 (x22) at cfa-456
  DW_CFA_offset: r23 (x23) at cfa-448
  DW_CFA_offset: r24 (x24) at cfa-440
  DW_CFA_offset: r25 (x25) at cfa-432
  DW_CFA_offset: r26 (x26) at cfa-424
  DW_CFA_offset: r27 (x27) at cfa-416
  DW_CFA_offset: r28 (x28) at cfa-408
  DW_CFA_advance_loc2: 4144 to 000000000001d784
  DW_CFA_restore: r29 (x29)
  DW_CFA_restore: r30 (x30)
  DW_CFA_restore: r27 (x27)
  DW_CFA_restore: r28 (x28)
  DW_CFA_restore: r25 (x25)
  DW_CFA_restore: r26 (x26)
  DW_CFA_restore: r23 (x23)
  DW_CFA_restore: r24 (x24)
  DW_CFA_restore: r21 (x21)
  DW_CFA_restore: r22 (x22)
  DW_CFA_restore: r19 (x19)
  DW_CFA_restore: r20 (x20)
  DW_CFA_def_cfa_offset: 0
  DW_CFA_nop
  DW_CFA_nop
  DW_CFA_nop

00003498 0000000000000040 0000349c FDE cie=00000000 pc=000000000001d788..000000000001decc
  DW_CFA_advance_loc: 4 to 000000000001d78c
  DW_CFA_def_cfa_offset: 160
  DW_CFA_offset: r29 (x29) at cfa-160
  DW_CFA_offset: r30 (x30) at cfa-152
  DW_CFA_advance_loc: 12 to 000000000001d798
  DW_CFA_offset: r21 (x21) at cfa-128
  DW_CFA_offset: r22 (x22) at cfa-120
  DW_CFA_advance_loc: 8 to 000000000001d7a0
  DW_CFA_offset: r19 (x19) at cfa-144
  DW_CFA_offset: r20 (x20) at cfa-136
  DW_CFA_advance_loc: 16 to 000000000001d7b0
  DW_CFA_offset: r23 (x23) at cfa-112
  DW_CFA_offset: r24 (x24) at cfa-104
  DW_CFA_offset: r25 (x25) at cfa-96
  DW_CFA_offset: r26 (x26) at cfa-88
  DW_CFA_offset: r27 (x27) at cfa-80
  DW_CFA_offset: r28 (x28) at cfa-72
  DW_CFA_advance_loc2: 1816 to 000000000001dec8
  DW_CFA_restore: r30 (x30)
  DW_CFA_restore: r29 (x29)
  DW_CFA_restore: r27 (x27)
  DW_CFA_restore: r28 (x28)
  DW_CFA_restore: r25 (x25)
  DW_CFA_restore: r26 (x26)
  DW_CFA_restore: r23 (x23)
  DW_CFA_restore: r24 (x24)
  DW_CFA_restore: r21 (x21)
  DW_CFA_restore: r22 (x22)
  DW_CFA_restore: r19 (x19)
  DW_CFA_restore: r20 (x20)
  DW_CFA_def_cfa_offset: 0
  DW_CFA_nop
  DW_CFA_nop
  DW_CFA_nop

000034dc 0000000000000030 000034e0 FDE cie=00000000 pc=000000000001decc..000000000001e218
  DW_CFA_advance_loc: 4 to 000000000001ded0
  DW_CFA_def_cfa_offset: 80
  DW_CFA_offset: r29 (x29) at cfa-80
  DW_CFA_offset: r30 (x30) at cfa-72
  DW_CFA_advance_loc: 20 to 000000000001dee4
  DW_CFA_offset: r19 (x19) at cfa-64
  DW_CFA_offset: r20 (x20) at cfa-56
  DW_CFA_advance_loc: 12 to 000000000001def0
  DW_CFA_offset: r21 (x21) at cfa-48
  DW_CFA_offset: r22 (x22) at cfa-40
  DW_CFA_offset: r23 (x23) at cfa-32
  DW_CFA_offset: r24 (x24) at cfa-24
  DW_CFA_advance_loc1: 804 to 000000000001e214
  DW_CFA_restore: r30 (x30)
  DW_CFA_restore: r29 (x29)
  DW_CFA_restore: r23 (x23)
  DW_CFA_restore: r24 (x24)
  DW_CFA_restore: r21 (x21)
  DW_CFA_restore: r22 (x22)
  DW_CFA_restore: r19 (x19)
  DW_CFA_restore: r20 (x20)
  DW_CFA_def_cfa_offset: 0
  DW_CFA_nop
  DW_CFA_nop

00003510 0000000000000010 00003514 FDE cie=00000000 pc=000000000001e218..000000000001e258
  DW_CFA_nop
  DW_CFA_nop
  DW_CFA_nop

00003524 0000000000000010 00003528 FDE cie=00000000 pc=000000000001e258..000000000001e2d4
  DW_CFA_nop
  DW_CFA_nop
  DW_CFA_nop

00003538 0000000000000010 0000353c FDE cie=00000000 pc=000000000001e2d4..000000000001e32c
  DW_CFA_nop
  DW_CFA_nop
  DW_CFA_nop

0000354c 0000000000000020 00003550 FDE cie=00000000 pc=000000000001e32c..000000000001e378
  DW_CFA_advance_loc: 12 to 000000000001e338
  DW_CFA_def_cfa_offset: 32
  DW_CFA_offset: r29 (x29) at cfa-32
  DW_CFA_offset: r30 (x30) at cfa-24
  DW_CFA_advance_loc: 12 to 000000000001e344
  DW_CFA_offset: r19 (x19) at cfa-16
  DW_CFA_offset: r20 (x20) at cfa-8
  DW_CFA_advance_loc: 48 to 000000000001e374
  DW_CFA_restore: r30 (x30)
  DW_CFA_restore: r29 (x29)
  DW_CFA_restore: r19 (x19)
  DW_CFA_restore: r20 (x20)
  DW_CFA_def_cfa_offset: 0

00003570 0000000000000024 00003574 FDE cie=00000000 pc=000000000001e378..000000000001e3f0
  DW_CFA_advance_loc: 4 to 000000000001e37c
  DW_CFA_def_cfa_offset: 48
  DW_CFA_offset: r29 (x29) at cfa-48
  DW_CFA_offset: r30 (x30) at cfa-40
  DW_CFA_advance_loc: 8 to 000000000001e384
  DW_CFA_offset: r19 (x19) at cfa-32
  DW_CFA_offset: r20 (x20) at cfa-24
  DW_CFA_advance_loc: 20 to 000000000001e398
  DW_CFA_offset: r21 (x21) at cfa-16
  DW_CFA_advance_loc: 84 to 000000000001e3ec
  DW_CFA_restore: r30 (x30)
  DW_CFA_restore: r29 (x29)
  DW_CFA_restore: r21 (x21)
  DW_CFA_restore: r19 (x19)
  DW_CFA_restore: r20 (x20)
  DW_CFA_def_cfa_offset: 0

00003598 000000000000003c 0000359c FDE cie=00000000 pc=000000000001e3f0..000000000001e494
  DW_CFA_advance_loc: 4 to 000000000001e3f4
  DW_CFA_def_cfa_offset: 64
  DW_CFA_offset: r29 (x29) at cfa-64
  DW_CFA_offset: r30 (x30) at cfa-56
  DW_CFA_advance_loc: 8 to 000000000001e3fc
  DW_CFA_offset: r23 (x23) at cfa-16
  DW_CFA_offset: r24 (x24) at cfa-8
  DW_CFA_advance_loc: 12 to 000000000001e408
  DW_CFA_offset: r19 (x19) at cfa-48
  DW_CFA_offset: r20 (x20) at cfa-40
  DW_CFA_advance_loc: 8 to 000000000001e410
  DW_CFA_offset: r21 (x21) at cfa-32
  DW_CFA_offset: r22 (x22) at cfa-24
  DW_CFA_advance_loc: 64 to 000000000001e450
  DW_CFA_remember_state
  DW_CFA_restore: r30 (x30)
  DW_CFA_restore: r29 (x29)
  DW_CFA_restore: r23 (x23)
  DW_CFA_restore: r24 (x24)
  DW_CFA_restore: r21 (x21)
  DW_CFA_restore: r22 (x22)
  DW_CFA_restore: r19 (x19)
  DW_CFA_restore: r20 (x20)
  DW_CFA_def_cfa_offset: 0
  DW_CFA_advance_loc: 4 to 000000000001e454
  DW_CFA_restore_state
  DW_CFA_advance_loc: 60 to 000000000001e490
  DW_CFA_restore: r30 (x30)
  DW_CFA_restore: r29 (x29)
  DW_CFA_restore: r23 (x23)
  DW_CFA_restore: r24 (x24)
  DW_CFA_restore: r21 (x21)
  DW_CFA_restore: r22 (x22)
  DW_CFA_restore: r19 (x19)
  DW_CFA_restore: r20 (x20)
  DW_CFA_def_cfa_offset: 0

000035d8 0000000000000028 000035dc FDE cie=00000000 pc=000000000001e494..000000000001e5b4
  DW_CFA_advance_loc: 4 to 000000000001e498
  DW_CFA_def_cfa_offset: 48
  DW_CFA_offset: r29 (x29) at cfa-48
  DW_CFA_offset: r30 (x30) at cfa-40
  DW_CFA_advance_loc: 8 to 000000000001e4a0
  DW_CFA_offset: r19 (x19) at cfa-32
  DW_CFA_offset: r20 (x20) at cfa-24
  DW_CFA_advance_loc: 8 to 000000000001e4a8
  DW_CFA_offset: r21 (x21) at cfa-16
  DW_CFA_advance_loc1: 264 to 000000000001e5b0
  DW_CFA_restore: r30 (x30)
  DW_CFA_restore: r29 (x29)
  DW_CFA_restore: r21 (x21)
  DW_CFA_restore: r19 (x19)
  DW_CFA_restore: r20 (x20)
  DW_CFA_def_cfa_offset: 0
  DW_CFA_nop
  DW_CFA_nop
  DW_CFA_nop

00003604 0000000000000028 00003608 FDE cie=00000000 pc=000000000001e5b4..000000000001e670
  DW_CFA_advance_loc: 4 to 000000000001e5b8
  DW_CFA_def_cfa_offset: 48
  DW_CFA_offset: r29 (x29) at cfa-48
  DW_CFA_offset: r30 (x30) at cfa-40
  DW_CFA_advance_loc: 8 to 000000000001e5c0
  DW_CFA_offset: r21 (x21) at cfa-16
  DW_CFA_offset: r22 (x22) at cfa-8
  DW_CFA_advance_loc: 8 to 000000000001e5c8
  DW_CFA_offset: r19 (x19) at cfa-32
  DW_CFA_offset: r20 (x20) at cfa-24
  DW_CFA_advance_loc: 164 to 000000000001e66c
  DW_CFA_restore: r30 (x30)
  DW_CFA_restore: r29 (x29)
  DW_CFA_restore: r21 (x21)
  DW_CFA_restore: r22 (x22)
  DW_CFA_restore: r19 (x19)
  DW_CFA_restore: r20 (x20)
  DW_CFA_def_cfa_offset: 0
  DW_CFA_nop

00003630 0000000000000024 00003634 FDE cie=00000000 pc=000000000001e670..000000000001e738
  DW_CFA_advance_loc: 4 to 000000000001e674
  DW_CFA_def_cfa_offset: 48
  DW_CFA_offset: r29 (x29) at cfa-48
  DW_CFA_offset: r30 (x30) at cfa-40
  DW_CFA_advance_loc: 8 to 000000000001e67c
  DW_CFA_offset: r19 (x19) at cfa-32
  DW_CFA_offset: r20 (x20) at cfa-24
  DW_CFA_advance_loc: 12 to 000000000001e688
  DW_CFA_offset: r21 (x21) at cfa-16
  DW_CFA_advance_loc: 172 to 000000000001e734
  DW_CFA_restore: r30 (x30)
  DW_CFA_restore: r29 (x29)
  DW_CFA_restore: r21 (x21)
  DW_CFA_restore: r19 (x19)
  DW_CFA_restore: r20 (x20)
  DW_CFA_def_cfa_offset: 0

00003658 000000000000003c 0000365c FDE cie=00000000 pc=000000000001e738..000000000001e8b4
  DW_CFA_advance_loc: 4 to 000000000001e73c
  DW_CFA_def_cfa_offset: 48
  DW_CFA_offset: r29 (x29) at cfa-48
  DW_CFA_offset: r30 (x30) at cfa-40
  DW_CFA_advance_loc: 16 to 000000000001e74c
  DW_CFA_offset: r19 (x19) at cfa-32
  DW_CFA_offset: r20 (x20) at cfa-24
  DW_CFA_advance_loc: 12 to 000000000001e758
  DW_CFA_offset: r21 (x21) at cfa-16
  DW_CFA_advance_loc: 184 to 000000000001e810
  DW_CFA_remember_state
  DW_CFA_restore: r30 (x30)
  DW_CFA_restore: r29 (x29)
  DW_CFA_restore: r21 (x21)
  DW_CFA_restore: r19 (x19)
  DW_CFA_restore: r20 (x20)
  DW_CFA_def_cfa_offset: 0
  DW_CFA_advance_loc: 12 to 000000000001e81c
  DW_CFA_restore_state
  DW_CFA_advance_loc: 60 to 000000000001e858
  DW_CFA_remember_state
  DW_CFA_restore: r30 (x30)
  DW_CFA_restore: r29 (x29)
  DW_CFA_restore: r21 (x21)
  DW_CFA_restore: r19 (x19)
  DW_CFA_restore: r20 (x20)
  DW_CFA_def_cfa_offset: 0
  DW_CFA_advance_loc: 12 to 000000000001e864
  DW_CFA_restore_state
  DW_CFA_advance_loc: 76 to 000000000001e8b0
  DW_CFA_restore: r30 (x30)
  DW_CFA_restore: r29 (x29)
  DW_CFA_restore: r21 (x21)
  DW_CFA_restore: r19 (x19)
  DW_CFA_restore: r20 (x20)
  DW_CFA_def_cfa_offset: 0
  DW_CFA_nop
  DW_CFA_nop

00003698 0000000000000024 0000369c FDE cie=00000000 pc=000000000001e8b4..000000000001e920
  DW_CFA_advance_loc: 4 to 000000000001e8b8
  DW_CFA_def_cfa_offset: 48
  DW_CFA_offset: r29 (x29) at cfa-48
  DW_CFA_offset: r30 (x30) at cfa-40
  DW_CFA_advance_loc: 8 to 000000000001e8c0
  DW_CFA_offset: r19 (x19) at cfa-32
  DW_CFA_offset: r20 (x20) at cfa-24
  DW_CFA_advance_loc: 12 to 000000000001e8cc
  DW_CFA_offset: r21 (x21) at cfa-16
  DW_CFA_advance_loc: 80 to 000000000001e91c
  DW_CFA_restore: r30 (x30)
  DW_CFA_restore: r29 (x29)
  DW_CFA_restore: r21 (x21)
  DW_CFA_restore: r19 (x19)
  DW_CFA_restore: r20 (x20)
  DW_CFA_def_cfa_offset: 0

000036c0 0000000000000028 000036c4 FDE cie=00000000 pc=000000000001e920..000000000001e9c8
  DW_CFA_advance_loc: 12 to 000000000001e92c
  DW_CFA_def_cfa_offset: 48
  DW_CFA_offset: r29 (x29) at cfa-48
  DW_CFA_offset: r30 (x30) at cfa-40
  DW_CFA_advance_loc: 8 to 000000000001e934
  DW_CFA_offset: r19 (x19) at cfa-32
  DW_CFA_offset: r20 (x20) at cfa-24
  DW_CFA_advance_loc: 8 to 000000000001e93c
  DW_CFA_offset: r21 (x21) at cfa-16
  DW_CFA_offset: r22 (x22) at cfa-8
  DW_CFA_advance_loc: 136 to 000000000001e9c4
  DW_CFA_restore: r30 (x30)
  DW_CFA_restore: r29 (x29)
  DW_CFA_restore: r21 (x21)
  DW_CFA_restore: r22 (x22)
  DW_CFA_restore: r19 (x19)
  DW_CFA_restore: r20 (x20)
  DW_CFA_def_cfa_offset: 0
  DW_CFA_nop

000036ec 0000000000000024 000036f0 FDE cie=00000000 pc=000000000001e9c8..000000000001ea54
  DW_CFA_advance_loc: 4 to 000000000001e9cc
  DW_CFA_def_cfa_offset: 176
  DW_CFA_offset: r29 (x29) at cfa-176
  DW_CFA_offset: r30 (x30) at cfa-168
  DW_CFA_advance_loc: 16 to 000000000001e9dc
  DW_CFA_offset: r19 (x19) at cfa-160
  DW_CFA_offset: r20 (x20) at cfa-152
  DW_CFA_advance_loc: 116 to 000000000001ea50
  DW_CFA_restore: r30 (x30)
  DW_CFA_restore: r29 (x29)
  DW_CFA_restore: r19 (x19)
  DW_CFA_restore: r20 (x20)
  DW_CFA_def_cfa_offset: 0
  DW_CFA_nop
  DW_CFA_nop
  DW_CFA_nop

00003714 0000000000000020 00003718 FDE cie=00000000 pc=000000000001ea54..000000000001eaa8
  DW_CFA_advance_loc: 4 to 000000000001ea58
  DW_CFA_def_cfa_offset: 32
  DW_CFA_offset: r29 (x29) at cfa-32
  DW_CFA_offset: r30 (x30) at cfa-24
  DW_CFA_advance_loc: 16 to 000000000001ea68
  DW_CFA_offset: r19 (x19) at cfa-16
  DW_CFA_advance_loc: 52 to 000000000001ea9c
  DW_CFA_restore: r30 (x30)
  DW_CFA_restore: r29 (x29)
  DW_CFA_restore: r19 (x19)
  DW_CFA_def_cfa_offset: 0
  DW_CFA_nop
  DW_CFA_nop
  DW_CFA_nop

00003738 000000000000002c 0000373c FDE cie=00000000 pc=000000000001eaa8..000000000001eb2c
  DW_CFA_advance_loc: 4 to 000000000001eaac
  DW_CFA_def_cfa_offset: 64
  DW_CFA_offset: r29 (x29) at cfa-64
  DW_CFA_offset: r30 (x30) at cfa-56
  DW_CFA_advance_loc: 8 to 000000000001eab4
  DW_CFA_offset: r19 (x19) at cfa-48
  DW_CFA_offset: r20 (x20) at cfa-40
  DW_CFA_advance_loc: 8 to 000000000001eabc
  DW_CFA_offset: r21 (x21) at cfa-32
  DW_CFA_offset: r22 (x22) at cfa-24
  DW_CFA_advance_loc: 16 to 000000000001eacc
  DW_CFA_offset: r23 (x23) at cfa-16
  DW_CFA_advance_loc: 92 to 000000000001eb28
  DW_CFA_restore: r30 (x30)
  DW_CFA_restore: r29 (x29)
  DW_CFA_restore: r23 (x23)
  DW_CFA_restore: r21 (x21)
  DW_CFA_restore: r22 (x22)
  DW_CFA_restore: r19 (x19)
  DW_CFA_restore: r20 (x20)
  DW_CFA_def_cfa_offset: 0
  DW_CFA_nop

00003768 0000000000000020 0000376c FDE cie=00000000 pc=000000000001eb2c..000000000001eb5c
  DW_CFA_advance_loc: 4 to 000000000001eb30
  DW_CFA_def_cfa_offset: 32
  DW_CFA_offset: r29 (x29) at cfa-32
  DW_CFA_offset: r30 (x30) at cfa-24
  DW_CFA_advance_loc: 8 to 000000000001eb38
  DW_CFA_offset: r19 (x19) at cfa-16
  DW_CFA_offset: r20 (x20) at cfa-8
  DW_CFA_advance_loc: 32 to 000000000001eb58
  DW_CFA_restore: r30 (x30)
  DW_CFA_restore: r29 (x29)
  DW_CFA_restore: r19 (x19)
  DW_CFA_restore: r20 (x20)
  DW_CFA_def_cfa_offset: 0

0000378c 0000000000000020 00003790 FDE cie=00000000 pc=000000000001eb5c..000000000001eba0
  DW_CFA_advance_loc: 8 to 000000000001eb64
  DW_CFA_def_cfa_offset: 32
  DW_CFA_offset: r29 (x29) at cfa-32
  DW_CFA_offset: r30 (x30) at cfa-24
  DW_CFA_advance_loc: 12 to 000000000001eb70
  DW_CFA_offset: r19 (x19) at cfa-16
  DW_CFA_advance_loc: 36 to 000000000001eb94
  DW_CFA_restore: r30 (x30)
  DW_CFA_restore: r29 (x29)
  DW_CFA_restore: r19 (x19)
  DW_CFA_def_cfa_offset: 0
  DW_CFA_nop
  DW_CFA_nop
  DW_CFA_nop

000037b0 0000000000000020 000037b4 FDE cie=00000000 pc=000000000001eba0..000000000001ebe4
  DW_CFA_advance_loc: 8 to 000000000001eba8
  DW_CFA_def_cfa_offset: 32
  DW_CFA_offset: r29 (x29) at cfa-32
  DW_CFA_offset: r30 (x30) at cfa-24
  DW_CFA_advance_loc: 12 to 000000000001ebb4
  DW_CFA_offset: r19 (x19) at cfa-16
  DW_CFA_advance_loc: 36 to 000000000001ebd8
  DW_CFA_restore: r30 (x30)
  DW_CFA_restore: r29 (x29)
  DW_CFA_restore: r19 (x19)
  DW_CFA_def_cfa_offset: 0
  DW_CFA_nop
  DW_CFA_nop
  DW_CFA_nop

000037d4 000000000000002c 000037d8 FDE cie=00000000 pc=000000000001ebe4..000000000001ec64
  DW_CFA_advance_loc: 4 to 000000000001ebe8
  DW_CFA_def_cfa_offset: 64
  DW_CFA_offset: r29 (x29) at cfa-64
  DW_CFA_offset: r30 (x30) at cfa-56
  DW_CFA_advance_loc: 16 to 000000000001ebf8
  DW_CFA_offset: r19 (x19) at cfa-48
  DW_CFA_offset: r20 (x20) at cfa-40
  DW_CFA_offset: r21 (x21) at cfa-32
  DW_CFA_offset: r22 (x22) at cfa-24
  DW_CFA_offset: r23 (x23) at cfa-16
  DW_CFA_advance_loc: 104 to 000000000001ec60
  DW_CFA_restore: r30 (x30)
  DW_CFA_restore: r29 (x29)
  DW_CFA_restore: r23 (x23)
  DW_CFA_restore: r21 (x21)
  DW_CFA_restore: r22 (x22)
  DW_CFA_restore: r19 (x19)
  DW_CFA_restore: r20 (x20)
  DW_CFA_def_cfa_offset: 0
  DW_CFA_nop
  DW_CFA_nop
  DW_CFA_nop

00003804 0000000000000024 00003808 FDE cie=00000000 pc=000000000001ec64..000000000001ecc8
  DW_CFA_advance_loc: 4 to 000000000001ec68
  DW_CFA_def_cfa_offset: 48
  DW_CFA_offset: r29 (x29) at cfa-48
  DW_CFA_offset: r30 (x30) at cfa-40
  DW_CFA_advance_loc: 20 to 000000000001ec7c
  DW_CFA_offset: r19 (x19) at cfa-32
  DW_CFA_offset: r20 (x20) at cfa-24
  DW_CFA_offset: r21 (x21) at cfa-16
  DW_CFA_advance_loc: 72 to 000000000001ecc4
  DW_CFA_restore: r30 (x30)
  DW_CFA_restore: r29 (x29)
  DW_CFA_restore: r21 (x21)
  DW_CFA_restore: r19 (x19)
  DW_CFA_restore: r20 (x20)
  DW_CFA_def_cfa_offset: 0
  DW_CFA_nop

0000382c 000000000000002c 00003830 FDE cie=00000000 pc=000000000001ecc8..000000000001ed54
  DW_CFA_advance_loc: 4 to 000000000001eccc
  DW_CFA_def_cfa_offset: 64
  DW_CFA_offset: r29 (x29) at cfa-64
  DW_CFA_offset: r30 (x30) at cfa-56
  DW_CFA_advance_loc: 24 to 000000000001ece4
  DW_CFA_offset: r19 (x19) at cfa-48
  DW_CFA_offset: r20 (x20) at cfa-40
  DW_CFA_offset: r21 (x21) at cfa-32
  DW_CFA_offset: r22 (x22) at cfa-24
  DW_CFA_offset: r23 (x23) at cfa-16
  DW_CFA_offset: r24 (x24) at cfa-8
  DW_CFA_advance_loc: 108 to 000000000001ed50
  DW_CFA_restore: r30 (x30)
  DW_CFA_restore: r29 (x29)
  DW_CFA_restore: r23 (x23)
  DW_CFA_restore: r24 (x24)
  DW_CFA_restore: r21 (x21)
  DW_CFA_restore: r22 (x22)
  DW_CFA_restore: r19 (x19)
  DW_CFA_restore: r20 (x20)
  DW_CFA_def_cfa_offset: 0

0000385c 0000000000000020 00003860 FDE cie=00000000 pc=000000000001ed54..000000000001ed98
  DW_CFA_advance_loc: 8 to 000000000001ed5c
  DW_CFA_def_cfa_offset: 32
  DW_CFA_offset: r29 (x29) at cfa-32
  DW_CFA_offset: r30 (x30) at cfa-24
  DW_CFA_advance_loc: 12 to 000000000001ed68
  DW_CFA_offset: r19 (x19) at cfa-16
  DW_CFA_advance_loc: 36 to 000000000001ed8c
  DW_CFA_restore: r30 (x30)
  DW_CFA_restore: r29 (x29)
  DW_CFA_restore: r19 (x19)
  DW_CFA_def_cfa_offset: 0
  DW_CFA_nop
  DW_CFA_nop
  DW_CFA_nop

00003880 0000000000000028 00003884 FDE cie=00000000 pc=000000000001ed98..000000000001ee08
  DW_CFA_advance_loc: 4 to 000000000001ed9c
  DW_CFA_def_cfa_offset: 48
  DW_CFA_offset: r29 (x29) at cfa-48
  DW_CFA_offset: r30 (x30) at cfa-40
  DW_CFA_advance_loc: 12 to 000000000001eda8
  DW_CFA_offset: r19 (x19) at cfa-32
  DW_CFA_offset: r20 (x20) at cfa-24
  DW_CFA_offset: r21 (x21) at cfa-16
  DW_CFA_offset: r22 (x22) at cfa-8
  DW_CFA_advance_loc: 92 to 000000000001ee04
  DW_CFA_restore: r30 (x30)
  DW_CFA_restore: r29 (x29)
  DW_CFA_restore: r21 (x21)
  DW_CFA_restore: r22 (x22)
  DW_CFA_restore: r19 (x19)
  DW_CFA_restore: r20 (x20)
  DW_CFA_def_cfa_offset: 0
  DW_CFA_nop
  DW_CFA_nop

000038ac 0000000000000020 000038b0 FDE cie=00000000 pc=000000000001ee08..000000000001ee58
  DW_CFA_advance_loc: 8 to 000000000001ee10
  DW_CFA_def_cfa_offset: 32
  DW_CFA_offset: r29 (x29) at cfa-32
  DW_CFA_offset: r30 (x30) at cfa-24
  DW_CFA_advance_loc: 8 to 000000000001ee18
  DW_CFA_offset: r19 (x19) at cfa-16
  DW_CFA_advance_loc: 52 to 000000000001ee4c
  DW_CFA_restore: r30 (x30)
  DW_CFA_restore: r29 (x29)
  DW_CFA_restore: r19 (x19)
  DW_CFA_def_cfa_offset: 0
  DW_CFA_nop
  DW_CFA_nop
  DW_CFA_nop

000038d0 0000000000000024 000038d4 FDE cie=00000000 pc=000000000001ee58..000000000001eea8
  DW_CFA_advance_loc: 4 to 000000000001ee5c
  DW_CFA_def_cfa_offset: 48
  DW_CFA_offset: r29 (x29) at cfa-48
  DW_CFA_offset: r30 (x30) at cfa-40
  DW_CFA_advance_loc: 8 to 000000000001ee64
  DW_CFA_offset: r19 (x19) at cfa-32
  DW_CFA_offset: r20 (x20) at cfa-24
  DW_CFA_advance_loc: 12 to 000000000001ee70
  DW_CFA_offset: r21 (x21) at cfa-16
  DW_CFA_advance_loc: 52 to 000000000001eea4
  DW_CFA_restore: r30 (x30)
  DW_CFA_restore: r29 (x29)
  DW_CFA_restore: r21 (x21)
  DW_CFA_restore: r19 (x19)
  DW_CFA_restore: r20 (x20)
  DW_CFA_def_cfa_offset: 0

000038f8 0000000000000020 000038fc FDE cie=00000000 pc=000000000001eea8..000000000001eef4
  DW_CFA_advance_loc: 4 to 000000000001eeac
  DW_CFA_def_cfa_offset: 32
  DW_CFA_offset: r29 (x29) at cfa-32
  DW_CFA_offset: r30 (x30) at cfa-24
  DW_CFA_advance_loc: 16 to 000000000001eebc
  DW_CFA_offset: r19 (x19) at cfa-16
  DW_CFA_offset: r20 (x20) at cfa-8
  DW_CFA_advance_loc: 52 to 000000000001eef0
  DW_CFA_restore: r30 (x30)
  DW_CFA_restore: r29 (x29)
  DW_CFA_restore: r19 (x19)
  DW_CFA_restore: r20 (x20)
  DW_CFA_def_cfa_offset: 0

0000391c 0000000000000010 00003920 FDE cie=00000000 pc=000000000001eef4..000000000001ef00
  DW_CFA_nop
  DW_CFA_nop
  DW_CFA_nop

00003930 0000000000000020 00003934 FDE cie=00000000 pc=000000000001ef00..000000000001ef34
  DW_CFA_advance_loc: 4 to 000000000001ef04
  DW_CFA_def_cfa_offset: 32
  DW_CFA_offset: r29 (x29) at cfa-32
  DW_CFA_offset: r30 (x30) at cfa-24
  DW_CFA_advance_loc: 16 to 000000000001ef14
  DW_CFA_offset: r19 (x19) at cfa-16
  DW_CFA_advance_loc: 28 to 000000000001ef30
  DW_CFA_restore: r30 (x30)
  DW_CFA_restore: r29 (x29)
  DW_CFA_restore: r19 (x19)
  DW_CFA_def_cfa_offset: 0
  DW_CFA_nop
  DW_CFA_nop
  DW_CFA_nop

00003954 0000000000000010 00003958 FDE cie=00000000 pc=000000000001ef34..000000000001ef40
  DW_CFA_nop
  DW_CFA_nop
  DW_CFA_nop

00003968 0000000000000024 0000396c FDE cie=00000000 pc=000000000001ef40..000000000001ef90
  DW_CFA_advance_loc: 4 to 000000000001ef44
  DW_CFA_def_cfa_offset: 48
  DW_CFA_offset: r29 (x29) at cfa-48
  DW_CFA_offset: r30 (x30) at cfa-40
  DW_CFA_advance_loc: 8 to 000000000001ef4c
  DW_CFA_offset: r19 (x19) at cfa-32
  DW_CFA_offset: r20 (x20) at cfa-24
  DW_CFA_advance_loc: 12 to 000000000001ef58
  DW_CFA_offset: r21 (x21) at cfa-16
  DW_CFA_advance_loc: 52 to 000000000001ef8c
  DW_CFA_restore: r30 (x30)
  DW_CFA_restore: r29 (x29)
  DW_CFA_restore: r21 (x21)
  DW_CFA_restore: r19 (x19)
  DW_CFA_restore: r20 (x20)
  DW_CFA_def_cfa_offset: 0

00003990 000000000000002c 00003994 FDE cie=00000000 pc=000000000001ef90..000000000001f400
  DW_CFA_advance_loc: 4 to 000000000001ef94
  DW_CFA_def_cfa_offset: 32
  DW_CFA_offset: r29 (x29) at cfa-32
  DW_CFA_offset: r30 (x30) at cfa-24
  DW_CFA_advance_loc: 8 to 000000000001ef9c
  DW_CFA_offset: r19 (x19) at cfa-16
  DW_CFA_offset: r20 (x20) at cfa-8
  DW_CFA_advance_loc2: 1104 to 000000000001f3ec
  DW_CFA_remember_state
  DW_CFA_restore: r30 (x30)
  DW_CFA_restore: r29 (x29)
  DW_CFA_restore: r19 (x19)
  DW_CFA_restore: r20 (x20)
  DW_CFA_def_cfa_offset: 0
  DW_CFA_advance_loc: 4 to 000000000001f3f0
  DW_CFA_restore_state
  DW_CFA_advance_loc: 12 to 000000000001f3fc
  DW_CFA_restore: r30 (x30)
  DW_CFA_restore: r29 (x29)
  DW_CFA_restore: r19 (x19)
  DW_CFA_restore: r20 (x20)
  DW_CFA_def_cfa_offset: 0

000039c0 0000000000000030 000039c4 FDE cie=00000000 pc=000000000001f400..000000000001f544
  DW_CFA_advance_loc: 4 to 000000000001f404
  DW_CFA_def_cfa_offset: 64
  DW_CFA_offset: r29 (x29) at cfa-64
  DW_CFA_offset: r30 (x30) at cfa-56
  DW_CFA_advance_loc: 8 to 000000000001f40c
  DW_CFA_offset: r19 (x19) at cfa-48
  DW_CFA_offset: r20 (x20) at cfa-40
  DW_CFA_advance_loc: 12 to 000000000001f418
  DW_CFA_offset: r21 (x21) at cfa-32
  DW_CFA_offset: r22 (x22) at cfa-24
  DW_CFA_advance_loc: 16 to 000000000001f428
  DW_CFA_offset: r23 (x23) at cfa-16
  DW_CFA_offset: r24 (x24) at cfa-8
  DW_CFA_advance_loc1: 280 to 000000000001f540
  DW_CFA_restore: r30 (x30)
  DW_CFA_restore: r29 (x29)
  DW_CFA_restore: r23 (x23)
  DW_CFA_restore: r24 (x24)
  DW_CFA_restore: r21 (x21)
  DW_CFA_restore: r22 (x22)
  DW_CFA_restore: r19 (x19)
  DW_CFA_restore: r20 (x20)
  DW_CFA_def_cfa_offset: 0
  DW_CFA_nop

000039f4 0000000000000098 000039f8 FDE cie=00000000 pc=000000000001f544..000000000001fba8
  DW_CFA_advance_loc: 4 to 000000000001f548
  DW_CFA_def_cfa_offset: 176
  DW_CFA_offset: r29 (x29) at cfa-176
  DW_CFA_offset: r30 (x30) at cfa-168
  DW_CFA_advance_loc: 12 to 000000000001f554
  DW_CFA_offset: r23 (x23) at cfa-128
  DW_CFA_offset: r24 (x24) at cfa-120
  DW_CFA_advance_loc: 16 to 000000000001f564
  DW_CFA_offset: r19 (x19) at cfa-160
  DW_CFA_offset: r20 (x20) at cfa-152
  DW_CFA_advance_loc: 28 to 000000000001f580
  DW_CFA_offset: r21 (x21) at cfa-144
  DW_CFA_offset: r22 (x22) at cfa-136
  DW_CFA_offset: r25 (x25) at cfa-112
  DW_CFA_offset: r26 (x26) at cfa-104
  DW_CFA_advance_loc: 8 to 000000000001f588
  DW_CFA_offset: r27 (x27) at cfa-96
  DW_CFA_offset: r28 (x28) at cfa-88
  DW_CFA_advance_loc: 132 to 000000000001f60c
  DW_CFA_remember_state
  DW_CFA_restore: r30 (x30)
  DW_CFA_restore: r29 (x29)
  DW_CFA_restore: r27 (x27)
  DW_CFA_restore: r28 (x28)
  DW_CFA_restore: r25 (x25)
  DW_CFA_restore: r26 (x26)
  DW_CFA_restore: r23 (x23)
  DW_CFA_restore: r24 (x24)
  DW_CFA_restore: r21 (x21)
  DW_CFA_restore: r22 (x22)
  DW_CFA_restore: r19 (x19)
  DW_CFA_restore: r20 (x20)
  DW_CFA_def_cfa_offset: 0
  DW_CFA_advance_loc: 4 to 000000000001f610
  DW_CFA_restore_state
  DW_CFA_advance_loc: 80 to 000000000001f660
  DW_CFA_remember_state
  DW_CFA_restore: r30 (x30)
  DW_CFA_restore: r29 (x29)
  DW_CFA_restore: r27 (x27)
  DW_CFA_restore: r28 (x28)
  DW_CFA_restore: r25 (x25)
  DW_CFA_restore: r26 (x26)
  DW_CFA_restore: r23 (x23)
  DW_CFA_restore: r24 (x24)
  DW_CFA_restore: r21 (x21)
  DW_CFA_restore: r22 (x22)
  DW_CFA_restore: r19 (x19)
  DW_CFA_restore: r20 (x20)
  DW_CFA_def_cfa_offset: 0
  DW_CFA_advance_loc: 4 to 000000000001f664
  DW_CFA_restore_state
  DW_CFA_advance_loc: 224 to 000000000001f744
  DW_CFA_remember_state
  DW_CFA_restore: r30 (x30)
  DW_CFA_restore: r29 (x29)
  DW_CFA_restore: r27 (x27)
  DW_CFA_restore: r28 (x28)
  DW_CFA_restore: r25 (x25)
  DW_CFA_restore: r26 (x26)
  DW_CFA_restore: r23 (x23)
  DW_CFA_restore: r24 (x24)
  DW_CFA_restore: r21 (x21)
  DW_CFA_restore: r22 (x22)
  DW_CFA_restore: r19 (x19)
  DW_CFA_restore: r20 (x20)
  DW_CFA_def_cfa_offset: 0
  DW_CFA_advance_loc: 4 to 000000000001f748
  DW_CFA_restore_state
  DW_CFA_advance_loc: 124 to 000000000001f7c4
  DW_CFA_remember_state
  DW_CFA_restore: r30 (x30)
  DW_CFA_restore: r29 (x29)
  DW_CFA_restore: r27 (x27)
  DW_CFA_restore: r28 (x28)
  DW_CFA_restore: r25 (x25)
  DW_CFA_restore: r26 (x26)
  DW_CFA_restore: r23 (x23)
  DW_CFA_restore: r24 (x24)
  DW_CFA_restore: r21 (x21)
  DW_CFA_restore: r22 (x22)
  DW_CFA_restore: r19 (x19)
  DW_CFA_restore: r20 (x20)
  DW_CFA_def_cfa_offset: 0
  DW_CFA_advance_loc: 4 to 000000000001f7c8
  DW_CFA_restore_state
  DW_CFA_advance_loc: 68 to 000000000001f80c
  DW_CFA_remember_state
  DW_CFA_restore: r30 (x30)
  DW_CFA_restore: r29 (x29)
  DW_CFA_restore: r27 (x27)
  DW_CFA_restore: r28 (x28)
  DW_CFA_restore: r25 (x25)
  DW_CFA_restore: r26 (x26)
  DW_CFA_restore: r23 (x23)
  DW_CFA_restore: r24 (x24)
  DW_CFA_restore: r21 (x21)
  DW_CFA_restore: r22 (x22)
  DW_CFA_restore: r19 (x19)
  DW_CFA_restore: r20 (x20)
  DW_CFA_def_cfa_offset: 0
  DW_CFA_advance_loc: 4 to 000000000001f810
  DW_CFA_restore_state
  DW_CFA_advance_loc1: 916 to 000000000001fba4
  DW_CFA_restore: r30 (x30)
  DW_CFA_restore: r29 (x29)
  DW_CFA_restore: r27 (x27)
  DW_CFA_restore: r28 (x28)
  DW_CFA_restore: r25 (x25)
  DW_CFA_restore: r26 (x26)
  DW_CFA_restore: r23 (x23)
  DW_CFA_restore: r24 (x24)
  DW_CFA_restore: r21 (x21)
  DW_CFA_restore: r22 (x22)
  DW_CFA_restore: r19 (x19)
  DW_CFA_restore: r20 (x20)
  DW_CFA_def_cfa_offset: 0
  DW_CFA_nop

00003a90 0000000000000060 00003a94 FDE cie=00000000 pc=000000000001fba8..000000000001fe5c
  DW_CFA_advance_loc: 4 to 000000000001fbac
  DW_CFA_def_cfa_offset: 256
  DW_CFA_offset: r29 (x29) at cfa-256
  DW_CFA_offset: r30 (x30) at cfa-248
  DW_CFA_advance_loc: 8 to 000000000001fbb4
  DW_CFA_offset: r21 (x21) at cfa-224
  DW_CFA_offset: r22 (x22) at cfa-216
  DW_CFA_advance_loc: 20 to 000000000001fbc8
  DW_CFA_offset: r19 (x19) at cfa-240
  DW_CFA_offset: r20 (x20) at cfa-232
  DW_CFA_advance_loc: 8 to 000000000001fbd0
  DW_CFA_offset: r23 (x23) at cfa-208
  DW_CFA_offset: r24 (x24) at cfa-200
  DW_CFA_advance_loc: 12 to 000000000001fbdc
  DW_CFA_offset: r25 (x25) at cfa-192
  DW_CFA_offset: r26 (x26) at cfa-184
  DW_CFA_advance_loc: 8 to 000000000001fbe4
  DW_CFA_offset: r27 (x27) at cfa-176
  DW_CFA_offset: r28 (x28) at cfa-168
  DW_CFA_advance_loc: 12 to 000000000001fbf0
  DW_CFA_offset_extended: r72 (v8) at cfa-160
  DW_CFA_offset_extended: r73 (v9) at cfa-152
  DW_CFA_advance_loc1: 576 to 000000000001fe30
  DW_CFA_remember_state
  DW_CFA_restore: r30 (x30)
  DW_CFA_restore: r29 (x29)
  DW_CFA_restore: r27 (x27)
  DW_CFA_restore: r28 (x28)
  DW_CFA_restore: r25 (x25)
  DW_CFA_restore: r26 (x26)
  DW_CFA_restore: r23 (x23)
  DW_CFA_restore: r24 (x24)
  DW_CFA_restore: r21 (x21)
  DW_CFA_restore: r22 (x22)
  DW_CFA_restore: r19 (x19)
  DW_CFA_restore: r20 (x20)
  DW_CFA_restore_extended: r72 (v8)
  DW_CFA_restore_extended: r73 (v9)
  DW_CFA_def_cfa_offset: 0
  DW_CFA_advance_loc: 4 to 000000000001fe34
  DW_CFA_restore_state
  DW_CFA_advance_loc: 36 to 000000000001fe58
  DW_CFA_restore: r30 (x30)
  DW_CFA_restore: r29 (x29)
  DW_CFA_restore: r27 (x27)
  DW_CFA_restore: r28 (x28)
  DW_CFA_restore: r25 (x25)
  DW_CFA_restore: r26 (x26)
  DW_CFA_restore: r23 (x23)
  DW_CFA_restore: r24 (x24)
  DW_CFA_restore: r21 (x21)
  DW_CFA_restore: r22 (x22)
  DW_CFA_restore: r19 (x19)
  DW_CFA_restore: r20 (x20)
  DW_CFA_restore_extended: r72 (v8)
  DW_CFA_restore_extended: r73 (v9)
  DW_CFA_def_cfa_offset: 0
  DW_CFA_nop

00003af4 0000000000000040 00003af8 FDE cie=00000000 pc=000000000001fe5c..00000000000203a8
  DW_CFA_advance_loc: 4 to 000000000001fe60
  DW_CFA_def_cfa_offset: 448
  DW_CFA_offset: r29 (x29) at cfa-448
  DW_CFA_offset: r30 (x30) at cfa-440
  DW_CFA_advance_loc: 16 to 000000000001fe70
  DW_CFA_offset: r19 (x19) at cfa-432
  DW_CFA_offset: r20 (x20) at cfa-424
  DW_CFA_advance_loc: 12 to 000000000001fe7c
  DW_CFA_offset: r21 (x21) at cfa-416
  DW_CFA_offset: r22 (x22) at cfa-408
  DW_CFA_advance_loc: 12 to 000000000001fe88
  DW_CFA_offset: r23 (x23) at cfa-400
  DW_CFA_offset: r24 (x24) at cfa-392
  DW_CFA_advance_loc: 8 to 000000000001fe90
  DW_CFA_offset: r25 (x25) at cfa-384
  DW_CFA_offset: r26 (x26) at cfa-376
  DW_CFA_advance_loc: 12 to 000000000001fe9c
  DW_CFA_offset: r27 (x27) at cfa-368
  DW_CFA_offset: r28 (x28) at cfa-360
  DW_CFA_advance_loc2: 1288 to 00000000000203a4
  DW_CFA_restore: r30 (x30)
  DW_CFA_restore: r29 (x29)
  DW_CFA_restore: r27 (x27)
  DW_CFA_restore: r28 (x28)
  DW_CFA_restore: r25 (x25)
  DW_CFA_restore: r26 (x26)
  DW_CFA_restore: r23 (x23)
  DW_CFA_restore: r24 (x24)
  DW_CFA_restore: r21 (x21)
  DW_CFA_restore: r22 (x22)
  DW_CFA_restore: r19 (x19)
  DW_CFA_restore: r20 (x20)
  DW_CFA_def_cfa_offset: 0
  DW_CFA_nop

00003b38 000000000000002c 00003b3c FDE cie=00000000 pc=00000000000203a8..0000000000020430
  DW_CFA_advance_loc: 4 to 00000000000203ac
  DW_CFA_def_cfa_offset: 64
  DW_CFA_offset: r29 (x29) at cfa-64
  DW_CFA_offset: r30 (x30) at cfa-56
  DW_CFA_advance_loc: 8 to 00000000000203b4
  DW_CFA_offset: r19 (x19) at cfa-48
  DW_CFA_offset: r20 (x20) at cfa-40
  DW_CFA_advance_loc: 12 to 00000000000203c0
  DW_CFA_offset: r21 (x21) at cfa-32
  DW_CFA_offset: r22 (x22) at cfa-24
  DW_CFA_advance_loc: 12 to 00000000000203cc
  DW_CFA_offset: r23 (x23) at cfa-16
  DW_CFA_advance_loc: 96 to 000000000002042c
  DW_CFA_restore: r30 (x30)
  DW_CFA_restore: r29 (x29)
  DW_CFA_restore: r23 (x23)
  DW_CFA_restore: r21 (x21)
  DW_CFA_restore: r22 (x22)
  DW_CFA_restore: r19 (x19)
  DW_CFA_restore: r20 (x20)
  DW_CFA_def_cfa_offset: 0
  DW_CFA_nop

00003b68 000000000000001c 00003b6c FDE cie=00000000 pc=0000000000020430..0000000000020488
  DW_CFA_advance_loc: 56 to 0000000000020468
  DW_CFA_def_cfa_offset: 16
  DW_CFA_offset: r29 (x29) at cfa-16
  DW_CFA_offset: r30 (x30) at cfa-8
  DW_CFA_advance_loc: 28 to 0000000000020484
  DW_CFA_restore: r30 (x30)
  DW_CFA_restore: r29 (x29)
  DW_CFA_def_cfa_offset: 0
  DW_CFA_nop
  DW_CFA_nop
  DW_CFA_nop

00003b88 0000000000000034 00003b8c FDE cie=00000000 pc=0000000000020488..0000000000020698
  DW_CFA_advance_loc: 4 to 000000000002048c
  DW_CFA_def_cfa_offset: 352
  DW_CFA_offset: r29 (x29) at cfa-352
  DW_CFA_offset: r30 (x30) at cfa-344
  DW_CFA_advance_loc: 16 to 000000000002049c
  DW_CFA_offset: r19 (x19) at cfa-336
  DW_CFA_offset: r20 (x20) at cfa-328
  DW_CFA_advance_loc: 12 to 00000000000204a8
  DW_CFA_offset: r21 (x21) at cfa-320
  DW_CFA_offset: r22 (x22) at cfa-312
  DW_CFA_offset: r23 (x23) at cfa-304
  DW_CFA_offset: r24 (x24) at cfa-296
  DW_CFA_advance_loc: 8 to 00000000000204b0
  DW_CFA_offset: r25 (x25) at cfa-288
  DW_CFA_advance_loc1: 484 to 0000000000020694
  DW_CFA_restore: r30 (x30)
  DW_CFA_restore: r29 (x29)
  DW_CFA_restore: r25 (x25)
  DW_CFA_restore: r23 (x23)
  DW_CFA_restore: r24 (x24)
  DW_CFA_restore: r21 (x21)
  DW_CFA_restore: r22 (x22)
  DW_CFA_restore: r19 (x19)
  DW_CFA_restore: r20 (x20)
  DW_CFA_def_cfa_offset: 0
  DW_CFA_nop

00003bc0 0000000000000024 00003bc4 FDE cie=00000000 pc=0000000000020698..00000000000207b0
  DW_CFA_advance_loc: 4 to 000000000002069c
  DW_CFA_def_cfa_offset: 64
  DW_CFA_offset: r29 (x29) at cfa-64
  DW_CFA_offset: r30 (x30) at cfa-56
  DW_CFA_advance_loc: 8 to 00000000000206a4
  DW_CFA_offset: r19 (x19) at cfa-48
  DW_CFA_offset: r20 (x20) at cfa-40
  DW_CFA_advance_loc1: 264 to 00000000000207ac
  DW_CFA_restore: r30 (x30)
  DW_CFA_restore: r29 (x29)
  DW_CFA_restore: r19 (x19)
  DW_CFA_restore: r20 (x20)
  DW_CFA_def_cfa_offset: 0
  DW_CFA_nop
  DW_CFA_nop
  DW_CFA_nop

00003be8 000000000000001c 00003bec FDE cie=00000000 pc=00000000000207b0..00000000000207f8
  DW_CFA_advance_loc: 8 to 00000000000207b8
  DW_CFA_def_cfa_offset: 16
  DW_CFA_offset: r29 (x29) at cfa-16
  DW_CFA_offset: r30 (x30) at cfa-8
  DW_CFA_advance_loc: 52 to 00000000000207ec
  DW_CFA_restore: r30 (x30)
  DW_CFA_restore: r29 (x29)
  DW_CFA_def_cfa_offset: 0
  DW_CFA_nop
  DW_CFA_nop
  DW_CFA_nop

00003c08 0000000000000040 00003c0c FDE cie=00000000 pc=00000000000207f8..0000000000020adc
  DW_CFA_advance_loc: 4 to 00000000000207fc
  DW_CFA_def_cfa_offset: 128
  DW_CFA_offset: r29 (x29) at cfa-128
  DW_CFA_offset: r30 (x30) at cfa-120
  DW_CFA_advance_loc: 8 to 0000000000020804
  DW_CFA_offset: r19 (x19) at cfa-112
  DW_CFA_offset: r20 (x20) at cfa-104
  DW_CFA_advance_loc: 8 to 000000000002080c
  DW_CFA_offset: r21 (x21) at cfa-96
  DW_CFA_offset: r22 (x22) at cfa-88
  DW_CFA_advance_loc: 12 to 0000000000020818
  DW_CFA_offset: r23 (x23) at cfa-80
  DW_CFA_offset: r24 (x24) at cfa-72
  DW_CFA_advance_loc: 20 to 000000000002082c
  DW_CFA_offset: r25 (x25) at cfa-64
  DW_CFA_offset: r26 (x26) at cfa-56
  DW_CFA_offset: r27 (x27) at cfa-48
  DW_CFA_offset: r28 (x28) at cfa-40
  DW_CFA_advance_loc1: 684 to 0000000000020ad8
  DW_CFA_restore: r30 (x30)
  DW_CFA_restore: r29 (x29)
  DW_CFA_restore: r27 (x27)
  DW_CFA_restore: r28 (x28)
  DW_CFA_restore: r25 (x25)
  DW_CFA_restore: r26 (x26)
  DW_CFA_restore: r23 (x23)
  DW_CFA_restore: r24 (x24)
  DW_CFA_restore: r21 (x21)
  DW_CFA_restore: r22 (x22)
  DW_CFA_restore: r19 (x19)
  DW_CFA_restore: r20 (x20)
  DW_CFA_def_cfa_offset: 0
  DW_CFA_nop
  DW_CFA_nop
  DW_CFA_nop

00003c4c 0000000000000048 00003c50 FDE cie=00000000 pc=0000000000020adc..0000000000021420
  DW_CFA_advance_loc: 4 to 0000000000020ae0
  DW_CFA_def_cfa_offset: 112
  DW_CFA_offset: r29 (x29) at cfa-112
  DW_CFA_offset: r30 (x30) at cfa-104
  DW_CFA_advance_loc: 16 to 0000000000020af0
  DW_CFA_offset: r19 (x19) at cfa-96
  DW_CFA_offset: r20 (x20) at cfa-88
  DW_CFA_advance_loc: 12 to 0000000000020afc
  DW_CFA_offset: r21 (x21) at cfa-80
  DW_CFA_offset: r22 (x22) at cfa-72
  DW_CFA_advance_loc: 12 to 0000000000020b08
  DW_CFA_offset: r23 (x23) at cfa-64
  DW_CFA_offset: r24 (x24) at cfa-56
  DW_CFA_offset: r25 (x25) at cfa-48
  DW_CFA_offset: r26 (x26) at cfa-40
  DW_CFA_advance_loc2: 1152 to 0000000000020f88
  DW_CFA_remember_state
  DW_CFA_restore: r30 (x30)
  DW_CFA_restore: r29 (x29)
  DW_CFA_restore: r25 (x25)
  DW_CFA_restore: r26 (x26)
  DW_CFA_restore: r23 (x23)
  DW_CFA_restore: r24 (x24)
  DW_CFA_restore: r21 (x21)
  DW_CFA_restore: r22 (x22)
  DW_CFA_restore: r19 (x19)
  DW_CFA_restore: r20 (x20)
  DW_CFA_def_cfa_offset: 0
  DW_CFA_advance_loc: 4 to 0000000000020f8c
  DW_CFA_restore_state
  DW_CFA_advance_loc2: 1168 to 000000000002141c
  DW_CFA_restore: r30 (x30)
  DW_CFA_restore: r29 (x29)
  DW_CFA_restore: r25 (x25)
  DW_CFA_restore: r26 (x26)
  DW_CFA_restore: r23 (x23)
  DW_CFA_restore: r24 (x24)
  DW_CFA_restore: r21 (x21)
  DW_CFA_restore: r22 (x22)
  DW_CFA_restore: r19 (x19)
  DW_CFA_restore: r20 (x20)
  DW_CFA_def_cfa_offset: 0

00003c98 0000000000000040 00003c9c FDE cie=00000000 pc=0000000000021420..000000000002186c
  DW_CFA_advance_loc: 4 to 0000000000021424
  DW_CFA_def_cfa_offset: 112
  DW_CFA_offset: r29 (x29) at cfa-112
  DW_CFA_offset: r30 (x30) at cfa-104
  DW_CFA_advance_loc: 8 to 000000000002142c
  DW_CFA_offset: r19 (x19) at cfa-96
  DW_CFA_offset: r20 (x20) at cfa-88
  DW_CFA_advance_loc: 16 to 000000000002143c
  DW_CFA_offset: r21 (x21) at cfa-80
  DW_CFA_offset: r22 (x22) at cfa-72
  DW_CFA_advance_loc: 12 to 0000000000021448
  DW_CFA_offset: r23 (x23) at cfa-64
  DW_CFA_offset: r24 (x24) at cfa-56
  DW_CFA_advance_loc: 12 to 0000000000021454
  DW_CFA_offset: r25 (x25) at cfa-48
  DW_CFA_offset: r26 (x26) at cfa-40
  DW_CFA_offset: r27 (x27) at cfa-32
  DW_CFA_offset: r28 (x28) at cfa-24
  DW_CFA_advance_loc2: 1044 to 0000000000021868
  DW_CFA_restore: r30 (x30)
  DW_CFA_restore: r29 (x29)
  DW_CFA_restore: r27 (x27)
  DW_CFA_restore: r28 (x28)
  DW_CFA_restore: r25 (x25)
  DW_CFA_restore: r26 (x26)
  DW_CFA_restore: r23 (x23)
  DW_CFA_restore: r24 (x24)
  DW_CFA_restore: r21 (x21)
  DW_CFA_restore: r22 (x22)
  DW_CFA_restore: r19 (x19)
  DW_CFA_restore: r20 (x20)
  DW_CFA_def_cfa_offset: 0
  DW_CFA_nop
  DW_CFA_nop
  DW_CFA_nop

00003cdc 0000000000000030 00003ce0 FDE cie=00000000 pc=000000000002186c..0000000000021970
  DW_CFA_advance_loc: 4 to 0000000000021870
  DW_CFA_def_cfa_offset: 80
  DW_CFA_offset: r29 (x29) at cfa-80
  DW_CFA_offset: r30 (x30) at cfa-72
  DW_CFA_advance_loc: 20 to 0000000000021884
  DW_CFA_offset: r19 (x19) at cfa-64
  DW_CFA_offset: r20 (x20) at cfa-56
  DW_CFA_advance_loc: 12 to 0000000000021890
  DW_CFA_offset: r21 (x21) at cfa-48
  DW_CFA_offset: r22 (x22) at cfa-40
  DW_CFA_advance_loc: 12 to 000000000002189c
  DW_CFA_offset: r23 (x23) at cfa-32
  DW_CFA_offset: r24 (x24) at cfa-24
  DW_CFA_advance_loc: 208 to 000000000002196c
  DW_CFA_restore: r30 (x30)
  DW_CFA_restore: r29 (x29)
  DW_CFA_restore: r23 (x23)
  DW_CFA_restore: r24 (x24)
  DW_CFA_restore: r21 (x21)
  DW_CFA_restore: r22 (x22)
  DW_CFA_restore: r19 (x19)
  DW_CFA_restore: r20 (x20)
  DW_CFA_def_cfa_offset: 0
  DW_CFA_nop
  DW_CFA_nop

00003d10 000000000000003c 00003d14 FDE cie=00000000 pc=0000000000021970..0000000000021b50
  DW_CFA_advance_loc: 4 to 0000000000021974
  DW_CFA_def_cfa_offset: 128
  DW_CFA_offset: r29 (x29) at cfa-128
  DW_CFA_offset: r30 (x30) at cfa-120
  DW_CFA_advance_loc: 16 to 0000000000021984
  DW_CFA_offset: r19 (x19) at cfa-112
  DW_CFA_offset: r20 (x20) at cfa-104
  DW_CFA_advance_loc: 16 to 0000000000021994
  DW_CFA_offset: r21 (x21) at cfa-96
  DW_CFA_offset: r22 (x22) at cfa-88
  DW_CFA_advance_loc: 20 to 00000000000219a8
  DW_CFA_offset: r23 (x23) at cfa-80
  DW_CFA_offset: r24 (x24) at cfa-72
  DW_CFA_offset: r25 (x25) at cfa-64
  DW_CFA_offset: r26 (x26) at cfa-56
  DW_CFA_offset: r27 (x27) at cfa-48
  DW_CFA_offset: r28 (x28) at cfa-40
  DW_CFA_advance_loc1: 420 to 0000000000021b4c
  DW_CFA_restore: r30 (x30)
  DW_CFA_restore: r29 (x29)
  DW_CFA_restore: r27 (x27)
  DW_CFA_restore: r28 (x28)
  DW_CFA_restore: r25 (x25)
  DW_CFA_restore: r26 (x26)
  DW_CFA_restore: r23 (x23)
  DW_CFA_restore: r24 (x24)
  DW_CFA_restore: r21 (x21)
  DW_CFA_restore: r22 (x22)
  DW_CFA_restore: r19 (x19)
  DW_CFA_restore: r20 (x20)
  DW_CFA_def_cfa_offset: 0

00003d50 0000000000000020 00003d54 FDE cie=00000000 pc=0000000000021b50..0000000000021c48
  DW_CFA_advance_loc: 4 to 0000000000021b54
  DW_CFA_def_cfa_offset: 48
  DW_CFA_offset: r29 (x29) at cfa-48
  DW_CFA_offset: r30 (x30) at cfa-40
  DW_CFA_advance_loc: 20 to 0000000000021b68
  DW_CFA_offset: r19 (x19) at cfa-32
  DW_CFA_offset: r20 (x20) at cfa-24
  DW_CFA_advance_loc: 220 to 0000000000021c44
  DW_CFA_restore: r30 (x30)
  DW_CFA_restore: r29 (x29)
  DW_CFA_restore: r19 (x19)
  DW_CFA_restore: r20 (x20)
  DW_CFA_def_cfa_offset: 0

00003d74 0000000000000078 00003d78 FDE cie=00000000 pc=0000000000021c48..000000000002235c
  DW_CFA_advance_loc: 4 to 0000000000021c4c
  DW_CFA_def_cfa_offset: 80
  DW_CFA_offset: r29 (x29) at cfa-80
  DW_CFA_offset: r30 (x30) at cfa-72
  DW_CFA_advance_loc: 16 to 0000000000021c5c
  DW_CFA_offset: r19 (x19) at cfa-64
  DW_CFA_offset: r20 (x20) at cfa-56
  DW_CFA_advance_loc: 8 to 0000000000021c64
  DW_CFA_offset: r21 (x21) at cfa-48
  DW_CFA_offset: r22 (x22) at cfa-40
  DW_CFA_advance_loc: 12 to 0000000000021c70
  DW_CFA_offset: r23 (x23) at cfa-32
  DW_CFA_offset: r24 (x24) at cfa-24
  DW_CFA_advance_loc1: 464 to 0000000000021e40
  DW_CFA_remember_state
  DW_CFA_restore: r30 (x30)
  DW_CFA_restore: r29 (x29)
  DW_CFA_restore: r23 (x23)
  DW_CFA_restore: r24 (x24)
  DW_CFA_restore: r21 (x21)
  DW_CFA_restore: r22 (x22)
  DW_CFA_restore: r19 (x19)
  DW_CFA_restore: r20 (x20)
  DW_CFA_def_cfa_offset: 0
  DW_CFA_advance_loc: 4 to 0000000000021e44
  DW_CFA_restore_state
  DW_CFA_advance_loc: 132 to 0000000000021ec8
  DW_CFA_remember_state
  DW_CFA_restore: r30 (x30)
  DW_CFA_restore: r29 (x29)
  DW_CFA_restore: r23 (x23)
  DW_CFA_restore: r24 (x24)
  DW_CFA_restore: r21 (x21)
  DW_CFA_restore: r22 (x22)
  DW_CFA_restore: r19 (x19)
  DW_CFA_restore: r20 (x20)
  DW_CFA_def_cfa_offset: 0
  DW_CFA_advance_loc: 4 to 0000000000021ecc
  DW_CFA_restore_state
  DW_CFA_advance_loc: 36 to 0000000000021ef0
  DW_CFA_remember_state
  DW_CFA_restore: r30 (x30)
  DW_CFA_restore: r29 (x29)
  DW_CFA_restore: r23 (x23)
  DW_CFA_restore: r24 (x24)
  DW_CFA_restore: r21 (x21)
  DW_CFA_restore: r22 (x22)
  DW_CFA_restore: r19 (x19)
  DW_CFA_restore: r20 (x20)
  DW_CFA_def_cfa_offset: 0
  DW_CFA_advance_loc: 4 to 0000000000021ef4
  DW_CFA_restore_state
  DW_CFA_advance_loc: 36 to 0000000000021f18
  DW_CFA_remember_state
  DW_CFA_restore: r30 (x30)
  DW_CFA_restore: r29 (x29)
  DW_CFA_restore: r23 (x23)
  DW_CFA_restore: r24 (x24)
  DW_CFA_restore: r21 (x21)
  DW_CFA_restore: r22 (x22)
  DW_CFA_restore: r19 (x19)
  DW_CFA_restore: r20 (x20)
  DW_CFA_def_cfa_offset: 0
  DW_CFA_advance_loc: 4 to 0000000000021f1c
  DW_CFA_restore_state
  DW_CFA_advance_loc: 36 to 0000000000021f40
  DW_CFA_remember_state
  DW_CFA_restore: r30 (x30)
  DW_CFA_restore: r29 (x29)
  DW_CFA_restore: r23 (x23)
  DW_CFA_restore: r24 (x24)
  DW_CFA_restore: r21 (x21)
  DW_CFA_restore: r22 (x22)
  DW_CFA_restore: r19 (x19)
  DW_CFA_restore: r20 (x20)
  DW_CFA_def_cfa_offset: 0
  DW_CFA_advance_loc: 4 to 0000000000021f44
  DW_CFA_restore_state
  DW_CFA_advance_loc2: 1044 to 0000000000022358
  DW_CFA_restore: r30 (x30)
  DW_CFA_restore: r29 (x29)
  DW_CFA_restore: r23 (x23)
  DW_CFA_restore: r24 (x24)
  DW_CFA_restore: r21 (x21)
  DW_CFA_restore: r22 (x22)
  DW_CFA_restore: r19 (x19)
  DW_CFA_restore: r20 (x20)
  DW_CFA_def_cfa_offset: 0
  DW_CFA_nop

00003df0 0000000000000040 00003df4 FDE cie=00000000 pc=000000000002235c..00000000000224c8
  DW_CFA_advance_loc: 4 to 0000000000022360
  DW_CFA_def_cfa_offset: 128
  DW_CFA_offset: r29 (x29) at cfa-128
  DW_CFA_offset: r30 (x30) at cfa-120
  DW_CFA_advance_loc: 16 to 0000000000022370
  DW_CFA_offset: r19 (x19) at cfa-112
  DW_CFA_offset: r20 (x20) at cfa-104
  DW_CFA_advance_loc: 8 to 0000000000022378
  DW_CFA_offset: r21 (x21) at cfa-96
  DW_CFA_offset: r22 (x22) at cfa-88
  DW_CFA_advance_loc: 12 to 0000000000022384
  DW_CFA_offset: r23 (x23) at cfa-80
  DW_CFA_offset: r24 (x24) at cfa-72
  DW_CFA_advance_loc: 8 to 000000000002238c
  DW_CFA_offset: r25 (x25) at cfa-64
  DW_CFA_offset: r26 (x26) at cfa-56
  DW_CFA_advance_loc: 8 to 0000000000022394
  DW_CFA_offset: r27 (x27) at cfa-48
  DW_CFA_offset: r28 (x28) at cfa-40
  DW_CFA_advance_loc1: 304 to 00000000000224c4
  DW_CFA_restore: r30 (x30)
  DW_CFA_restore: r29 (x29)
  DW_CFA_restore: r27 (x27)
  DW_CFA_restore: r28 (x28)
  DW_CFA_restore: r25 (x25)
  DW_CFA_restore: r26 (x26)
  DW_CFA_restore: r23 (x23)
  DW_CFA_restore: r24 (x24)
  DW_CFA_restore: r21 (x21)
  DW_CFA_restore: r22 (x22)
  DW_CFA_restore: r19 (x19)
  DW_CFA_restore: r20 (x20)
  DW_CFA_def_cfa_offset: 0
  DW_CFA_nop
  DW_CFA_nop

00003e34 0000000000000048 00003e38 FDE cie=00000000 pc=00000000000224c8..0000000000024d64
  DW_CFA_advance_loc: 4 to 00000000000224cc
  DW_CFA_def_cfa_offset: 480
  DW_CFA_offset: r29 (x29) at cfa-480
  DW_CFA_offset: r30 (x30) at cfa-472
  DW_CFA_advance_loc: 20 to 00000000000224e0
  DW_CFA_offset: r19 (x19) at cfa-464
  DW_CFA_offset: r20 (x20) at cfa-456
  DW_CFA_offset: r21 (x21) at cfa-448
  DW_CFA_offset: r22 (x22) at cfa-440
  DW_CFA_advance_loc: 12 to 00000000000224ec
  DW_CFA_offset: r23 (x23) at cfa-432
  DW_CFA_offset: r24 (x24) at cfa-424
  DW_CFA_offset: r25 (x25) at cfa-416
  DW_CFA_offset: r26 (x26) at cfa-408
  DW_CFA_advance_loc: 8 to 00000000000224f4
  DW_CFA_offset: r27 (x27) at cfa-400
  DW_CFA_offset: r28 (x28) at cfa-392
  DW_CFA_advance_loc: 8 to 00000000000224fc
  DW_CFA_offset_extended: r72 (v8) at cfa-384
  DW_CFA_offset_extended: r73 (v9) at cfa-376
  DW_CFA_advance_loc2: 10340 to 0000000000024d60
  DW_CFA_restore: r30 (x30)
  DW_CFA_restore: r29 (x29)
  DW_CFA_restore: r27 (x27)
  DW_CFA_restore: r28 (x28)
  DW_CFA_restore: r25 (x25)
  DW_CFA_restore: r26 (x26)
  DW_CFA_restore: r23 (x23)
  DW_CFA_restore: r24 (x24)
  DW_CFA_restore: r21 (x21)
  DW_CFA_restore: r22 (x22)
  DW_CFA_restore: r19 (x19)
  DW_CFA_restore: r20 (x20)
  DW_CFA_restore_extended: r72 (v8)
  DW_CFA_restore_extended: r73 (v9)
  DW_CFA_def_cfa_offset: 0

00003e80 0000000000000060 00003e84 FDE cie=00000000 pc=0000000000024d64..0000000000025c58
  DW_CFA_advance_loc: 4 to 0000000000024d68
  DW_CFA_def_cfa_offset: 128
  DW_CFA_offset: r29 (x29) at cfa-128
  DW_CFA_offset: r30 (x30) at cfa-120
  DW_CFA_advance_loc: 16 to 0000000000024d78
  DW_CFA_offset: r19 (x19) at cfa-112
  DW_CFA_offset: r20 (x20) at cfa-104
  DW_CFA_advance_loc: 16 to 0000000000024d88
  DW_CFA_offset: r21 (x21) at cfa-96
  DW_CFA_offset: r22 (x22) at cfa-88
  DW_CFA_advance_loc: 12 to 0000000000024d94
  DW_CFA_offset: r23 (x23) at cfa-80
  DW_CFA_offset: r24 (x24) at cfa-72
  DW_CFA_advance_loc: 16 to 0000000000024da4
  DW_CFA_offset: r25 (x25) at cfa-64
  DW_CFA_offset_extended: r72 (v8) at cfa-56
  DW_CFA_advance_loc2: 1032 to 00000000000251ac
  DW_CFA_remember_state
  DW_CFA_restore: r30 (x30)
  DW_CFA_restore: r29 (x29)
  DW_CFA_restore: r25 (x25)
  DW_CFA_restore: r23 (x23)
  DW_CFA_restore: r24 (x24)
  DW_CFA_restore: r21 (x21)
  DW_CFA_restore: r22 (x22)
  DW_CFA_restore: r19 (x19)
  DW_CFA_restore: r20 (x20)
  DW_CFA_restore_extended: r72 (v8)
  DW_CFA_def_cfa_offset: 0
  DW_CFA_advance_loc: 4 to 00000000000251b0
  DW_CFA_restore_state
  DW_CFA_advance_loc: 160 to 0000000000025250
  DW_CFA_remember_state
  DW_CFA_restore: r30 (x30)
  DW_CFA_restore: r29 (x29)
  DW_CFA_restore: r25 (x25)
  DW_CFA_restore: r23 (x23)
  DW_CFA_restore: r24 (x24)
  DW_CFA_restore: r21 (x21)
  DW_CFA_restore: r22 (x22)
  DW_CFA_restore: r19 (x19)
  DW_CFA_restore: r20 (x20)
  DW_CFA_restore_extended: r72 (v8)
  DW_CFA_def_cfa_offset: 0
  DW_CFA_advance_loc: 4 to 0000000000025254
  DW_CFA_restore_state
  DW_CFA_advance_loc2: 2560 to 0000000000025c54
  DW_CFA_restore: r30 (x30)
  DW_CFA_restore: r29 (x29)
  DW_CFA_restore: r25 (x25)
  DW_CFA_restore: r23 (x23)
  DW_CFA_restore: r24 (x24)
  DW_CFA_restore: r21 (x21)
  DW_CFA_restore: r22 (x22)
  DW_CFA_restore: r19 (x19)
  DW_CFA_restore: r20 (x20)
  DW_CFA_restore_extended: r72 (v8)
  DW_CFA_def_cfa_offset: 0
  DW_CFA_nop
  DW_CFA_nop

00003ee4 000000000000001c 00003ee8 FDE cie=00000000 pc=0000000000025c58..0000000000025cc8
  DW_CFA_advance_loc: 4 to 0000000000025c5c
  DW_CFA_def_cfa_offset: 16
  DW_CFA_offset: r29 (x29) at cfa-16
  DW_CFA_offset: r30 (x30) at cfa-8
  DW_CFA_advance_loc: 104 to 0000000000025cc4
  DW_CFA_restore: r30 (x30)
  DW_CFA_restore: r29 (x29)
  DW_CFA_def_cfa_offset: 0
  DW_CFA_nop
  DW_CFA_nop
  DW_CFA_nop

00003f04 000000000000002c 00003f08 FDE cie=00000000 pc=0000000000025cc8..0000000000025df0
  DW_CFA_advance_loc: 12 to 0000000000025cd4
  DW_CFA_def_cfa_offset: 32
  DW_CFA_offset: r29 (x29) at cfa-32
  DW_CFA_offset: r30 (x30) at cfa-24
  DW_CFA_advance_loc: 8 to 0000000000025cdc
  DW_CFA_offset: r19 (x19) at cfa-16
  DW_CFA_advance_loc: 160 to 0000000000025d7c
  DW_CFA_def_cfa_offset: 0
  DW_CFA_restore: r19 (x19)
  DW_CFA_restore: r29 (x29)
  DW_CFA_restore: r30 (x30)
  DW_CFA_advance_loc: 20 to 0000000000025d90
  DW_CFA_def_cfa_offset: 32
  DW_CFA_offset: r19 (x19) at cfa-16
  DW_CFA_offset: r29 (x29) at cfa-32
  DW_CFA_offset: r30 (x30) at cfa-24
  DW_CFA_advance_loc: 92 to 0000000000025dec
  DW_CFA_restore: r30 (x30)
  DW_CFA_restore: r29 (x29)
  DW_CFA_restore: r19 (x19)
  DW_CFA_def_cfa_offset: 0

00003f34 ZERO terminator


Contents of the .gnu_debugaltlink section:

  Separate debug info file: /usr/lib/debug/.dwz/aarch64-linux-gnu/binutils-aarch64-linux-gnu.debug
  Build-ID (0x14 bytes):
 08 c7 82 4a 23 79 11 57 b2 1f 38 3b e2 ee 78 be 29 79 af 10


Disassembly of section .init:

00000000000081f0 <.init>:
    81f0:	d503201f 	nop
    81f4:	a9bf7bfd 	stp	x29, x30, [sp, #-16]!
    81f8:	910003fd 	mov	x29, sp
    81fc:	9400790e 	bl	26634 <error@@Base+0x1bf2c>
    8200:	a8c17bfd 	ldp	x29, x30, [sp], #16
    8204:	d65f03c0 	ret

Disassembly of section .plt:

0000000000008210 <memcpy@plt-0x20>:
    8210:	a9bf7bf0 	stp	x16, x30, [sp, #-16]!
    8214:	f0000330 	adrp	x16, 6f000 <error@@Base+0x648f8>
    8218:	f9456211 	ldr	x17, [x16, #2752]
    821c:	912b0210 	add	x16, x16, #0xac0
    8220:	d61f0220 	br	x17
    8224:	d503201f 	nop
    8228:	d503201f 	nop
    822c:	d503201f 	nop

0000000000008230 <memcpy@plt>:
    8230:	f0000330 	adrp	x16, 6f000 <error@@Base+0x648f8>
    8234:	f9456611 	ldr	x17, [x16, #2760]
    8238:	912b2210 	add	x16, x16, #0xac8
    823c:	d61f0220 	br	x17

0000000000008240 <memmove@plt>:
    8240:	f0000330 	adrp	x16, 6f000 <error@@Base+0x648f8>
    8244:	f9456a11 	ldr	x17, [x16, #2768]
    8248:	912b4210 	add	x16, x16, #0xad0
    824c:	d61f0220 	br	x17

0000000000008250 <cplus_demangle_print@plt>:
    8250:	f0000330 	adrp	x16, 6f000 <error@@Base+0x648f8>
    8254:	f9456e11 	ldr	x17, [x16, #2776]
    8258:	912b6210 	add	x16, x16, #0xad8
    825c:	d61f0220 	br	x17

0000000000008260 <mkstemps@plt>:
    8260:	f0000330 	adrp	x16, 6f000 <error@@Base+0x648f8>
    8264:	f9457211 	ldr	x17, [x16, #2784]
    8268:	912b8210 	add	x16, x16, #0xae0
    826c:	d61f0220 	br	x17

0000000000008270 <cplus_demangle_name_to_style@plt>:
    8270:	f0000330 	adrp	x16, 6f000 <error@@Base+0x648f8>
    8274:	f9457611 	ldr	x17, [x16, #2792]
    8278:	912ba210 	add	x16, x16, #0xae8
    827c:	d61f0220 	br	x17

0000000000008280 <strtoul@plt>:
    8280:	f0000330 	adrp	x16, 6f000 <error@@Base+0x648f8>
    8284:	f9457a11 	ldr	x17, [x16, #2800]
    8288:	912bc210 	add	x16, x16, #0xaf0
    828c:	d61f0220 	br	x17

0000000000008290 <strlen@plt>:
    8290:	f0000330 	adrp	x16, 6f000 <error@@Base+0x648f8>
    8294:	f9457e11 	ldr	x17, [x16, #2808]
    8298:	912be210 	add	x16, x16, #0xaf8
    829c:	d61f0220 	br	x17

00000000000082a0 <fputs@plt>:
    82a0:	f0000330 	adrp	x16, 6f000 <error@@Base+0x648f8>
    82a4:	f9458211 	ldr	x17, [x16, #2816]
    82a8:	912c0210 	add	x16, x16, #0xb00
    82ac:	d61f0220 	br	x17

00000000000082b0 <bfd_scan_vma@plt>:
    82b0:	f0000330 	adrp	x16, 6f000 <error@@Base+0x648f8>
    82b4:	f9458611 	ldr	x17, [x16, #2824]
    82b8:	912c2210 	add	x16, x16, #0xb08
    82bc:	d61f0220 	br	x17

00000000000082c0 <__sprintf_chk@plt>:
    82c0:	f0000330 	adrp	x16, 6f000 <error@@Base+0x648f8>
    82c4:	f9458a11 	ldr	x17, [x16, #2832]
    82c8:	912c4210 	add	x16, x16, #0xb10
    82cc:	d61f0220 	br	x17

00000000000082d0 <exit@plt>:
    82d0:	f0000330 	adrp	x16, 6f000 <error@@Base+0x648f8>
    82d4:	f9458e11 	ldr	x17, [x16, #2840]
    82d8:	912c6210 	add	x16, x16, #0xb18
    82dc:	d61f0220 	br	x17

00000000000082e0 <__libc_start_main@plt>:
    82e0:	f0000330 	adrp	x16, 6f000 <error@@Base+0x648f8>
    82e4:	f9459211 	ldr	x17, [x16, #2848]
    82e8:	912c8210 	add	x16, x16, #0xb20
    82ec:	d61f0220 	br	x17

00000000000082f0 <strnlen@plt>:
    82f0:	f0000330 	adrp	x16, 6f000 <error@@Base+0x648f8>
    82f4:	f9459611 	ldr	x17, [x16, #2856]
    82f8:	912ca210 	add	x16, x16, #0xb28
    82fc:	d61f0220 	br	x17

0000000000008300 <strtod@plt>:
    8300:	f0000330 	adrp	x16, 6f000 <error@@Base+0x648f8>
    8304:	f9459a11 	ldr	x17, [x16, #2864]
    8308:	912cc210 	add	x16, x16, #0xb30
    830c:	d61f0220 	br	x17

0000000000008310 <bfd_get_stab_name@plt>:
    8310:	f0000330 	adrp	x16, 6f000 <error@@Base+0x648f8>
    8314:	f9459e11 	ldr	x17, [x16, #2872]
    8318:	912ce210 	add	x16, x16, #0xb38
    831c:	d61f0220 	br	x17

0000000000008320 <bfd_get_size@plt>:
    8320:	f0000330 	adrp	x16, 6f000 <error@@Base+0x648f8>
    8324:	f945a211 	ldr	x17, [x16, #2880]
    8328:	912d0210 	add	x16, x16, #0xb40
    832c:	d61f0220 	br	x17

0000000000008330 <bfd_arch_list@plt>:
    8330:	f0000330 	adrp	x16, 6f000 <error@@Base+0x648f8>
    8334:	f945a611 	ldr	x17, [x16, #2888]
    8338:	912d2210 	add	x16, x16, #0xb48
    833c:	d61f0220 	br	x17

0000000000008340 <bfd_set_default_target@plt>:
    8340:	f0000330 	adrp	x16, 6f000 <error@@Base+0x648f8>
    8344:	f945aa11 	ldr	x17, [x16, #2896]
    8348:	912d4210 	add	x16, x16, #0xb50
    834c:	d61f0220 	br	x17

0000000000008350 <ctf_errno@plt>:
    8350:	f0000330 	adrp	x16, 6f000 <error@@Base+0x648f8>
    8354:	f945ae11 	ldr	x17, [x16, #2904]
    8358:	912d6210 	add	x16, x16, #0xb58
    835c:	d61f0220 	br	x17

0000000000008360 <ftell@plt>:
    8360:	f0000330 	adrp	x16, 6f000 <error@@Base+0x648f8>
    8364:	f945b211 	ldr	x17, [x16, #2912]
    8368:	912d8210 	add	x16, x16, #0xb60
    836c:	d61f0220 	br	x17

0000000000008370 <__cxa_finalize@plt>:
    8370:	f0000330 	adrp	x16, 6f000 <error@@Base+0x648f8>
    8374:	f945b611 	ldr	x17, [x16, #2920]
    8378:	912da210 	add	x16, x16, #0xb68
    837c:	d61f0220 	br	x17

0000000000008380 <putc@plt>:
    8380:	f0000330 	adrp	x16, 6f000 <error@@Base+0x648f8>
    8384:	f945ba11 	ldr	x17, [x16, #2928]
    8388:	912dc210 	add	x16, x16, #0xb70
    838c:	d61f0220 	br	x17

0000000000008390 <fputc@plt>:
    8390:	f0000330 	adrp	x16, 6f000 <error@@Base+0x648f8>
    8394:	f945be11 	ldr	x17, [x16, #2936]
    8398:	912de210 	add	x16, x16, #0xb78
    839c:	d61f0220 	br	x17

00000000000083a0 <filename_cmp@plt>:
    83a0:	f0000330 	adrp	x16, 6f000 <error@@Base+0x648f8>
    83a4:	f945c211 	ldr	x17, [x16, #2944]
    83a8:	912e0210 	add	x16, x16, #0xb80
    83ac:	d61f0220 	br	x17

00000000000083b0 <cplus_demangle_set_style@plt>:
    83b0:	f0000330 	adrp	x16, 6f000 <error@@Base+0x648f8>
    83b4:	f945c611 	ldr	x17, [x16, #2952]
    83b8:	912e2210 	add	x16, x16, #0xb88
    83bc:	d61f0220 	br	x17

00000000000083c0 <qsort@plt>:
    83c0:	f0000330 	adrp	x16, 6f000 <error@@Base+0x648f8>
    83c4:	f945ca11 	ldr	x17, [x16, #2960]
    83c8:	912e4210 	add	x16, x16, #0xb90
    83cc:	d61f0220 	br	x17

00000000000083d0 <ctime@plt>:
    83d0:	f0000330 	adrp	x16, 6f000 <error@@Base+0x648f8>
    83d4:	f945ce11 	ldr	x17, [x16, #2968]
    83d8:	912e6210 	add	x16, x16, #0xb98
    83dc:	d61f0220 	br	x17

00000000000083e0 <bfd_malloc_and_get_section@plt>:
    83e0:	f0000330 	adrp	x16, 6f000 <error@@Base+0x648f8>
    83e4:	f945d211 	ldr	x17, [x16, #2976]
    83e8:	912e8210 	add	x16, x16, #0xba0
    83ec:	d61f0220 	br	x17

00000000000083f0 <ctf_dict_close@plt>:
    83f0:	f0000330 	adrp	x16, 6f000 <error@@Base+0x648f8>
    83f4:	f945d611 	ldr	x17, [x16, #2984]
    83f8:	912ea210 	add	x16, x16, #0xba8
    83fc:	d61f0220 	br	x17

0000000000008400 <bfd_openr@plt>:
    8400:	f0000330 	adrp	x16, 6f000 <error@@Base+0x648f8>
    8404:	f945da11 	ldr	x17, [x16, #2992]
    8408:	912ec210 	add	x16, x16, #0xbb0
    840c:	d61f0220 	br	x17

0000000000008410 <lrealpath@plt>:
    8410:	f0000330 	adrp	x16, 6f000 <error@@Base+0x648f8>
    8414:	f945de11 	ldr	x17, [x16, #3000]
    8418:	912ee210 	add	x16, x16, #0xbb8
    841c:	d61f0220 	br	x17

0000000000008420 <ctf_errmsg@plt>:
    8420:	f0000330 	adrp	x16, 6f000 <error@@Base+0x648f8>
    8424:	f945e211 	ldr	x17, [x16, #3008]
    8428:	912f0210 	add	x16, x16, #0xbc0
    842c:	d61f0220 	br	x17

0000000000008430 <snprintf@plt>:
    8430:	f0000330 	adrp	x16, 6f000 <error@@Base+0x648f8>
    8434:	f945e611 	ldr	x17, [x16, #3016]
    8438:	912f2210 	add	x16, x16, #0xbc8
    843c:	d61f0220 	br	x17

0000000000008440 <ctf_dump@plt>:
    8440:	f0000330 	adrp	x16, 6f000 <error@@Base+0x648f8>
    8444:	f945ea11 	ldr	x17, [x16, #3024]
    8448:	912f4210 	add	x16, x16, #0xbd0
    844c:	d61f0220 	br	x17

0000000000008450 <sframe_decode@plt>:
    8450:	f0000330 	adrp	x16, 6f000 <error@@Base+0x648f8>
    8454:	f945ee11 	ldr	x17, [x16, #3032]
    8458:	912f6210 	add	x16, x16, #0xbd8
    845c:	d61f0220 	br	x17

0000000000008460 <bfd_get_section_contents@plt>:
    8460:	f0000330 	adrp	x16, 6f000 <error@@Base+0x648f8>
    8464:	f945f211 	ldr	x17, [x16, #3040]
    8468:	912f8210 	add	x16, x16, #0xbe0
    846c:	d61f0220 	br	x17

0000000000008470 <bfd_get_mtime@plt>:
    8470:	f0000330 	adrp	x16, 6f000 <error@@Base+0x648f8>
    8474:	f945f611 	ldr	x17, [x16, #3048]
    8478:	912fa210 	add	x16, x16, #0xbe8
    847c:	d61f0220 	br	x17

0000000000008480 <__snprintf_chk@plt>:
    8480:	f0000330 	adrp	x16, 6f000 <error@@Base+0x648f8>
    8484:	f945fa11 	ldr	x17, [x16, #3056]
    8488:	912fc210 	add	x16, x16, #0xbf0
    848c:	d61f0220 	br	x17

0000000000008490 <fclose@plt>:
    8490:	f0000330 	adrp	x16, 6f000 <error@@Base+0x648f8>
    8494:	f945fe11 	ldr	x17, [x16, #3064]
    8498:	912fe210 	add	x16, x16, #0xbf8
    849c:	d61f0220 	br	x17

00000000000084a0 <fopen@plt>:
    84a0:	f0000330 	adrp	x16, 6f000 <error@@Base+0x648f8>
    84a4:	f9460211 	ldr	x17, [x16, #3072]
    84a8:	91300210 	add	x16, x16, #0xc00
    84ac:	d61f0220 	br	x17

00000000000084b0 <__vsnprintf_chk@plt>:
    84b0:	f0000330 	adrp	x16, 6f000 <error@@Base+0x648f8>
    84b4:	f9460611 	ldr	x17, [x16, #3080]
    84b8:	91302210 	add	x16, x16, #0xc08
    84bc:	d61f0220 	br	x17

00000000000084c0 <malloc@plt>:
    84c0:	f0000330 	adrp	x16, 6f000 <error@@Base+0x648f8>
    84c4:	f9460a11 	ldr	x17, [x16, #3088]
    84c8:	91304210 	add	x16, x16, #0xc10
    84cc:	d61f0220 	br	x17

00000000000084d0 <open@plt>:
    84d0:	f0000330 	adrp	x16, 6f000 <error@@Base+0x648f8>
    84d4:	f9460e11 	ldr	x17, [x16, #3096]
    84d8:	91306210 	add	x16, x16, #0xc18
    84dc:	d61f0220 	br	x17

00000000000084e0 <xrealloc@plt>:
    84e0:	f0000330 	adrp	x16, 6f000 <error@@Base+0x648f8>
    84e4:	f9461211 	ldr	x17, [x16, #3104]
    84e8:	91308210 	add	x16, x16, #0xc20
    84ec:	d61f0220 	br	x17

00000000000084f0 <ctf_bfdopen_ctfsect@plt>:
    84f0:	f0000330 	adrp	x16, 6f000 <error@@Base+0x648f8>
    84f4:	f9461611 	ldr	x17, [x16, #3112]
    84f8:	9130a210 	add	x16, x16, #0xc28
    84fc:	d61f0220 	br	x17

0000000000008500 <concat@plt>:
    8500:	f0000330 	adrp	x16, 6f000 <error@@Base+0x648f8>
    8504:	f9461a11 	ldr	x17, [x16, #3120]
    8508:	9130c210 	add	x16, x16, #0xc30
    850c:	d61f0220 	br	x17

0000000000008510 <strncmp@plt>:
    8510:	f0000330 	adrp	x16, 6f000 <error@@Base+0x648f8>
    8514:	f9461e11 	ldr	x17, [x16, #3128]
    8518:	9130e210 	add	x16, x16, #0xc38
    851c:	d61f0220 	br	x17

0000000000008520 <ctf_parent_name@plt>:
    8520:	f0000330 	adrp	x16, 6f000 <error@@Base+0x648f8>
    8524:	f9462211 	ldr	x17, [x16, #3136]
    8528:	91310210 	add	x16, x16, #0xc40
    852c:	d61f0220 	br	x17

0000000000008530 <bindtextdomain@plt>:
    8530:	f0000330 	adrp	x16, 6f000 <error@@Base+0x648f8>
    8534:	f9462611 	ldr	x17, [x16, #3144]
    8538:	91312210 	add	x16, x16, #0xc48
    853c:	d61f0220 	br	x17

0000000000008540 <bfd_target_list@plt>:
    8540:	f0000330 	adrp	x16, 6f000 <error@@Base+0x648f8>
    8544:	f9462a11 	ldr	x17, [x16, #3152]
    8548:	91314210 	add	x16, x16, #0xc50
    854c:	d61f0220 	br	x17

0000000000008550 <bfd_get_error@plt>:
    8550:	f0000330 	adrp	x16, 6f000 <error@@Base+0x648f8>
    8554:	f9462e11 	ldr	x17, [x16, #3160]
    8558:	91316210 	add	x16, x16, #0xc58
    855c:	d61f0220 	br	x17

0000000000008560 <strcat@plt>:
    8560:	f0000330 	adrp	x16, 6f000 <error@@Base+0x648f8>
    8564:	f9463211 	ldr	x17, [x16, #3168]
    8568:	91318210 	add	x16, x16, #0xc60
    856c:	d61f0220 	br	x17

0000000000008570 <__printf_chk@plt>:
    8570:	f0000330 	adrp	x16, 6f000 <error@@Base+0x648f8>
    8574:	f9463611 	ldr	x17, [x16, #3176]
    8578:	9131a210 	add	x16, x16, #0xc68
    857c:	d61f0220 	br	x17

0000000000008580 <disassemble_init_for_target@plt>:
    8580:	f0000330 	adrp	x16, 6f000 <error@@Base+0x648f8>
    8584:	f9463a11 	ldr	x17, [x16, #3184]
    8588:	9131c210 	add	x16, x16, #0xc70
    858c:	d61f0220 	br	x17

0000000000008590 <memset@plt>:
    8590:	f0000330 	adrp	x16, 6f000 <error@@Base+0x648f8>
    8594:	f9463e11 	ldr	x17, [x16, #3192]
    8598:	9131e210 	add	x16, x16, #0xc78
    859c:	d61f0220 	br	x17

00000000000085a0 <xmalloc@plt>:
    85a0:	f0000330 	adrp	x16, 6f000 <error@@Base+0x648f8>
    85a4:	f9464211 	ldr	x17, [x16, #3200]
    85a8:	91320210 	add	x16, x16, #0xc80
    85ac:	d61f0220 	br	x17

00000000000085b0 <bfd_set_error@plt>:
    85b0:	f0000330 	adrp	x16, 6f000 <error@@Base+0x648f8>
    85b4:	f9464611 	ldr	x17, [x16, #3208]
    85b8:	91322210 	add	x16, x16, #0xc88
    85bc:	d61f0220 	br	x17

00000000000085c0 <xmalloc_set_program_name@plt>:
    85c0:	f0000330 	adrp	x16, 6f000 <error@@Base+0x648f8>
    85c4:	f9464a11 	ldr	x17, [x16, #3216]
    85c8:	91324210 	add	x16, x16, #0xc90
    85cc:	d61f0220 	br	x17

00000000000085d0 <xstrdup@plt>:
    85d0:	f0000330 	adrp	x16, 6f000 <error@@Base+0x648f8>
    85d4:	f9464e11 	ldr	x17, [x16, #3224]
    85d8:	91326210 	add	x16, x16, #0xc98
    85dc:	d61f0220 	br	x17

00000000000085e0 <__vfprintf_chk@plt>:
    85e0:	f0000330 	adrp	x16, 6f000 <error@@Base+0x648f8>
    85e4:	f9465211 	ldr	x17, [x16, #3232]
    85e8:	91328210 	add	x16, x16, #0xca0
    85ec:	d61f0220 	br	x17

00000000000085f0 <bfd_get_section_by_name@plt>:
    85f0:	f0000330 	adrp	x16, 6f000 <error@@Base+0x648f8>
    85f4:	f9465611 	ldr	x17, [x16, #3240]
    85f8:	9132a210 	add	x16, x16, #0xca8
    85fc:	d61f0220 	br	x17

0000000000008600 <ctf_errwarning_next@plt>:
    8600:	f0000330 	adrp	x16, 6f000 <error@@Base+0x648f8>
    8604:	f9465a11 	ldr	x17, [x16, #3248]
    8608:	9132c210 	add	x16, x16, #0xcb0
    860c:	d61f0220 	br	x17

0000000000008610 <bfd_get_arch_size@plt>:
    8610:	f0000330 	adrp	x16, 6f000 <error@@Base+0x648f8>
    8614:	f9465e11 	ldr	x17, [x16, #3256]
    8618:	9132e210 	add	x16, x16, #0xcb8
    861c:	d61f0220 	br	x17

0000000000008620 <bfd_init@plt>:
    8620:	f0000330 	adrp	x16, 6f000 <error@@Base+0x648f8>
    8624:	f9466211 	ldr	x17, [x16, #3264]
    8628:	91330210 	add	x16, x16, #0xcc0
    862c:	d61f0220 	br	x17

0000000000008630 <bfd_get_full_section_contents@plt>:
    8630:	f0000330 	adrp	x16, 6f000 <error@@Base+0x648f8>
    8634:	f9466611 	ldr	x17, [x16, #3272]
    8638:	91332210 	add	x16, x16, #0xcc8
    863c:	d61f0220 	br	x17

0000000000008640 <lbasename@plt>:
    8640:	f0000330 	adrp	x16, 6f000 <error@@Base+0x648f8>
    8644:	f9466a11 	ldr	x17, [x16, #3280]
    8648:	91334210 	add	x16, x16, #0xcd0
    864c:	d61f0220 	br	x17

0000000000008650 <getpagesize@plt>:
    8650:	f0000330 	adrp	x16, 6f000 <error@@Base+0x648f8>
    8654:	f9466e11 	ldr	x17, [x16, #3288]
    8658:	91336210 	add	x16, x16, #0xcd8
    865c:	d61f0220 	br	x17

0000000000008660 <disassembler_usage@plt>:
    8660:	f0000330 	adrp	x16, 6f000 <error@@Base+0x648f8>
    8664:	f9467211 	ldr	x17, [x16, #3296]
    8668:	91338210 	add	x16, x16, #0xce0
    866c:	d61f0220 	br	x17

0000000000008670 <strdup@plt>:
    8670:	f0000330 	adrp	x16, 6f000 <error@@Base+0x648f8>
    8674:	f9467611 	ldr	x17, [x16, #3304]
    8678:	9133a210 	add	x16, x16, #0xce8
    867c:	d61f0220 	br	x17

0000000000008680 <strerror@plt>:
    8680:	f0000330 	adrp	x16, 6f000 <error@@Base+0x648f8>
    8684:	f9467a11 	ldr	x17, [x16, #3312]
    8688:	9133c210 	add	x16, x16, #0xcf0
    868c:	d61f0220 	br	x17

0000000000008690 <__stack_chk_fail@plt>:
    8690:	f0000330 	adrp	x16, 6f000 <error@@Base+0x648f8>
    8694:	f9467e11 	ldr	x17, [x16, #3320]
    8698:	9133e210 	add	x16, x16, #0xcf8
    869c:	d61f0220 	br	x17

00000000000086a0 <close@plt>:
    86a0:	f0000330 	adrp	x16, 6f000 <error@@Base+0x648f8>
    86a4:	f9468211 	ldr	x17, [x16, #3328]
    86a8:	91340210 	add	x16, x16, #0xd00
    86ac:	d61f0220 	br	x17

00000000000086b0 <ctf_archive_next@plt>:
    86b0:	f0000330 	adrp	x16, 6f000 <error@@Base+0x648f8>
    86b4:	f9468611 	ldr	x17, [x16, #3336]
    86b8:	91342210 	add	x16, x16, #0xd08
    86bc:	d61f0220 	br	x17

00000000000086c0 <strrchr@plt>:
    86c0:	f0000330 	adrp	x16, 6f000 <error@@Base+0x648f8>
    86c4:	f9468a11 	ldr	x17, [x16, #3344]
    86c8:	91344210 	add	x16, x16, #0xd10
    86cc:	d61f0220 	br	x17

00000000000086d0 <__gmon_start__@plt>:
    86d0:	f0000330 	adrp	x16, 6f000 <error@@Base+0x648f8>
    86d4:	f9468e11 	ldr	x17, [x16, #3352]
    86d8:	91346210 	add	x16, x16, #0xd18
    86dc:	d61f0220 	br	x17

00000000000086e0 <stat@plt>:
    86e0:	f0000330 	adrp	x16, 6f000 <error@@Base+0x648f8>
    86e4:	f9469211 	ldr	x17, [x16, #3360]
    86e8:	91348210 	add	x16, x16, #0xd20
    86ec:	d61f0220 	br	x17

00000000000086f0 <bfd_set_format@plt>:
    86f0:	f0000330 	adrp	x16, 6f000 <error@@Base+0x648f8>
    86f4:	f9469611 	ldr	x17, [x16, #3368]
    86f8:	9134a210 	add	x16, x16, #0xd28
    86fc:	d61f0220 	br	x17

0000000000008700 <bfd_octets_per_byte@plt>:
    8700:	f0000330 	adrp	x16, 6f000 <error@@Base+0x648f8>
    8704:	f9469a11 	ldr	x17, [x16, #3376]
    8708:	9134c210 	add	x16, x16, #0xd30
    870c:	d61f0220 	br	x17

0000000000008710 <fseek@plt>:
    8710:	f0000330 	adrp	x16, 6f000 <error@@Base+0x648f8>
    8714:	f9469e11 	ldr	x17, [x16, #3384]
    8718:	9134e210 	add	x16, x16, #0xd38
    871c:	d61f0220 	br	x17

0000000000008720 <abort@plt>:
    8720:	f0000330 	adrp	x16, 6f000 <error@@Base+0x648f8>
    8724:	f946a211 	ldr	x17, [x16, #3392]
    8728:	91350210 	add	x16, x16, #0xd40
    872c:	d61f0220 	br	x17

0000000000008730 <cplus_demangle_init_info@plt>:
    8730:	f0000330 	adrp	x16, 6f000 <error@@Base+0x648f8>
    8734:	f946a611 	ldr	x17, [x16, #3400]
    8738:	91352210 	add	x16, x16, #0xd48
    873c:	d61f0220 	br	x17

0000000000008740 <access@plt>:
    8740:	f0000330 	adrp	x16, 6f000 <error@@Base+0x648f8>
    8744:	f946aa11 	ldr	x17, [x16, #3408]
    8748:	91354210 	add	x16, x16, #0xd50
    874c:	d61f0220 	br	x17

0000000000008750 <bfd_close_all_done@plt>:
    8750:	f0000330 	adrp	x16, 6f000 <error@@Base+0x648f8>
    8754:	f946ae11 	ldr	x17, [x16, #3416]
    8758:	91356210 	add	x16, x16, #0xd58
    875c:	d61f0220 	br	x17

0000000000008760 <bfd_get_file_size@plt>:
    8760:	f0000330 	adrp	x16, 6f000 <error@@Base+0x648f8>
    8764:	f946b211 	ldr	x17, [x16, #3424]
    8768:	91358210 	add	x16, x16, #0xd60
    876c:	d61f0220 	br	x17

0000000000008770 <puts@plt>:
    8770:	f0000330 	adrp	x16, 6f000 <error@@Base+0x648f8>
    8774:	f946b611 	ldr	x17, [x16, #3432]
    8778:	9135a210 	add	x16, x16, #0xd68
    877c:	d61f0220 	br	x17

0000000000008780 <bfd_get_arch@plt>:
    8780:	f0000330 	adrp	x16, 6f000 <error@@Base+0x648f8>
    8784:	f946ba11 	ldr	x17, [x16, #3440]
    8788:	9135c210 	add	x16, x16, #0xd70
    878c:	d61f0220 	br	x17

0000000000008790 <textdomain@plt>:
    8790:	f0000330 	adrp	x16, 6f000 <error@@Base+0x648f8>
    8794:	f946be11 	ldr	x17, [x16, #3448]
    8798:	9135e210 	add	x16, x16, #0xd78
    879c:	d61f0220 	br	x17

00000000000087a0 <__asprintf_chk@plt>:
    87a0:	f0000330 	adrp	x16, 6f000 <error@@Base+0x648f8>
    87a4:	f946c211 	ldr	x17, [x16, #3456]
    87a8:	91360210 	add	x16, x16, #0xd80
    87ac:	d61f0220 	br	x17

00000000000087b0 <getopt_long@plt>:
    87b0:	f0000330 	adrp	x16, 6f000 <error@@Base+0x648f8>
    87b4:	f946c611 	ldr	x17, [x16, #3464]
    87b8:	91362210 	add	x16, x16, #0xd88
    87bc:	d61f0220 	br	x17

00000000000087c0 <__fprintf_chk@plt>:
    87c0:	f0000330 	adrp	x16, 6f000 <error@@Base+0x648f8>
    87c4:	f946ca11 	ldr	x17, [x16, #3472]
    87c8:	91364210 	add	x16, x16, #0xd90
    87cc:	d61f0220 	br	x17

00000000000087d0 <strcmp@plt>:
    87d0:	f0000330 	adrp	x16, 6f000 <error@@Base+0x648f8>
    87d4:	f946ce11 	ldr	x17, [x16, #3480]
    87d8:	91366210 	add	x16, x16, #0xd98
    87dc:	d61f0220 	br	x17

00000000000087e0 <bfd_printable_arch_mach@plt>:
    87e0:	f0000330 	adrp	x16, 6f000 <error@@Base+0x648f8>
    87e4:	f946d211 	ldr	x17, [x16, #3488]
    87e8:	91368210 	add	x16, x16, #0xda0
    87ec:	d61f0220 	br	x17

00000000000087f0 <bfd_coff_get_auxent@plt>:
    87f0:	f0000330 	adrp	x16, 6f000 <error@@Base+0x648f8>
    87f4:	f946d611 	ldr	x17, [x16, #3496]
    87f8:	9136a210 	add	x16, x16, #0xda8
    87fc:	d61f0220 	br	x17

0000000000008800 <mmap@plt>:
    8800:	f0000330 	adrp	x16, 6f000 <error@@Base+0x648f8>
    8804:	f946da11 	ldr	x17, [x16, #3504]
    8808:	9136c210 	add	x16, x16, #0xdb0
    880c:	d61f0220 	br	x17

0000000000008810 <strtol@plt>:
    8810:	f0000330 	adrp	x16, 6f000 <error@@Base+0x648f8>
    8814:	f946de11 	ldr	x17, [x16, #3512]
    8818:	9136e210 	add	x16, x16, #0xdb8
    881c:	d61f0220 	br	x17

0000000000008820 <fread@plt>:
    8820:	f0000330 	adrp	x16, 6f000 <error@@Base+0x648f8>
    8824:	f946e211 	ldr	x17, [x16, #3520]
    8828:	91370210 	add	x16, x16, #0xdc0
    882c:	d61f0220 	br	x17

0000000000008830 <bfd_iterate_over_targets@plt>:
    8830:	f0000330 	adrp	x16, 6f000 <error@@Base+0x648f8>
    8834:	f946e611 	ldr	x17, [x16, #3528]
    8838:	91372210 	add	x16, x16, #0xdc8
    883c:	d61f0220 	br	x17

0000000000008840 <free@plt>:
    8840:	f0000330 	adrp	x16, 6f000 <error@@Base+0x648f8>
    8844:	f946ea11 	ldr	x17, [x16, #3536]
    8848:	91374210 	add	x16, x16, #0xdd0
    884c:	d61f0220 	br	x17

0000000000008850 <disassembler@plt>:
    8850:	f0000330 	adrp	x16, 6f000 <error@@Base+0x648f8>
    8854:	f946ee11 	ldr	x17, [x16, #3544]
    8858:	91376210 	add	x16, x16, #0xdd8
    885c:	d61f0220 	br	x17

0000000000008860 <bfd_get_mach@plt>:
    8860:	f0000330 	adrp	x16, 6f000 <error@@Base+0x648f8>
    8864:	f946f211 	ldr	x17, [x16, #3552]
    8868:	91378210 	add	x16, x16, #0xde0
    886c:	d61f0220 	br	x17

0000000000008870 <strspn@plt>:
    8870:	f0000330 	adrp	x16, 6f000 <error@@Base+0x648f8>
    8874:	f946f611 	ldr	x17, [x16, #3560]
    8878:	9137a210 	add	x16, x16, #0xde8
    887c:	d61f0220 	br	x17

0000000000008880 <strchr@plt>:
    8880:	f0000330 	adrp	x16, 6f000 <error@@Base+0x648f8>
    8884:	f946fa11 	ldr	x17, [x16, #3568]
    8888:	9137c210 	add	x16, x16, #0xdf0
    888c:	d61f0220 	br	x17

0000000000008890 <bfd_openw@plt>:
    8890:	f0000330 	adrp	x16, 6f000 <error@@Base+0x648f8>
    8894:	f946fe11 	ldr	x17, [x16, #3576]
    8898:	9137e210 	add	x16, x16, #0xdf8
    889c:	d61f0220 	br	x17

00000000000088a0 <bfd_coff_get_syment@plt>:
    88a0:	f0000330 	adrp	x16, 6f000 <error@@Base+0x648f8>
    88a4:	f9470211 	ldr	x17, [x16, #3584]
    88a8:	91380210 	add	x16, x16, #0xe00
    88ac:	d61f0220 	br	x17

00000000000088b0 <cplus_demangle@plt>:
    88b0:	f0000330 	adrp	x16, 6f000 <error@@Base+0x648f8>
    88b4:	f9470611 	ldr	x17, [x16, #3592]
    88b8:	91382210 	add	x16, x16, #0xe08
    88bc:	d61f0220 	br	x17

00000000000088c0 <fwrite@plt>:
    88c0:	f0000330 	adrp	x16, 6f000 <error@@Base+0x648f8>
    88c4:	f9470a11 	ldr	x17, [x16, #3600]
    88c8:	91384210 	add	x16, x16, #0xe10
    88cc:	d61f0220 	br	x17

00000000000088d0 <bfd_set_error_program_name@plt>:
    88d0:	f0000330 	adrp	x16, 6f000 <error@@Base+0x648f8>
    88d4:	f9470e11 	ldr	x17, [x16, #3608]
    88d8:	91386210 	add	x16, x16, #0xe18
    88dc:	d61f0220 	br	x17

00000000000088e0 <dcngettext@plt>:
    88e0:	f0000330 	adrp	x16, 6f000 <error@@Base+0x648f8>
    88e4:	f9471211 	ldr	x17, [x16, #3616]
    88e8:	91388210 	add	x16, x16, #0xe20
    88ec:	d61f0220 	br	x17

00000000000088f0 <bfd_demangle@plt>:
    88f0:	f0000330 	adrp	x16, 6f000 <error@@Base+0x648f8>
    88f4:	f9471611 	ldr	x17, [x16, #3624]
    88f8:	9138a210 	add	x16, x16, #0xe28
    88fc:	d61f0220 	br	x17

0000000000008900 <fflush@plt>:
    8900:	f0000330 	adrp	x16, 6f000 <error@@Base+0x648f8>
    8904:	f9471a11 	ldr	x17, [x16, #3632]
    8908:	9138c210 	add	x16, x16, #0xe30
    890c:	d61f0220 	br	x17

0000000000008910 <cplus_demangle_mangled_name@plt>:
    8910:	f0000330 	adrp	x16, 6f000 <error@@Base+0x648f8>
    8914:	f9471e11 	ldr	x17, [x16, #3640]
    8918:	9138e210 	add	x16, x16, #0xe38
    891c:	d61f0220 	br	x17

0000000000008920 <bfd_scan_arch@plt>:
    8920:	f0000330 	adrp	x16, 6f000 <error@@Base+0x648f8>
    8924:	f9472211 	ldr	x17, [x16, #3648]
    8928:	91390210 	add	x16, x16, #0xe40
    892c:	d61f0220 	br	x17

0000000000008930 <strcpy@plt>:
    8930:	f0000330 	adrp	x16, 6f000 <error@@Base+0x648f8>
    8934:	f9472611 	ldr	x17, [x16, #3656]
    8938:	91392210 	add	x16, x16, #0xe48
    893c:	d61f0220 	br	x17

0000000000008940 <bfd_simple_get_relocated_section_contents@plt>:
    8940:	f0000330 	adrp	x16, 6f000 <error@@Base+0x648f8>
    8944:	f9472a11 	ldr	x17, [x16, #3664]
    8948:	91394210 	add	x16, x16, #0xe50
    894c:	d61f0220 	br	x17

0000000000008950 <ctf_close@plt>:
    8950:	f0000330 	adrp	x16, 6f000 <error@@Base+0x648f8>
    8954:	f9472e11 	ldr	x17, [x16, #3672]
    8958:	91396210 	add	x16, x16, #0xe58
    895c:	d61f0220 	br	x17

0000000000008960 <read@plt>:
    8960:	f0000330 	adrp	x16, 6f000 <error@@Base+0x648f8>
    8964:	f9473211 	ldr	x17, [x16, #3680]
    8968:	91398210 	add	x16, x16, #0xe60
    896c:	d61f0220 	br	x17

0000000000008970 <isatty@plt>:
    8970:	f0000330 	adrp	x16, 6f000 <error@@Base+0x648f8>
    8974:	f9473611 	ldr	x17, [x16, #3688]
    8978:	9139a210 	add	x16, x16, #0xe68
    897c:	d61f0220 	br	x17

0000000000008980 <xexit@plt>:
    8980:	f0000330 	adrp	x16, 6f000 <error@@Base+0x648f8>
    8984:	f9473a11 	ldr	x17, [x16, #3696]
    8988:	9139c210 	add	x16, x16, #0xe70
    898c:	d61f0220 	br	x17

0000000000008990 <bfd_close@plt>:
    8990:	f0000330 	adrp	x16, 6f000 <error@@Base+0x648f8>
    8994:	f9473e11 	ldr	x17, [x16, #3704]
    8998:	9139e210 	add	x16, x16, #0xe78
    899c:	d61f0220 	br	x17

00000000000089a0 <disassemble_free_target@plt>:
    89a0:	f0000330 	adrp	x16, 6f000 <error@@Base+0x648f8>
    89a4:	f9474211 	ldr	x17, [x16, #3712]
    89a8:	913a0210 	add	x16, x16, #0xe80
    89ac:	d61f0220 	br	x17

00000000000089b0 <bfd_sprintf_vma@plt>:
    89b0:	f0000330 	adrp	x16, 6f000 <error@@Base+0x648f8>
    89b4:	f9474611 	ldr	x17, [x16, #3720]
    89b8:	913a2210 	add	x16, x16, #0xe88
    89bc:	d61f0220 	br	x17

00000000000089c0 <bfd_check_format_matches@plt>:
    89c0:	f0000330 	adrp	x16, 6f000 <error@@Base+0x648f8>
    89c4:	f9474a11 	ldr	x17, [x16, #3728]
    89c8:	913a4210 	add	x16, x16, #0xe90
    89cc:	d61f0220 	br	x17

00000000000089d0 <strstr@plt>:
    89d0:	f0000330 	adrp	x16, 6f000 <error@@Base+0x648f8>
    89d4:	f9474e11 	ldr	x17, [x16, #3736]
    89d8:	913a6210 	add	x16, x16, #0xe98
    89dc:	d61f0220 	br	x17

00000000000089e0 <sframe_decoder_free@plt>:
    89e0:	f0000330 	adrp	x16, 6f000 <error@@Base+0x648f8>
    89e4:	f9475211 	ldr	x17, [x16, #3744]
    89e8:	913a8210 	add	x16, x16, #0xea0
    89ec:	d61f0220 	br	x17

00000000000089f0 <bfd_errmsg@plt>:
    89f0:	f0000330 	adrp	x16, 6f000 <error@@Base+0x648f8>
    89f4:	f9475611 	ldr	x17, [x16, #3752]
    89f8:	913aa210 	add	x16, x16, #0xea8
    89fc:	d61f0220 	br	x17

0000000000008a00 <bfd_canonicalize_reloc@plt>:
    8a00:	f0000330 	adrp	x16, 6f000 <error@@Base+0x648f8>
    8a04:	f9475a11 	ldr	x17, [x16, #3760]
    8a08:	913ac210 	add	x16, x16, #0xeb0
    8a0c:	d61f0220 	br	x17

0000000000008a10 <dcgettext@plt>:
    8a10:	f0000330 	adrp	x16, 6f000 <error@@Base+0x648f8>
    8a14:	f9475e11 	ldr	x17, [x16, #3768]
    8a18:	913ae210 	add	x16, x16, #0xeb8
    8a1c:	d61f0220 	br	x17

0000000000008a20 <remove_whitespace_and_extra_commas@plt>:
    8a20:	f0000330 	adrp	x16, 6f000 <error@@Base+0x648f8>
    8a24:	f9476211 	ldr	x17, [x16, #3776]
    8a28:	913b0210 	add	x16, x16, #0xec0
    8a2c:	d61f0220 	br	x17

0000000000008a30 <dump_sframe@plt>:
    8a30:	f0000330 	adrp	x16, 6f000 <error@@Base+0x648f8>
    8a34:	f9476611 	ldr	x17, [x16, #3784]
    8a38:	913b2210 	add	x16, x16, #0xec8
    8a3c:	d61f0220 	br	x17

0000000000008a40 <bfd_check_format@plt>:
    8a40:	f0000330 	adrp	x16, 6f000 <error@@Base+0x648f8>
    8a44:	f9476a11 	ldr	x17, [x16, #3792]
    8a48:	913b4210 	add	x16, x16, #0xed0
    8a4c:	d61f0220 	br	x17

0000000000008a50 <bfd_openr_next_archived_file@plt>:
    8a50:	f0000330 	adrp	x16, 6f000 <error@@Base+0x648f8>
    8a54:	f9476e11 	ldr	x17, [x16, #3800]
    8a58:	913b6210 	add	x16, x16, #0xed8
    8a5c:	d61f0220 	br	x17

0000000000008a60 <bfd_fprintf_vma@plt>:
    8a60:	f0000330 	adrp	x16, 6f000 <error@@Base+0x648f8>
    8a64:	f9477211 	ldr	x17, [x16, #3808]
    8a68:	913b8210 	add	x16, x16, #0xee0
    8a6c:	d61f0220 	br	x17

0000000000008a70 <strcspn@plt>:
    8a70:	f0000330 	adrp	x16, 6f000 <error@@Base+0x648f8>
    8a74:	f9477611 	ldr	x17, [x16, #3816]
    8a78:	913ba210 	add	x16, x16, #0xee8
    8a7c:	d61f0220 	br	x17

0000000000008a80 <bfd_get_reloc_upper_bound@plt>:
    8a80:	f0000330 	adrp	x16, 6f000 <error@@Base+0x648f8>
    8a84:	f9477a11 	ldr	x17, [x16, #3824]
    8a88:	913bc210 	add	x16, x16, #0xef0
    8a8c:	d61f0220 	br	x17

0000000000008a90 <bfd_map_over_sections@plt>:
    8a90:	f0000330 	adrp	x16, 6f000 <error@@Base+0x648f8>
    8a94:	f9477e11 	ldr	x17, [x16, #3832]
    8a98:	913be210 	add	x16, x16, #0xef8
    8a9c:	d61f0220 	br	x17

0000000000008aa0 <__assert_fail@plt>:
    8aa0:	f0000330 	adrp	x16, 6f000 <error@@Base+0x648f8>
    8aa4:	f9478211 	ldr	x17, [x16, #3840]
    8aa8:	913c0210 	add	x16, x16, #0xf00
    8aac:	d61f0220 	br	x17

0000000000008ab0 <__errno_location@plt>:
    8ab0:	f0000330 	adrp	x16, 6f000 <error@@Base+0x648f8>
    8ab4:	f9478611 	ldr	x17, [x16, #3848]
    8ab8:	913c2210 	add	x16, x16, #0xf08
    8abc:	d61f0220 	br	x17

0000000000008ac0 <iterative_hash@plt>:
    8ac0:	f0000330 	adrp	x16, 6f000 <error@@Base+0x648f8>
    8ac4:	f9478a11 	ldr	x17, [x16, #3856]
    8ac8:	913c4210 	add	x16, x16, #0xf10
    8acc:	d61f0220 	br	x17

0000000000008ad0 <getenv@plt>:
    8ad0:	f0000330 	adrp	x16, 6f000 <error@@Base+0x648f8>
    8ad4:	f9478e11 	ldr	x17, [x16, #3864]
    8ad8:	913c6210 	add	x16, x16, #0xf18
    8adc:	d61f0220 	br	x17

0000000000008ae0 <putchar@plt>:
    8ae0:	f0000330 	adrp	x16, 6f000 <error@@Base+0x648f8>
    8ae4:	f9479211 	ldr	x17, [x16, #3872]
    8ae8:	913c8210 	add	x16, x16, #0xf20
    8aec:	d61f0220 	br	x17

0000000000008af0 <bfd_is_local_label@plt>:
    8af0:	f0000330 	adrp	x16, 6f000 <error@@Base+0x648f8>
    8af4:	f9479611 	ldr	x17, [x16, #3880]
    8af8:	913ca210 	add	x16, x16, #0xf28
    8afc:	d61f0220 	br	x17

0000000000008b00 <fstat@plt>:
    8b00:	f0000330 	adrp	x16, 6f000 <error@@Base+0x648f8>
    8b04:	f9479a11 	ldr	x17, [x16, #3888]
    8b08:	913cc210 	add	x16, x16, #0xf30
    8b0c:	d61f0220 	br	x17

0000000000008b10 <init_disassemble_info@plt>:
    8b10:	f0000330 	adrp	x16, 6f000 <error@@Base+0x648f8>
    8b14:	f9479e11 	ldr	x17, [x16, #3896]
    8b18:	913ce210 	add	x16, x16, #0xf38
    8b1c:	d61f0220 	br	x17

0000000000008b20 <xcalloc@plt>:
    8b20:	f0000330 	adrp	x16, 6f000 <error@@Base+0x648f8>
    8b24:	f947a211 	ldr	x17, [x16, #3904]
    8b28:	913d0210 	add	x16, x16, #0xf40
    8b2c:	d61f0220 	br	x17

0000000000008b30 <ctf_dict_open@plt>:
    8b30:	f0000330 	adrp	x16, 6f000 <error@@Base+0x648f8>
    8b34:	f947a611 	ldr	x17, [x16, #3912]
    8b38:	913d2210 	add	x16, x16, #0xf48
    8b3c:	d61f0220 	br	x17

0000000000008b40 <unlink@plt>:
    8b40:	f0000330 	adrp	x16, 6f000 <error@@Base+0x648f8>
    8b44:	f947aa11 	ldr	x17, [x16, #3920]
    8b48:	913d4210 	add	x16, x16, #0xf50
    8b4c:	d61f0220 	br	x17

0000000000008b50 <ctf_import@plt>:
    8b50:	f0000330 	adrp	x16, 6f000 <error@@Base+0x648f8>
    8b54:	f947ae11 	ldr	x17, [x16, #3928]
    8b58:	913d6210 	add	x16, x16, #0xf58
    8b5c:	d61f0220 	br	x17

0000000000008b60 <bfd_arch_bits_per_address@plt>:
    8b60:	f0000330 	adrp	x16, 6f000 <error@@Base+0x648f8>
    8b64:	f947b211 	ldr	x17, [x16, #3936]
    8b68:	913d8210 	add	x16, x16, #0xf60
    8b6c:	d61f0220 	br	x17

0000000000008b70 <disassemble_set_printf@plt>:
    8b70:	f0000330 	adrp	x16, 6f000 <error@@Base+0x648f8>
    8b74:	f947b611 	ldr	x17, [x16, #3944]
    8b78:	913da210 	add	x16, x16, #0xf68
    8b7c:	d61f0220 	br	x17

0000000000008b80 <setlocale@plt>:
    8b80:	f0000330 	adrp	x16, 6f000 <error@@Base+0x648f8>
    8b84:	f947ba11 	ldr	x17, [x16, #3952]
    8b88:	913dc210 	add	x16, x16, #0xf70
    8b8c:	d61f0220 	br	x17

0000000000008b90 <ferror@plt>:
    8b90:	f0000330 	adrp	x16, 6f000 <error@@Base+0x648f8>
    8b94:	f947be11 	ldr	x17, [x16, #3960]
    8b98:	913de210 	add	x16, x16, #0xf78
    8b9c:	d61f0220 	br	x17

Disassembly of section .text:

0000000000008bc0 <warn@@Base-0x228>:
    8bc0:	a9bd7bfd 	stp	x29, x30, [sp, #-48]!
    8bc4:	910003fd 	mov	x29, sp
    8bc8:	a90153f3 	stp	x19, x20, [sp, #16]
    8bcc:	f9401413 	ldr	x19, [x0, #40]
    8bd0:	f9401c14 	ldr	x20, [x0, #56]
    8bd4:	aa1303e0 	mov	x0, x19
    8bd8:	f90013f5 	str	x21, [sp, #32]
    8bdc:	aa0103f5 	mov	x21, x1
    8be0:	aa1403e1 	mov	x1, x20
    8be4:	97fffdc3 	bl	82f0 <strnlen@plt>
    8be8:	b4000140 	cbz	x0, 8c10 <ferror@plt+0x80>
    8bec:	91000402 	add	x2, x0, #0x1
    8bf0:	eb02029f 	cmp	x20, x2
    8bf4:	540000e9 	b.ls	8c10 <ferror@plt+0x80>  // b.plast
    8bf8:	cb020294 	sub	x20, x20, x2
    8bfc:	f1004e9f 	cmp	x20, #0x13
    8c00:	54000089 	b.ls	8c10 <ferror@plt+0x80>  // b.plast
    8c04:	8b020262 	add	x2, x19, x2
    8c08:	a9000ab4 	stp	x20, x2, [x21]
    8c0c:	14000002 	b	8c14 <ferror@plt+0x84>
    8c10:	d2800013 	mov	x19, #0x0                   	// #0
    8c14:	f94013f5 	ldr	x21, [sp, #32]
    8c18:	aa1303e0 	mov	x0, x19
    8c1c:	a94153f3 	ldp	x19, x20, [sp, #16]
    8c20:	a8c37bfd 	ldp	x29, x30, [sp], #48
    8c24:	d65f03c0 	ret
    8c28:	a9bd7bfd 	stp	x29, x30, [sp, #-48]!
    8c2c:	910003fd 	mov	x29, sp
    8c30:	a90153f3 	stp	x19, x20, [sp, #16]
    8c34:	aa0103f4 	mov	x20, x1
    8c38:	f9401413 	ldr	x19, [x0, #40]
    8c3c:	f90013f5 	str	x21, [sp, #32]
    8c40:	f9401c15 	ldr	x21, [x0, #56]
    8c44:	aa1303e0 	mov	x0, x19
    8c48:	aa1503e1 	mov	x1, x21
    8c4c:	97fffda9 	bl	82f0 <strnlen@plt>
    8c50:	340001a0 	cbz	w0, 8c84 <ferror@plt+0xf4>
    8c54:	11001000 	add	w0, w0, #0x4
    8c58:	121e7400 	and	w0, w0, #0xfffffffc
    8c5c:	11001001 	add	w1, w0, #0x4
    8c60:	eb2142bf 	cmp	x21, w1, uxtw
    8c64:	54000103 	b.cc	8c84 <ferror@plt+0xf4>  // b.lo, b.ul, b.last
    8c68:	b0000342 	adrp	x2, 71000 <error@@Base+0x668f8>
    8c6c:	8b204260 	add	x0, x19, w0, uxtw
    8c70:	52800081 	mov	w1, #0x4                   	// #4
    8c74:	f9473c42 	ldr	x2, [x2, #3704]
    8c78:	d63f0040 	blr	x2
    8c7c:	f9000280 	str	x0, [x20]
    8c80:	14000002 	b	8c88 <ferror@plt+0xf8>
    8c84:	d2800013 	mov	x19, #0x0                   	// #0
    8c88:	f94013f5 	ldr	x21, [sp, #32]
    8c8c:	aa1303e0 	mov	x0, x19
    8c90:	a94153f3 	ldp	x19, x20, [sp, #16]
    8c94:	a8c37bfd 	ldp	x29, x30, [sp], #48
    8c98:	d65f03c0 	ret
    8c9c:	a9bf7bfd 	stp	x29, x30, [sp, #-16]!
    8ca0:	910003fd 	mov	x29, sp
    8ca4:	9400a4fb 	bl	32090 <error@@Base+0x27988>
    8ca8:	f100001f 	cmp	x0, #0x0
    8cac:	1a9f07e0 	cset	w0, ne	// ne = any
    8cb0:	a8c17bfd 	ldp	x29, x30, [sp], #16
    8cb4:	d65f03c0 	ret
    8cb8:	a9bb7bfd 	stp	x29, x30, [sp, #-80]!
    8cbc:	910003fd 	mov	x29, sp
    8cc0:	a90153f3 	stp	x19, x20, [sp, #16]
    8cc4:	aa0003f4 	mov	x20, x0
    8cc8:	a9025bf5 	stp	x21, x22, [sp, #32]
    8ccc:	a90363f7 	stp	x23, x24, [sp, #48]
    8cd0:	aa0103f7 	mov	x23, x1
    8cd4:	f90023f9 	str	x25, [sp, #64]
    8cd8:	9400a4ee 	bl	32090 <error@@Base+0x27988>
    8cdc:	b4000300 	cbz	x0, 8d3c <ferror@plt+0x1ac>
    8ce0:	aa0003f5 	mov	x21, x0
    8ce4:	900001c1 	adrp	x1, 40000 <error@@Base+0x358f8>
    8ce8:	aa1403e0 	mov	x0, x20
    8cec:	910d6021 	add	x1, x1, #0x358
    8cf0:	d2800013 	mov	x19, #0x0                   	// #0
    8cf4:	97fffdeb 	bl	84a0 <fopen@plt>
    8cf8:	aa0003f6 	mov	x22, x0
    8cfc:	b40000e0 	cbz	x0, 8d18 <ferror@plt+0x188>
    8d00:	b00001d9 	adrp	x25, 41000 <error@@Base+0x368f8>
    8d04:	9122c339 	add	x25, x25, #0x8b0
    8d08:	d0000358 	adrp	x24, 72000 <error@@Base+0x678f8>
    8d0c:	91014339 	add	x25, x25, #0x50
    8d10:	91030318 	add	x24, x24, #0xc0
    8d14:	1400000d 	b	8d48 <ferror@plt+0x1b8>
    8d18:	aa1503e0 	mov	x0, x21
    8d1c:	97ffff1d 	bl	8990 <bfd_close@plt>
    8d20:	528000a2 	mov	w2, #0x5                   	// #5
    8d24:	900001c1 	adrp	x1, 40000 <error@@Base+0x358f8>
    8d28:	d2800000 	mov	x0, #0x0                   	// #0
    8d2c:	910d8021 	add	x1, x1, #0x360
    8d30:	97ffff38 	bl	8a10 <dcgettext@plt>
    8d34:	aa1403e1 	mov	x1, x20
    8d38:	9400002c 	bl	8de8 <warn@@Base>
    8d3c:	52800000 	mov	w0, #0x0                   	// #0
    8d40:	14000024 	b	8dd0 <ferror@plt+0x240>
    8d44:	2a2203f3 	mvn	w19, w2
    8d48:	aa1603e3 	mov	x3, x22
    8d4c:	aa1803e0 	mov	x0, x24
    8d50:	d2840002 	mov	x2, #0x2000                	// #8192
    8d54:	d2800021 	mov	x1, #0x1                   	// #1
    8d58:	97fffeb2 	bl	8820 <fread@plt>
    8d5c:	aa0003e4 	mov	x4, x0
    8d60:	b4000180 	cbz	x0, 8d90 <ferror@plt+0x200>
    8d64:	d2407e62 	eor	x2, x19, #0xffffffff
    8d68:	8b180084 	add	x4, x4, x24
    8d6c:	aa1803e1 	mov	x1, x24
    8d70:	eb01009f 	cmp	x4, x1
    8d74:	54fffe89 	b.ls	8d44 <ferror@plt+0x1b4>  // b.plast
    8d78:	38401420 	ldrb	w0, [x1], #1
    8d7c:	ca020000 	eor	x0, x0, x2
    8d80:	92401c00 	and	x0, x0, #0xff
    8d84:	f8607b20 	ldr	x0, [x25, x0, lsl #3]
    8d88:	ca422002 	eor	x2, x0, x2, lsr #8
    8d8c:	17fffff9 	b	8d70 <ferror@plt+0x1e0>
    8d90:	aa1603e0 	mov	x0, x22
    8d94:	97fffdbf 	bl	8490 <fclose@plt>
    8d98:	f94002e1 	ldr	x1, [x23]
    8d9c:	52800020 	mov	w0, #0x1                   	// #1
    8da0:	eb13003f 	cmp	x1, x19
    8da4:	54000160 	b.eq	8dd0 <ferror@plt+0x240>  // b.none
    8da8:	aa1503e0 	mov	x0, x21
    8dac:	97fffef9 	bl	8990 <bfd_close@plt>
    8db0:	528000a2 	mov	w2, #0x5                   	// #5
    8db4:	900001c1 	adrp	x1, 40000 <error@@Base+0x358f8>
    8db8:	d2800000 	mov	x0, #0x0                   	// #0
    8dbc:	910e4021 	add	x1, x1, #0x390
    8dc0:	97ffff14 	bl	8a10 <dcgettext@plt>
    8dc4:	aa1403e1 	mov	x1, x20
    8dc8:	94000008 	bl	8de8 <warn@@Base>
    8dcc:	17ffffdc 	b	8d3c <ferror@plt+0x1ac>
    8dd0:	a94153f3 	ldp	x19, x20, [sp, #16]
    8dd4:	a9425bf5 	ldp	x21, x22, [sp, #32]
    8dd8:	a94363f7 	ldp	x23, x24, [sp, #48]
    8ddc:	f94023f9 	ldr	x25, [sp, #64]
    8de0:	a8c57bfd 	ldp	x29, x30, [sp], #80
    8de4:	d65f03c0 	ret

0000000000008de8 <warn@@Base>:
    8de8:	a9aa7bfd 	stp	x29, x30, [sp, #-352]!
    8dec:	f0000329 	adrp	x9, 6f000 <error@@Base+0x648f8>
    8df0:	f947dd29 	ldr	x9, [x9, #4024]
    8df4:	910003fd 	mov	x29, sp
    8df8:	f0000328 	adrp	x8, 6f000 <error@@Base+0x648f8>
    8dfc:	f947e508 	ldr	x8, [x8, #4040]
    8e00:	a90153f3 	stp	x19, x20, [sp, #16]
    8e04:	aa0003f4 	mov	x20, x0
    8e08:	f90013f5 	str	x21, [sp, #32]
    8e0c:	3d802be0 	str	q0, [sp, #160]
    8e10:	3d802fe1 	str	q1, [sp, #176]
    8e14:	3d8033e2 	str	q2, [sp, #192]
    8e18:	3d8037e3 	str	q3, [sp, #208]
    8e1c:	3d803be4 	str	q4, [sp, #224]
    8e20:	3d803fe5 	str	q5, [sp, #240]
    8e24:	3d8043e6 	str	q6, [sp, #256]
    8e28:	3d8047e7 	str	q7, [sp, #272]
    8e2c:	a9128be1 	stp	x1, x2, [sp, #296]
    8e30:	a91393e3 	stp	x3, x4, [sp, #312]
    8e34:	a9149be5 	stp	x5, x6, [sp, #328]
    8e38:	f900afe7 	str	x7, [sp, #344]
    8e3c:	f9400120 	ldr	x0, [x9]
    8e40:	f9400101 	ldr	x1, [x8]
    8e44:	f9004fe1 	str	x1, [sp, #152]
    8e48:	d2800001 	mov	x1, #0x0                   	// #0
    8e4c:	f0000333 	adrp	x19, 6f000 <error@@Base+0x648f8>
    8e50:	f947ce73 	ldr	x19, [x19, #3992]
    8e54:	97fffeab 	bl	8900 <fflush@plt>
    8e58:	910483e5 	add	x5, sp, #0x120
    8e5c:	910583e6 	add	x6, sp, #0x160
    8e60:	128006e4 	mov	w4, #0xffffffc8            	// #-56
    8e64:	12800fe3 	mov	w3, #0xffffff80            	// #-128
    8e68:	f9400275 	ldr	x21, [x19]
    8e6c:	528000a2 	mov	w2, #0x5                   	// #5
    8e70:	d00001c1 	adrp	x1, 42000 <error@@Base+0x378f8>
    8e74:	d2800000 	mov	x0, #0x0                   	// #0
    8e78:	91086021 	add	x1, x1, #0x218
    8e7c:	a9059be6 	stp	x6, x6, [sp, #88]
    8e80:	f90037e5 	str	x5, [sp, #104]
    8e84:	290e0fe4 	stp	w4, w3, [sp, #112]
    8e88:	97fffee2 	bl	8a10 <dcgettext@plt>
    8e8c:	b0000341 	adrp	x1, 71000 <error@@Base+0x668f8>
    8e90:	aa0003e2 	mov	x2, x0
    8e94:	aa1503e0 	mov	x0, x21
    8e98:	f9468023 	ldr	x3, [x1, #3328]
    8e9c:	52800021 	mov	w1, #0x1                   	// #1
    8ea0:	97fffe48 	bl	87c0 <__fprintf_chk@plt>
    8ea4:	910163e0 	add	x0, sp, #0x58
    8ea8:	9101e3e4 	add	x4, sp, #0x78
    8eac:	9100c3e3 	add	x3, sp, #0x30
    8eb0:	aa1403e2 	mov	x2, x20
    8eb4:	52800021 	mov	w1, #0x1                   	// #1
    8eb8:	ad400400 	ldp	q0, q1, [x0]
    8ebc:	f9400260 	ldr	x0, [x19]
    8ec0:	ad000480 	stp	q0, q1, [x4]
    8ec4:	ad000460 	stp	q0, q1, [x3]
    8ec8:	97fffdc6 	bl	85e0 <__vfprintf_chk@plt>
    8ecc:	f0000320 	adrp	x0, 6f000 <error@@Base+0x648f8>
    8ed0:	f947e400 	ldr	x0, [x0, #4040]
    8ed4:	f9404fe2 	ldr	x2, [sp, #152]
    8ed8:	f9400001 	ldr	x1, [x0]
    8edc:	eb010042 	subs	x2, x2, x1
    8ee0:	d2800001 	mov	x1, #0x0                   	// #0
    8ee4:	54000040 	b.eq	8eec <warn@@Base+0x104>  // b.none
    8ee8:	97fffdea 	bl	8690 <__stack_chk_fail@plt>
    8eec:	a94153f3 	ldp	x19, x20, [sp, #16]
    8ef0:	f94013f5 	ldr	x21, [sp, #32]
    8ef4:	a8d67bfd 	ldp	x29, x30, [sp], #352
    8ef8:	d65f03c0 	ret
    8efc:	a9bc7bfd 	stp	x29, x30, [sp, #-64]!
    8f00:	52800001 	mov	w1, #0x0                   	// #0
    8f04:	910003fd 	mov	x29, sp
    8f08:	a90153f3 	stp	x19, x20, [sp, #16]
    8f0c:	aa0003f4 	mov	x20, x0
    8f10:	a9025bf5 	stp	x21, x22, [sp, #32]
    8f14:	f9001bf7 	str	x23, [sp, #48]
    8f18:	9400a903 	bl	33324 <error@@Base+0x28c1c>
    8f1c:	f9401e97 	ldr	x23, [x20, #56]
    8f20:	f9401696 	ldr	x22, [x20, #40]
    8f24:	aa1703e1 	mov	x1, x23
    8f28:	aa1603e0 	mov	x0, x22
    8f2c:	97fffcf1 	bl	82f0 <strnlen@plt>
    8f30:	eb2042ff 	cmp	x23, w0, uxtw
    8f34:	54000101 	b.ne	8f54 <warn@@Base+0x16c>  // b.any
    8f38:	d00001c1 	adrp	x1, 42000 <error@@Base+0x378f8>
    8f3c:	91092021 	add	x1, x1, #0x248
    8f40:	528000a2 	mov	w2, #0x5                   	// #5
    8f44:	d2800000 	mov	x0, #0x0                   	// #0
    8f48:	97fffeb2 	bl	8a10 <dcgettext@plt>
    8f4c:	97ffffa7 	bl	8de8 <warn@@Base>
    8f50:	1400001e 	b	8fc8 <warn@@Base+0x1e0>
    8f54:	528000a2 	mov	w2, #0x5                   	// #5
    8f58:	aa0003f3 	mov	x19, x0
    8f5c:	92407c15 	and	x21, x0, #0xffffffff
    8f60:	d00001c1 	adrp	x1, 42000 <error@@Base+0x378f8>
    8f64:	d2800000 	mov	x0, #0x0                   	// #0
    8f68:	9109e021 	add	x1, x1, #0x278
    8f6c:	97fffea9 	bl	8a10 <dcgettext@plt>
    8f70:	aa0003e1 	mov	x1, x0
    8f74:	aa1603e2 	mov	x2, x22
    8f78:	52800020 	mov	w0, #0x1                   	// #1
    8f7c:	97fffd7d 	bl	8570 <__printf_chk@plt>
    8f80:	f9400e80 	ldr	x0, [x20, #24]
    8f84:	b00001c1 	adrp	x1, 41000 <error@@Base+0x368f8>
    8f88:	910a2021 	add	x1, x1, #0x288
    8f8c:	94009931 	bl	2f450 <error@@Base+0x24d48>
    8f90:	f9401e82 	ldr	x2, [x20, #56]
    8f94:	72001c1f 	tst	w0, #0xff
    8f98:	54000520 	b.eq	903c <warn@@Base+0x254>  // b.none
    8f9c:	11001273 	add	w19, w19, #0x4
    8fa0:	121e7673 	and	w19, w19, #0xfffffffc
    8fa4:	11001275 	add	w21, w19, #0x4
    8fa8:	eb35405f 	cmp	x2, w21, uxtw
    8fac:	54000122 	b.cs	8fd0 <warn@@Base+0x1e8>  // b.hs, b.nlast
    8fb0:	d00001c1 	adrp	x1, 42000 <error@@Base+0x378f8>
    8fb4:	910a6021 	add	x1, x1, #0x298
    8fb8:	528000a2 	mov	w2, #0x5                   	// #5
    8fbc:	d2800000 	mov	x0, #0x0                   	// #0
    8fc0:	97fffe94 	bl	8a10 <dcgettext@plt>
    8fc4:	97ffff89 	bl	8de8 <warn@@Base>
    8fc8:	52800000 	mov	w0, #0x0                   	// #0
    8fcc:	14000043 	b	90d8 <warn@@Base+0x2f0>
    8fd0:	b0000342 	adrp	x2, 71000 <error@@Base+0x668f8>
    8fd4:	8b3342c0 	add	x0, x22, w19, uxtw
    8fd8:	52800081 	mov	w1, #0x4                   	// #4
    8fdc:	f9473c42 	ldr	x2, [x2, #3704]
    8fe0:	d63f0040 	blr	x2
    8fe4:	aa0003f3 	mov	x19, x0
    8fe8:	528000a2 	mov	w2, #0x5                   	// #5
    8fec:	d00001c1 	adrp	x1, 42000 <error@@Base+0x378f8>
    8ff0:	d2800000 	mov	x0, #0x0                   	// #0
    8ff4:	910ae021 	add	x1, x1, #0x2b8
    8ff8:	97fffe86 	bl	8a10 <dcgettext@plt>
    8ffc:	aa0003e1 	mov	x1, x0
    9000:	2a1303e2 	mov	w2, w19
    9004:	52800020 	mov	w0, #0x1                   	// #1
    9008:	97fffd5a 	bl	8570 <__printf_chk@plt>
    900c:	f9401e80 	ldr	x0, [x20, #56]
    9010:	eb0002bf 	cmp	x21, x0
    9014:	54000562 	b.cs	90c0 <warn@@Base+0x2d8>  // b.hs, b.nlast
    9018:	528000a2 	mov	w2, #0x5                   	// #5
    901c:	b00001c1 	adrp	x1, 42000 <error@@Base+0x378f8>
    9020:	d2800000 	mov	x0, #0x0                   	// #0
    9024:	910b4021 	add	x1, x1, #0x2d0
    9028:	97fffe7a 	bl	8a10 <dcgettext@plt>
    902c:	f9401e81 	ldr	x1, [x20, #56]
    9030:	cb150021 	sub	x1, x1, x21
    9034:	97ffff6d 	bl	8de8 <warn@@Base>
    9038:	17ffffe4 	b	8fc8 <warn@@Base+0x1e0>
    903c:	f9401694 	ldr	x20, [x20, #40]
    9040:	11000673 	add	w19, w19, #0x1
    9044:	910006b5 	add	x21, x21, #0x1
    9048:	cb130053 	sub	x19, x2, x19
    904c:	8b150294 	add	x20, x20, x21
    9050:	f1004e7f 	cmp	x19, #0x13
    9054:	54000128 	b.hi	9078 <warn@@Base+0x290>  // b.pmore
    9058:	528000a2 	mov	w2, #0x5                   	// #5
    905c:	b00001c1 	adrp	x1, 42000 <error@@Base+0x378f8>
    9060:	d2800000 	mov	x0, #0x0                   	// #0
    9064:	910c4021 	add	x1, x1, #0x310
    9068:	97fffe6a 	bl	8a10 <dcgettext@plt>
    906c:	aa1303e1 	mov	x1, x19
    9070:	97ffff5e 	bl	8de8 <warn@@Base>
    9074:	17ffffd5 	b	8fc8 <warn@@Base+0x1e0>
    9078:	528000a2 	mov	w2, #0x5                   	// #5
    907c:	b00001c1 	adrp	x1, 42000 <error@@Base+0x378f8>
    9080:	d2800000 	mov	x0, #0x0                   	// #0
    9084:	910ce021 	add	x1, x1, #0x338
    9088:	97fffe62 	bl	8a10 <dcgettext@plt>
    908c:	aa0003e1 	mov	x1, x0
    9090:	aa1303e2 	mov	x2, x19
    9094:	52800020 	mov	w0, #0x1                   	// #1
    9098:	97fffd36 	bl	8570 <__printf_chk@plt>
    909c:	93407c00 	sxtw	x0, w0
    90a0:	aa1403e1 	mov	x1, x20
    90a4:	aa1303e2 	mov	x2, x19
    90a8:	9400b303 	bl	35cb4 <error@@Base+0x2b5ac>
    90ac:	d0000321 	adrp	x1, 6f000 <error@@Base+0x648f8>
    90b0:	f947dc21 	ldr	x1, [x1, #4024]
    90b4:	52800140 	mov	w0, #0xa                   	// #10
    90b8:	f9400021 	ldr	x1, [x1]
    90bc:	97fffcb1 	bl	8380 <putc@plt>
    90c0:	d0000321 	adrp	x1, 6f000 <error@@Base+0x648f8>
    90c4:	f947dc21 	ldr	x1, [x1, #4024]
    90c8:	52800140 	mov	w0, #0xa                   	// #10
    90cc:	f9400021 	ldr	x1, [x1]
    90d0:	97fffcac 	bl	8380 <putc@plt>
    90d4:	52800020 	mov	w0, #0x1                   	// #1
    90d8:	a94153f3 	ldp	x19, x20, [sp, #16]
    90dc:	a9425bf5 	ldp	x21, x22, [sp, #32]
    90e0:	f9401bf7 	ldr	x23, [sp, #48]
    90e4:	a8c47bfd 	ldp	x29, x30, [sp], #64
    90e8:	d65f03c0 	ret
    90ec:	a9bf7bfd 	stp	x29, x30, [sp, #-16]!
    90f0:	52800004 	mov	w4, #0x0                   	// #0
    90f4:	52800003 	mov	w3, #0x0                   	// #0
    90f8:	910003fd 	mov	x29, sp
    90fc:	b9404002 	ldr	w2, [x0, #64]
    9100:	940091d4 	bl	2d850 <error@@Base+0x23148>
    9104:	12001c00 	and	w0, w0, #0xff
    9108:	a8c17bfd 	ldp	x29, x30, [sp], #16
    910c:	d65f03c0 	ret
    9110:	a9b27bfd 	stp	x29, x30, [sp, #-224]!
    9114:	910003fd 	mov	x29, sp
    9118:	d0000322 	adrp	x2, 6f000 <error@@Base+0x648f8>
    911c:	f947e442 	ldr	x2, [x2, #4040]
    9120:	a9025bf5 	stp	x21, x22, [sp, #32]
    9124:	aa0003f6 	mov	x22, x0
    9128:	a90153f3 	stp	x19, x20, [sp, #16]
    912c:	aa0103f3 	mov	x19, x1
    9130:	b00001c1 	adrp	x1, 42000 <error@@Base+0x378f8>
    9134:	a90363f7 	stp	x23, x24, [sp, #48]
    9138:	91122021 	add	x1, x1, #0x488
    913c:	a9046bf9 	stp	x25, x26, [sp, #64]
    9140:	a90573fb 	stp	x27, x28, [sp, #80]
    9144:	f9400c00 	ldr	x0, [x0, #24]
    9148:	f9400043 	ldr	x3, [x2]
    914c:	f9006fe3 	str	x3, [sp, #216]
    9150:	d2800003 	mov	x3, #0x0                   	// #0
    9154:	f9401ec2 	ldr	x2, [x22, #56]
    9158:	f90047e2 	str	x2, [sp, #136]
    915c:	97fffe1d 	bl	89d0 <strstr@plt>
    9160:	aa0003f4 	mov	x20, x0
    9164:	f94047e0 	ldr	x0, [sp, #136]
    9168:	f94016db 	ldr	x27, [x22, #40]
    916c:	b5000140 	cbnz	x0, 9194 <warn@@Base+0x3ac>
    9170:	528000a2 	mov	w2, #0x5                   	// #5
    9174:	b00001c1 	adrp	x1, 42000 <error@@Base+0x378f8>
    9178:	91126021 	add	x1, x1, #0x498
    917c:	97fffe25 	bl	8a10 <dcgettext@plt>
    9180:	f9400ec2 	ldr	x2, [x22, #24]
    9184:	aa0003e1 	mov	x1, x0
    9188:	52800020 	mov	w0, #0x1                   	// #1
    918c:	97fffcf9 	bl	8570 <__printf_chk@plt>
    9190:	140002c8 	b	9cb0 <warn@@Base+0xec8>
    9194:	aa1603e0 	mov	x0, x22
    9198:	52800001 	mov	w1, #0x0                   	// #0
    919c:	9400a862 	bl	33324 <error@@Base+0x28c1c>
    91a0:	b4005654 	cbz	x20, 9c68 <warn@@Base+0xe80>
    91a4:	f94016d4 	ldr	x20, [x22, #40]
    91a8:	b00001c0 	adrp	x0, 42000 <error@@Base+0x378f8>
    91ac:	f9401ed9 	ldr	x25, [x22, #56]
    91b0:	91146000 	add	x0, x0, #0x518
    91b4:	9000035a 	adrp	x26, 71000 <error@@Base+0x668f8>
    91b8:	f90063e0 	str	x0, [sp, #192]
    91bc:	8b190299 	add	x25, x20, x25
    91c0:	eb14033f 	cmp	x25, x20
    91c4:	54005449 	b.ls	9c4c <warn@@Base+0xe64>  // b.plast
    91c8:	f94016c3 	ldr	x3, [x22, #40]
    91cc:	cb140333 	sub	x19, x25, x20
    91d0:	f9473f42 	ldr	x2, [x26, #3704]
    91d4:	cb030283 	sub	x3, x20, x3
    91d8:	f100127f 	cmp	x19, #0x4
    91dc:	d2800081 	mov	x1, #0x4                   	// #4
    91e0:	9a81d273 	csel	x19, x19, x1, le
    91e4:	aa1403e0 	mov	x0, x20
    91e8:	2a1303e1 	mov	w1, w19
    91ec:	f90037e3 	str	x3, [sp, #104]
    91f0:	d63f0040 	blr	x2
    91f4:	8b130293 	add	x19, x20, x19
    91f8:	52800098 	mov	w24, #0x4                   	// #4
    91fc:	aa0003f4 	mov	x20, x0
    9200:	b2407fe1 	mov	x1, #0xffffffff            	// #4294967295
    9204:	eb01001f 	cmp	x0, x1
    9208:	540001e1 	b.ne	9244 <warn@@Base+0x45c>  // b.any
    920c:	eb13033c 	subs	x28, x25, x19
    9210:	540005c3 	b.cc	92c8 <warn@@Base+0x4e0>  // b.lo, b.ul, b.last
    9214:	f1001f9f 	cmp	x28, #0x7
    9218:	54000068 	b.hi	9224 <warn@@Base+0x43c>  // b.pmore
    921c:	b400061c 	cbz	x28, 92dc <warn@@Base+0x4f4>
    9220:	14000002 	b	9228 <warn@@Base+0x440>
    9224:	d280011c 	mov	x28, #0x8                   	// #8
    9228:	f9473f42 	ldr	x2, [x26, #3704]
    922c:	aa1303e0 	mov	x0, x19
    9230:	2a1c03e1 	mov	w1, w28
    9234:	8b1c0273 	add	x19, x19, x28
    9238:	52800118 	mov	w24, #0x8                   	// #8
    923c:	d63f0040 	blr	x2
    9240:	aa0003f4 	mov	x20, x0
    9244:	cb13033c 	sub	x28, x25, x19
    9248:	eb14039f 	cmp	x28, x20
    924c:	54000222 	b.cs	9290 <warn@@Base+0x4a8>  // b.hs, b.nlast
    9250:	f94016c1 	ldr	x1, [x22, #40]
    9254:	aa1603e0 	mov	x0, x22
    9258:	cb010261 	sub	x1, x19, x1
    925c:	cb384021 	sub	x1, x1, w24, uxtw
    9260:	94004112 	bl	196a8 <error@@Base+0xefa0>
    9264:	72001c1f 	tst	w0, #0xff
    9268:	54000121 	b.ne	928c <warn@@Base+0x4a4>  // b.any
    926c:	528000a2 	mov	w2, #0x5                   	// #5
    9270:	b00001c1 	adrp	x1, 42000 <error@@Base+0x378f8>
    9274:	d2800000 	mov	x0, #0x0                   	// #0
    9278:	9112e021 	add	x1, x1, #0x4b8
    927c:	97fffde5 	bl	8a10 <dcgettext@plt>
    9280:	aa1403e1 	mov	x1, x20
    9284:	97fffed9 	bl	8de8 <warn@@Base>
    9288:	1400028a 	b	9cb0 <warn@@Base+0xec8>
    928c:	aa1c03f4 	mov	x20, x28
    9290:	eb13033f 	cmp	x25, x19
    9294:	540002c3 	b.cc	92ec <warn@@Base+0x504>  // b.lo, b.ul, b.last
    9298:	f100079f 	cmp	x28, #0x1
    929c:	54000088 	b.hi	92ac <warn@@Base+0x4c4>  // b.pmore
    92a0:	b40002dc 	cbz	x28, 92f8 <warn@@Base+0x510>
    92a4:	d280003c 	mov	x28, #0x1                   	// #1
    92a8:	14000002 	b	92b0 <warn@@Base+0x4c8>
    92ac:	d280005c 	mov	x28, #0x2                   	// #2
    92b0:	f9473f42 	ldr	x2, [x26, #3704]
    92b4:	2a1c03e1 	mov	w1, w28
    92b8:	aa1303e0 	mov	x0, x19
    92bc:	d63f0040 	blr	x2
    92c0:	12003c15 	and	w21, w0, #0xffff
    92c4:	1400000e 	b	92fc <warn@@Base+0x514>
    92c8:	52800118 	mov	w24, #0x8                   	// #8
    92cc:	d2800014 	mov	x20, #0x0                   	// #0
    92d0:	d280001c 	mov	x28, #0x0                   	// #0
    92d4:	52800015 	mov	w21, #0x0                   	// #0
    92d8:	14000009 	b	92fc <warn@@Base+0x514>
    92dc:	d2800014 	mov	x20, #0x0                   	// #0
    92e0:	52800118 	mov	w24, #0x8                   	// #8
    92e4:	52800015 	mov	w21, #0x0                   	// #0
    92e8:	14000005 	b	92fc <warn@@Base+0x514>
    92ec:	d280001c 	mov	x28, #0x0                   	// #0
    92f0:	52800015 	mov	w21, #0x0                   	// #0
    92f4:	14000002 	b	92fc <warn@@Base+0x514>
    92f8:	52800015 	mov	w21, #0x0                   	// #0
    92fc:	8b1c027c 	add	x28, x19, x28
    9300:	eb1c033f 	cmp	x25, x28
    9304:	54000109 	b.ls	9324 <warn@@Base+0x53c>  // b.plast
    9308:	f9473f42 	ldr	x2, [x26, #3704]
    930c:	aa1c03e0 	mov	x0, x28
    9310:	52800021 	mov	w1, #0x1                   	// #1
    9314:	d63f0040 	blr	x2
    9318:	12001c17 	and	w23, w0, #0xff
    931c:	d2800020 	mov	x0, #0x1                   	// #1
    9320:	14000003 	b	932c <warn@@Base+0x544>
    9324:	d2800000 	mov	x0, #0x0                   	// #0
    9328:	52800017 	mov	w23, #0x0                   	// #0
    932c:	8b00039c 	add	x28, x28, x0
    9330:	eb1c033f 	cmp	x25, x28
    9334:	54000109 	b.ls	9354 <warn@@Base+0x56c>  // b.plast
    9338:	f9473f42 	ldr	x2, [x26, #3704]
    933c:	aa1c03e0 	mov	x0, x28
    9340:	52800021 	mov	w1, #0x1                   	// #1
    9344:	d63f0040 	blr	x2
    9348:	12001c1b 	and	w27, w0, #0xff
    934c:	d2800020 	mov	x0, #0x1                   	// #1
    9350:	14000003 	b	935c <warn@@Base+0x574>
    9354:	d2800000 	mov	x0, #0x0                   	// #0
    9358:	5280001b 	mov	w27, #0x0                   	// #0
    935c:	8b000383 	add	x3, x28, x0
    9360:	eb03033c 	subs	x28, x25, x3
    9364:	540001c3 	b.cc	939c <warn@@Base+0x5b4>  // b.lo, b.ul, b.last
    9368:	f1000f9f 	cmp	x28, #0x3
    936c:	54000068 	b.hi	9378 <warn@@Base+0x590>  // b.pmore
    9370:	b40001dc 	cbz	x28, 93a8 <warn@@Base+0x5c0>
    9374:	14000002 	b	937c <warn@@Base+0x594>
    9378:	d280009c 	mov	x28, #0x4                   	// #4
    937c:	f9473f42 	ldr	x2, [x26, #3704]
    9380:	aa0303e0 	mov	x0, x3
    9384:	2a1c03e1 	mov	w1, w28
    9388:	f9003fe3 	str	x3, [sp, #120]
    938c:	d63f0040 	blr	x2
    9390:	b90073e0 	str	w0, [sp, #112]
    9394:	f9403fe3 	ldr	x3, [sp, #120]
    9398:	14000005 	b	93ac <warn@@Base+0x5c4>
    939c:	d280001c 	mov	x28, #0x0                   	// #0
    93a0:	b90073ff 	str	wzr, [sp, #112]
    93a4:	14000002 	b	93ac <warn@@Base+0x5c4>
    93a8:	b90073ff 	str	wzr, [sp, #112]
    93ac:	f94063e1 	ldr	x1, [sp, #192]
    93b0:	528000a2 	mov	w2, #0x5                   	// #5
    93b4:	d2800000 	mov	x0, #0x0                   	// #0
    93b8:	f9003fe3 	str	x3, [sp, #120]
    93bc:	97fffd95 	bl	8a10 <dcgettext@plt>
    93c0:	aa0003e1 	mov	x1, x0
    93c4:	f94037e2 	ldr	x2, [sp, #104]
    93c8:	52800020 	mov	w0, #0x1                   	// #1
    93cc:	97fffc69 	bl	8570 <__printf_chk@plt>
    93d0:	528000a2 	mov	w2, #0x5                   	// #5
    93d4:	b00001c1 	adrp	x1, 42000 <error@@Base+0x378f8>
    93d8:	d2800000 	mov	x0, #0x0                   	// #0
    93dc:	9114e021 	add	x1, x1, #0x538
    93e0:	97fffd8c 	bl	8a10 <dcgettext@plt>
    93e4:	aa0003e1 	mov	x1, x0
    93e8:	aa1403e2 	mov	x2, x20
    93ec:	52800020 	mov	w0, #0x1                   	// #1
    93f0:	97fffc60 	bl	8570 <__printf_chk@plt>
    93f4:	528000a2 	mov	w2, #0x5                   	// #5
    93f8:	b00001c1 	adrp	x1, 42000 <error@@Base+0x378f8>
    93fc:	d2800000 	mov	x0, #0x0                   	// #0
    9400:	91156021 	add	x1, x1, #0x558
    9404:	97fffd83 	bl	8a10 <dcgettext@plt>
    9408:	aa0003e1 	mov	x1, x0
    940c:	2a1503e2 	mov	w2, w21
    9410:	52800020 	mov	w0, #0x1                   	// #1
    9414:	97fffc57 	bl	8570 <__printf_chk@plt>
    9418:	528000a2 	mov	w2, #0x5                   	// #5
    941c:	b00001c1 	adrp	x1, 42000 <error@@Base+0x378f8>
    9420:	d2800000 	mov	x0, #0x0                   	// #0
    9424:	9115c021 	add	x1, x1, #0x570
    9428:	97fffd7a 	bl	8a10 <dcgettext@plt>
    942c:	aa0003e1 	mov	x1, x0
    9430:	2a1703e2 	mov	w2, w23
    9434:	52800020 	mov	w0, #0x1                   	// #1
    9438:	97fffc4e 	bl	8570 <__printf_chk@plt>
    943c:	528000a2 	mov	w2, #0x5                   	// #5
    9440:	b00001c1 	adrp	x1, 42000 <error@@Base+0x378f8>
    9444:	d2800000 	mov	x0, #0x0                   	// #0
    9448:	91162021 	add	x1, x1, #0x588
    944c:	97fffd71 	bl	8a10 <dcgettext@plt>
    9450:	aa0003e1 	mov	x1, x0
    9454:	2a1b03e2 	mov	w2, w27
    9458:	52800020 	mov	w0, #0x1                   	// #1
    945c:	97fffc45 	bl	8570 <__printf_chk@plt>
    9460:	528000a2 	mov	w2, #0x5                   	// #5
    9464:	b00001c1 	adrp	x1, 42000 <error@@Base+0x378f8>
    9468:	d2800000 	mov	x0, #0x0                   	// #0
    946c:	91168021 	add	x1, x1, #0x5a0
    9470:	97fffd68 	bl	8a10 <dcgettext@plt>
    9474:	aa0003e1 	mov	x1, x0
    9478:	f9403fe3 	ldr	x3, [sp, #120]
    947c:	b94073e2 	ldr	w2, [sp, #112]
    9480:	8b1c0060 	add	x0, x3, x28
    9484:	f90043e0 	str	x0, [sp, #128]
    9488:	52800020 	mov	w0, #0x1                   	// #1
    948c:	97fffc39 	bl	8570 <__printf_chk@plt>
    9490:	3400015b 	cbz	w27, 94b8 <warn@@Base+0x6d0>
    9494:	528000a2 	mov	w2, #0x5                   	// #5
    9498:	b00001c1 	adrp	x1, 42000 <error@@Base+0x378f8>
    949c:	d2800000 	mov	x0, #0x0                   	// #0
    94a0:	9116e021 	add	x1, x1, #0x5b8
    94a4:	97fffd5b 	bl	8a10 <dcgettext@plt>
    94a8:	f9400ec1 	ldr	x1, [x22, #24]
    94ac:	2a1b03e2 	mov	w2, w27
    94b0:	97fffe4e 	bl	8de8 <warn@@Base>
    94b4:	140001ff 	b	9cb0 <warn@@Base+0xec8>
    94b8:	710012bf 	cmp	w21, #0x4
    94bc:	54000108 	b.hi	94dc <warn@@Base+0x6f4>  // b.pmore
    94c0:	b00001c1 	adrp	x1, 42000 <error@@Base+0x378f8>
    94c4:	9117e021 	add	x1, x1, #0x5f8
    94c8:	528000a2 	mov	w2, #0x5                   	// #5
    94cc:	d2800000 	mov	x0, #0x0                   	// #0
    94d0:	97fffd50 	bl	8a10 <dcgettext@plt>
    94d4:	97fffe45 	bl	8de8 <warn@@Base>
    94d8:	140001f6 	b	9cb0 <warn@@Base+0xec8>
    94dc:	b94073e0 	ldr	w0, [sp, #112]
    94e0:	34000680 	cbz	w0, 95b0 <warn@@Base+0x7c8>
    94e4:	528000a2 	mov	w2, #0x5                   	// #5
    94e8:	b00001c1 	adrp	x1, 42000 <error@@Base+0x378f8>
    94ec:	d2800000 	mov	x0, #0x0                   	// #0
    94f0:	91190021 	add	x1, x1, #0x640
    94f4:	97fffd47 	bl	8a10 <dcgettext@plt>
    94f8:	2a1803fc 	mov	w28, w24
    94fc:	f94043e3 	ldr	x3, [sp, #128]
    9500:	aa0003e1 	mov	x1, x0
    9504:	f94016c2 	ldr	x2, [x22, #40]
    9508:	52800020 	mov	w0, #0x1                   	// #1
    950c:	f90037e3 	str	x3, [sp, #104]
    9510:	52800015 	mov	w21, #0x0                   	// #0
    9514:	cb020062 	sub	x2, x3, x2
    9518:	97fffc16 	bl	8570 <__printf_chk@plt>
    951c:	b00001c0 	adrp	x0, 42000 <error@@Base+0x378f8>
    9520:	91198000 	add	x0, x0, #0x660
    9524:	f9003fe0 	str	x0, [sp, #120]
    9528:	f94037e0 	ldr	x0, [sp, #104]
    952c:	cb000324 	sub	x4, x25, x0
    9530:	eb19001f 	cmp	x0, x25
    9534:	54000128 	b.hi	9558 <warn@@Base+0x770>  // b.pmore
    9538:	eb04039f 	cmp	x28, x4
    953c:	9a84939b 	csel	x27, x28, x4, ls	// ls = plast
    9540:	b400013b 	cbz	x27, 9564 <warn@@Base+0x77c>
    9544:	f9473f42 	ldr	x2, [x26, #3704]
    9548:	2a1b03e1 	mov	w1, w27
    954c:	d63f0040 	blr	x2
    9550:	aa0003e3 	mov	x3, x0
    9554:	14000005 	b	9568 <warn@@Base+0x780>
    9558:	d280001b 	mov	x27, #0x0                   	// #0
    955c:	d2800003 	mov	x3, #0x0                   	// #0
    9560:	14000002 	b	9568 <warn@@Base+0x780>
    9564:	d2800003 	mov	x3, #0x0                   	// #0
    9568:	f9403fe1 	ldr	x1, [sp, #120]
    956c:	528000a2 	mov	w2, #0x5                   	// #5
    9570:	d2800000 	mov	x0, #0x0                   	// #0
    9574:	f90047e3 	str	x3, [sp, #136]
    9578:	97fffd26 	bl	8a10 <dcgettext@plt>
    957c:	aa0003e1 	mov	x1, x0
    9580:	f94047e3 	ldr	x3, [sp, #136]
    9584:	2a1503e2 	mov	w2, w21
    9588:	52800020 	mov	w0, #0x1                   	// #1
    958c:	110006b5 	add	w21, w21, #0x1
    9590:	97fffbf8 	bl	8570 <__printf_chk@plt>
    9594:	f94037e0 	ldr	x0, [sp, #104]
    9598:	8b1b0000 	add	x0, x0, x27
    959c:	f90037e0 	str	x0, [sp, #104]
    95a0:	b94073e0 	ldr	w0, [sp, #112]
    95a4:	6b15001f 	cmp	w0, w21
    95a8:	54fffc01 	b.ne	9528 <warn@@Base+0x740>  // b.any
    95ac:	14000005 	b	95c0 <warn@@Base+0x7d8>
    95b0:	f94043e0 	ldr	x0, [sp, #128]
    95b4:	f90037e0 	str	x0, [sp, #104]
    95b8:	52800020 	mov	w0, #0x1                   	// #1
    95bc:	b90073e0 	str	w0, [sp, #112]
    95c0:	7100131f 	cmp	w24, #0x4
    95c4:	52800101 	mov	w1, #0x8                   	// #8
    95c8:	52800200 	mov	w0, #0x10                  	// #16
    95cc:	1a800020 	csel	w0, w1, w0, eq	// eq = none
    95d0:	2a1703f8 	mov	w24, w23
    95d4:	b900b3e0 	str	w0, [sp, #176]
    95d8:	b00001a0 	adrp	x0, 3e000 <error@@Base+0x338f8>
    95dc:	91318000 	add	x0, x0, #0xc60
    95e0:	f100231f 	cmp	x24, #0x8
    95e4:	8b140274 	add	x20, x19, x20
    95e8:	f9005fe0 	str	x0, [sp, #184]
    95ec:	d2800101 	mov	x1, #0x8                   	// #8
    95f0:	d0000320 	adrp	x0, 6f000 <error@@Base+0x648f8>
    95f4:	f947dc00 	ldr	x0, [x0, #4024]
    95f8:	9a819301 	csel	x1, x24, x1, ls	// ls = plast
    95fc:	b9009bff 	str	wzr, [sp, #152]
    9600:	f90053e0 	str	x0, [sp, #160]
    9604:	f90057e1 	str	x1, [sp, #168]
    9608:	f94016c0 	ldr	x0, [x22, #40]
    960c:	528000a2 	mov	w2, #0x5                   	// #5
    9610:	f94037e3 	ldr	x3, [sp, #104]
    9614:	b00001c1 	adrp	x1, 42000 <error@@Base+0x378f8>
    9618:	9119c021 	add	x1, x1, #0x670
    961c:	cb000060 	sub	x0, x3, x0
    9620:	f9004be0 	str	x0, [sp, #144]
    9624:	d2800000 	mov	x0, #0x0                   	// #0
    9628:	97fffcfa 	bl	8a10 <dcgettext@plt>
    962c:	f94037e1 	ldr	x1, [sp, #104]
    9630:	f94043e2 	ldr	x2, [sp, #128]
    9634:	cb020023 	sub	x3, x1, x2
    9638:	aa0003e1 	mov	x1, x0
    963c:	f9404be2 	ldr	x2, [sp, #144]
    9640:	52800020 	mov	w0, #0x1                   	// #1
    9644:	97fffbcb 	bl	8570 <__printf_chk@plt>
    9648:	f9003fff 	str	xzr, [sp, #120]
    964c:	528000a2 	mov	w2, #0x5                   	// #5
    9650:	b00001c1 	adrp	x1, 42000 <error@@Base+0x378f8>
    9654:	f94037f3 	ldr	x19, [sp, #104]
    9658:	911a4021 	add	x1, x1, #0x690
    965c:	d2800000 	mov	x0, #0x0                   	// #0
    9660:	97fffcec 	bl	8a10 <dcgettext@plt>
    9664:	aa0003e1 	mov	x1, x0
    9668:	52800020 	mov	w0, #0x1                   	// #1
    966c:	97fffbc1 	bl	8570 <__printf_chk@plt>
    9670:	f94037e0 	ldr	x0, [sp, #104]
    9674:	cb00027c 	sub	x28, x19, x0
    9678:	f9404be0 	ldr	x0, [sp, #144]
    967c:	8b00039c 	add	x28, x28, x0
    9680:	eb13029f 	cmp	x20, x19
    9684:	54000128 	b.hi	96a8 <warn@@Base+0x8c0>  // b.pmore
    9688:	528000a2 	mov	w2, #0x5                   	// #5
    968c:	b00001c1 	adrp	x1, 42000 <error@@Base+0x378f8>
    9690:	d2800000 	mov	x0, #0x0                   	// #0
    9694:	911ac021 	add	x1, x1, #0x6b0
    9698:	97fffcde 	bl	8a10 <dcgettext@plt>
    969c:	f9404be1 	ldr	x1, [sp, #144]
    96a0:	97fffdd2 	bl	8de8 <warn@@Base>
    96a4:	14000162 	b	9c2c <warn@@Base+0xe44>
    96a8:	f9405fe1 	ldr	x1, [sp, #184]
    96ac:	52800020 	mov	w0, #0x1                   	// #1
    96b0:	91000675 	add	x21, x19, #0x1
    96b4:	97fffbaf 	bl	8570 <__printf_chk@plt>
    96b8:	aa1c03e0 	mov	x0, x28
    96bc:	52800081 	mov	w1, #0x4                   	// #4
    96c0:	9400be44 	bl	38fd0 <error@@Base+0x2e8c8>
    96c4:	f9473f42 	ldr	x2, [x26, #3704]
    96c8:	aa1303e0 	mov	x0, x19
    96cc:	52800021 	mov	w1, #0x1                   	// #1
    96d0:	d63f0040 	blr	x2
    96d4:	aa0003fc 	mov	x28, x0
    96d8:	7100101f 	cmp	w0, #0x4
    96dc:	54000f00 	b.eq	98bc <warn@@Base+0xad4>  // b.none
    96e0:	540005c8 	b.hi	9798 <warn@@Base+0x9b0>  // b.pmore
    96e4:	34000680 	cbz	w0, 97b4 <warn@@Base+0x9cc>
    96e8:	71000c1f 	cmp	w0, #0x3
    96ec:	b940b3e0 	ldr	w0, [sp, #176]
    96f0:	f90047e0 	str	x0, [sp, #136]
    96f4:	910353e4 	add	x4, sp, #0xd4
    96f8:	910343f3 	add	x19, sp, #0xd0
    96fc:	54000aa0 	b.eq	9850 <warn@@Base+0xa68>  // b.none
    9700:	7100079f 	cmp	w28, #0x1
    9704:	540006a1 	b.ne	97d8 <warn@@Base+0x9f0>  // b.any
    9708:	aa1303e3 	mov	x3, x19
    970c:	aa1403e1 	mov	x1, x20
    9710:	52800002 	mov	w2, #0x0                   	// #0
    9714:	aa1503e0 	mov	x0, x21
    9718:	9400a6d3 	bl	33264 <error@@Base+0x28b5c>
    971c:	aa0003fb 	mov	x27, x0
    9720:	295a03f3 	ldp	w19, w0, [sp, #208]
    9724:	8b1302b3 	add	x19, x21, x19
    9728:	9400a757 	bl	33484 <error@@Base+0x28d7c>
    972c:	2a1703e1 	mov	w1, w23
    9730:	aa1b03e0 	mov	x0, x27
    9734:	9400be27 	bl	38fd0 <error@@Base+0x2e8c8>
    9738:	528000a2 	mov	w2, #0x5                   	// #5
    973c:	b00001c1 	adrp	x1, 42000 <error@@Base+0x378f8>
    9740:	d2800000 	mov	x0, #0x0                   	// #0
    9744:	911be021 	add	x1, x1, #0x6f8
    9748:	97fffcb2 	bl	8a10 <dcgettext@plt>
    974c:	aa0003e1 	mov	x1, x0
    9750:	2a1c03e0 	mov	w0, w28
    9754:	97fffb87 	bl	8570 <__printf_chk@plt>
    9758:	f94047e0 	ldr	x0, [sp, #136]
    975c:	2a1703e1 	mov	w1, w23
    9760:	9b180360 	madd	x0, x27, x24, x0
    9764:	9400d29f 	bl	3e1e0 <error@@Base+0x33ad8>
    9768:	f9003fe0 	str	x0, [sp, #120]
    976c:	2a1703e1 	mov	w1, w23
    9770:	9400be18 	bl	38fd0 <error@@Base+0x2e8c8>
    9774:	528000a2 	mov	w2, #0x5                   	// #5
    9778:	b00001c1 	adrp	x1, 42000 <error@@Base+0x378f8>
    977c:	d2800000 	mov	x0, #0x0                   	// #0
    9780:	911c4021 	add	x1, x1, #0x710
    9784:	97fffca3 	bl	8a10 <dcgettext@plt>
    9788:	aa0003e1 	mov	x1, x0
    978c:	2a1c03e0 	mov	w0, w28
    9790:	97fffb78 	bl	8570 <__printf_chk@plt>
    9794:	17ffffb7 	b	9670 <warn@@Base+0x888>
    9798:	71001c1f 	cmp	w0, #0x7
    979c:	540019e0 	b.eq	9ad8 <warn@@Base+0xcf0>  // b.none
    97a0:	54001ee8 	b.hi	9b7c <warn@@Base+0xd94>  // b.pmore
    97a4:	7100141f 	cmp	w0, #0x5
    97a8:	cb150293 	sub	x19, x20, x21
    97ac:	54000be0 	b.eq	9928 <warn@@Base+0xb40>  // b.none
    97b0:	14000089 	b	99d4 <warn@@Base+0xbec>
    97b4:	528000a2 	mov	w2, #0x5                   	// #5
    97b8:	b00001c1 	adrp	x1, 42000 <error@@Base+0x378f8>
    97bc:	d2800000 	mov	x0, #0x0                   	// #0
    97c0:	911ba021 	add	x1, x1, #0x6e8
    97c4:	97fffc93 	bl	8a10 <dcgettext@plt>
    97c8:	aa0003e1 	mov	x1, x0
    97cc:	52800020 	mov	w0, #0x1                   	// #1
    97d0:	97fffb68 	bl	8570 <__printf_chk@plt>
    97d4:	1400010c 	b	9c04 <warn@@Base+0xe1c>
    97d8:	aa1303e3 	mov	x3, x19
    97dc:	52800002 	mov	w2, #0x0                   	// #0
    97e0:	aa1403e1 	mov	x1, x20
    97e4:	aa1503e0 	mov	x0, x21
    97e8:	f90067e4 	str	x4, [sp, #200]
    97ec:	9400a69e 	bl	33264 <error@@Base+0x28b5c>
    97f0:	aa0003fb 	mov	x27, x0
    97f4:	295a03e1 	ldp	w1, w0, [sp, #208]
    97f8:	8b0102b5 	add	x21, x21, x1
    97fc:	9400a722 	bl	33484 <error@@Base+0x28d7c>
    9800:	f94067e4 	ldr	x4, [sp, #200]
    9804:	aa1303e3 	mov	x3, x19
    9808:	52800002 	mov	w2, #0x0                   	// #0
    980c:	aa1403e1 	mov	x1, x20
    9810:	aa1503e0 	mov	x0, x21
    9814:	9400a694 	bl	33264 <error@@Base+0x28b5c>
    9818:	295a03f3 	ldp	w19, w0, [sp, #208]
    981c:	8b1302b3 	add	x19, x21, x19
    9820:	9400a719 	bl	33484 <error@@Base+0x28d7c>
    9824:	f94047e0 	ldr	x0, [sp, #136]
    9828:	2a1703e1 	mov	w1, w23
    982c:	9b180360 	madd	x0, x27, x24, x0
    9830:	9400d26c 	bl	3e1e0 <error@@Base+0x33ad8>
    9834:	aa0003fb 	mov	x27, x0
    9838:	f94047e0 	ldr	x0, [sp, #136]
    983c:	2a1703e1 	mov	w1, w23
    9840:	9b180360 	madd	x0, x27, x24, x0
    9844:	9400d267 	bl	3e1e0 <error@@Base+0x33ad8>
    9848:	aa0003fc 	mov	x28, x0
    984c:	140000d4 	b	9b9c <warn@@Base+0xdb4>
    9850:	aa1303e3 	mov	x3, x19
    9854:	52800002 	mov	w2, #0x0                   	// #0
    9858:	aa1403e1 	mov	x1, x20
    985c:	aa1503e0 	mov	x0, x21
    9860:	f90067e4 	str	x4, [sp, #200]
    9864:	9400a680 	bl	33264 <error@@Base+0x28b5c>
    9868:	aa0003fb 	mov	x27, x0
    986c:	295a03e1 	ldp	w1, w0, [sp, #208]
    9870:	8b0102b5 	add	x21, x21, x1
    9874:	9400a704 	bl	33484 <error@@Base+0x28d7c>
    9878:	f94067e4 	ldr	x4, [sp, #200]
    987c:	aa1303e3 	mov	x3, x19
    9880:	aa1403e1 	mov	x1, x20
    9884:	52800002 	mov	w2, #0x0                   	// #0
    9888:	aa1503e0 	mov	x0, x21
    988c:	9400a676 	bl	33264 <error@@Base+0x28b5c>
    9890:	aa0003fc 	mov	x28, x0
    9894:	295a03f3 	ldp	w19, w0, [sp, #208]
    9898:	8b1302b3 	add	x19, x21, x19
    989c:	9400a6fa 	bl	33484 <error@@Base+0x28d7c>
    98a0:	f94047e0 	ldr	x0, [sp, #136]
    98a4:	2a1703e1 	mov	w1, w23
    98a8:	9b180360 	madd	x0, x27, x24, x0
    98ac:	9400d24d 	bl	3e1e0 <error@@Base+0x33ad8>
    98b0:	aa0003fb 	mov	x27, x0
    98b4:	8b00039c 	add	x28, x28, x0
    98b8:	140000b9 	b	9b9c <warn@@Base+0xdb4>
    98bc:	910353fc 	add	x28, sp, #0xd4
    98c0:	910343f3 	add	x19, sp, #0xd0
    98c4:	aa1c03e4 	mov	x4, x28
    98c8:	aa1303e3 	mov	x3, x19
    98cc:	aa1403e1 	mov	x1, x20
    98d0:	aa1503e0 	mov	x0, x21
    98d4:	52800002 	mov	w2, #0x0                   	// #0
    98d8:	9400a663 	bl	33264 <error@@Base+0x28b5c>
    98dc:	f9403fe2 	ldr	x2, [sp, #120]
    98e0:	aa0003e5 	mov	x5, x0
    98e4:	295a03e1 	ldp	w1, w0, [sp, #208]
    98e8:	8b0200bb 	add	x27, x5, x2
    98ec:	8b0102b5 	add	x21, x21, x1
    98f0:	9400a6e5 	bl	33484 <error@@Base+0x28d7c>
    98f4:	aa1c03e4 	mov	x4, x28
    98f8:	aa1303e3 	mov	x3, x19
    98fc:	aa1403e1 	mov	x1, x20
    9900:	aa1503e0 	mov	x0, x21
    9904:	52800002 	mov	w2, #0x0                   	// #0
    9908:	9400a657 	bl	33264 <error@@Base+0x28b5c>
    990c:	f9403fe1 	ldr	x1, [sp, #120]
    9910:	aa0003fc 	mov	x28, x0
    9914:	295a03f3 	ldp	w19, w0, [sp, #208]
    9918:	8b01039c 	add	x28, x28, x1
    991c:	8b1302b3 	add	x19, x21, x19
    9920:	9400a6d9 	bl	33484 <error@@Base+0x28d7c>
    9924:	1400009e 	b	9b9c <warn@@Base+0xdb4>
    9928:	aa1803e0 	mov	x0, x24
    992c:	f100231f 	cmp	x24, #0x8
    9930:	540001a9 	b.ls	9964 <warn@@Base+0xb7c>  // b.plast
    9934:	2a1c03e4 	mov	w4, w28
    9938:	aa1803e3 	mov	x3, x24
    993c:	b00001c2 	adrp	x2, 42000 <error@@Base+0x378f8>
    9940:	b00001c1 	adrp	x1, 42000 <error@@Base+0x378f8>
    9944:	911c8042 	add	x2, x2, #0x720
    9948:	911dc021 	add	x1, x1, #0x770
    994c:	d2800000 	mov	x0, #0x0                   	// #0
    9950:	97fffbe4 	bl	88e0 <dcngettext@plt>
    9954:	2a1703e1 	mov	w1, w23
    9958:	52800102 	mov	w2, #0x8                   	// #8
    995c:	9400036b 	bl	a708 <error@@Base>
    9960:	d2800100 	mov	x0, #0x8                   	// #8
    9964:	eb15029f 	cmp	x20, x21
    9968:	54000143 	b.cc	9990 <warn@@Base+0xba8>  // b.lo, b.ul, b.last
    996c:	eb00027f 	cmp	x19, x0
    9970:	9a809273 	csel	x19, x19, x0, ls	// ls = plast
    9974:	b4000153 	cbz	x19, 999c <warn@@Base+0xbb4>
    9978:	f9473f42 	ldr	x2, [x26, #3704]
    997c:	2a1303e1 	mov	w1, w19
    9980:	aa1503e0 	mov	x0, x21
    9984:	d63f0040 	blr	x2
    9988:	f9003fe0 	str	x0, [sp, #120]
    998c:	14000005 	b	99a0 <warn@@Base+0xbb8>
    9990:	d2800013 	mov	x19, #0x0                   	// #0
    9994:	f9003fff 	str	xzr, [sp, #120]
    9998:	14000002 	b	99a0 <warn@@Base+0xbb8>
    999c:	f9003fff 	str	xzr, [sp, #120]
    99a0:	f9403fe0 	ldr	x0, [sp, #120]
    99a4:	2a1703e1 	mov	w1, w23
    99a8:	8b1302b3 	add	x19, x21, x19
    99ac:	9400bd89 	bl	38fd0 <error@@Base+0x2e8c8>
    99b0:	528000a2 	mov	w2, #0x5                   	// #5
    99b4:	b00001c1 	adrp	x1, 42000 <error@@Base+0x378f8>
    99b8:	d2800000 	mov	x0, #0x0                   	// #0
    99bc:	911c4021 	add	x1, x1, #0x710
    99c0:	97fffc14 	bl	8a10 <dcgettext@plt>
    99c4:	aa0003e1 	mov	x1, x0
    99c8:	52800020 	mov	w0, #0x1                   	// #1
    99cc:	97fffae9 	bl	8570 <__printf_chk@plt>
    99d0:	17ffff28 	b	9670 <warn@@Base+0x888>
    99d4:	f100231f 	cmp	x24, #0x8
    99d8:	540000a8 	b.hi	99ec <warn@@Base+0xc04>  // b.pmore
    99dc:	aa1803fc 	mov	x28, x24
    99e0:	eb15029f 	cmp	x20, x21
    99e4:	54000563 	b.cc	9a90 <warn@@Base+0xca8>  // b.lo, b.ul, b.last
    99e8:	1400000f 	b	9a24 <warn@@Base+0xc3c>
    99ec:	aa1803e3 	mov	x3, x24
    99f0:	528000a4 	mov	w4, #0x5                   	// #5
    99f4:	b00001c2 	adrp	x2, 42000 <error@@Base+0x378f8>
    99f8:	b00001c1 	adrp	x1, 42000 <error@@Base+0x378f8>
    99fc:	911c8042 	add	x2, x2, #0x720
    9a00:	911dc021 	add	x1, x1, #0x770
    9a04:	d2800000 	mov	x0, #0x0                   	// #0
    9a08:	97fffbb6 	bl	88e0 <dcngettext@plt>
    9a0c:	2a1703e1 	mov	w1, w23
    9a10:	52800102 	mov	w2, #0x8                   	// #8
    9a14:	9400033d 	bl	a708 <error@@Base>
    9a18:	d280011c 	mov	x28, #0x8                   	// #8
    9a1c:	eb15029f 	cmp	x20, x21
    9a20:	540001e3 	b.cc	9a5c <warn@@Base+0xc74>  // b.lo, b.ul, b.last
    9a24:	eb13039f 	cmp	x28, x19
    9a28:	9a939393 	csel	x19, x28, x19, ls	// ls = plast
    9a2c:	b40000f3 	cbz	x19, 9a48 <warn@@Base+0xc60>
    9a30:	f9473f42 	ldr	x2, [x26, #3704]
    9a34:	2a1303e1 	mov	w1, w19
    9a38:	aa1503e0 	mov	x0, x21
    9a3c:	d63f0040 	blr	x2
    9a40:	aa0003fb 	mov	x27, x0
    9a44:	14000002 	b	9a4c <warn@@Base+0xc64>
    9a48:	d280001b 	mov	x27, #0x0                   	// #0
    9a4c:	8b1302b5 	add	x21, x21, x19
    9a50:	f100231f 	cmp	x24, #0x8
    9a54:	54000209 	b.ls	9a94 <warn@@Base+0xcac>  // b.plast
    9a58:	14000002 	b	9a60 <warn@@Base+0xc78>
    9a5c:	d280001b 	mov	x27, #0x0                   	// #0
    9a60:	aa1803e3 	mov	x3, x24
    9a64:	528000a4 	mov	w4, #0x5                   	// #5
    9a68:	b00001c2 	adrp	x2, 42000 <error@@Base+0x378f8>
    9a6c:	b00001c1 	adrp	x1, 42000 <error@@Base+0x378f8>
    9a70:	911c8042 	add	x2, x2, #0x720
    9a74:	911dc021 	add	x1, x1, #0x770
    9a78:	d2800000 	mov	x0, #0x0                   	// #0
    9a7c:	97fffb99 	bl	88e0 <dcngettext@plt>
    9a80:	2a1703e1 	mov	w1, w23
    9a84:	52800102 	mov	w2, #0x8                   	// #8
    9a88:	94000320 	bl	a708 <error@@Base>
    9a8c:	14000002 	b	9a94 <warn@@Base+0xcac>
    9a90:	d280001b 	mov	x27, #0x0                   	// #0
    9a94:	eb150293 	subs	x19, x20, x21
    9a98:	54000143 	b.cc	9ac0 <warn@@Base+0xcd8>  // b.lo, b.ul, b.last
    9a9c:	eb1c027f 	cmp	x19, x28
    9aa0:	9a9c9273 	csel	x19, x19, x28, ls	// ls = plast
    9aa4:	b4000153 	cbz	x19, 9acc <warn@@Base+0xce4>
    9aa8:	f9473f42 	ldr	x2, [x26, #3704]
    9aac:	2a1303e1 	mov	w1, w19
    9ab0:	aa1503e0 	mov	x0, x21
    9ab4:	d63f0040 	blr	x2
    9ab8:	aa0003fc 	mov	x28, x0
    9abc:	14000005 	b	9ad0 <warn@@Base+0xce8>
    9ac0:	d2800013 	mov	x19, #0x0                   	// #0
    9ac4:	d280001c 	mov	x28, #0x0                   	// #0
    9ac8:	14000002 	b	9ad0 <warn@@Base+0xce8>
    9acc:	d280001c 	mov	x28, #0x0                   	// #0
    9ad0:	8b1302b3 	add	x19, x21, x19
    9ad4:	14000032 	b	9b9c <warn@@Base+0xdb4>
    9ad8:	f100231f 	cmp	x24, #0x8
    9adc:	54000189 	b.ls	9b0c <warn@@Base+0xd24>  // b.plast
    9ae0:	aa1803e3 	mov	x3, x24
    9ae4:	528000a4 	mov	w4, #0x5                   	// #5
    9ae8:	b00001c2 	adrp	x2, 42000 <error@@Base+0x378f8>
    9aec:	b00001c1 	adrp	x1, 42000 <error@@Base+0x378f8>
    9af0:	911c8042 	add	x2, x2, #0x720
    9af4:	911dc021 	add	x1, x1, #0x770
    9af8:	d2800000 	mov	x0, #0x0                   	// #0
    9afc:	97fffb79 	bl	88e0 <dcngettext@plt>
    9b00:	2a1703e1 	mov	w1, w23
    9b04:	52800102 	mov	w2, #0x8                   	// #8
    9b08:	94000300 	bl	a708 <error@@Base>
    9b0c:	eb150293 	subs	x19, x20, x21
    9b10:	54000163 	b.cc	9b3c <warn@@Base+0xd54>  // b.lo, b.ul, b.last
    9b14:	f94057e0 	ldr	x0, [sp, #168]
    9b18:	eb00027f 	cmp	x19, x0
    9b1c:	9a809273 	csel	x19, x19, x0, ls	// ls = plast
    9b20:	b4000153 	cbz	x19, 9b48 <warn@@Base+0xd60>
    9b24:	f9473f42 	ldr	x2, [x26, #3704]
    9b28:	2a1303e1 	mov	w1, w19
    9b2c:	aa1503e0 	mov	x0, x21
    9b30:	d63f0040 	blr	x2
    9b34:	aa0003fb 	mov	x27, x0
    9b38:	14000005 	b	9b4c <warn@@Base+0xd64>
    9b3c:	d2800013 	mov	x19, #0x0                   	// #0
    9b40:	d280001b 	mov	x27, #0x0                   	// #0
    9b44:	14000002 	b	9b4c <warn@@Base+0xd64>
    9b48:	d280001b 	mov	x27, #0x0                   	// #0
    9b4c:	8b1302b3 	add	x19, x21, x19
    9b50:	aa1403e1 	mov	x1, x20
    9b54:	910353e4 	add	x4, sp, #0xd4
    9b58:	aa1303e0 	mov	x0, x19
    9b5c:	910343e3 	add	x3, sp, #0xd0
    9b60:	52800002 	mov	w2, #0x0                   	// #0
    9b64:	9400a5c0 	bl	33264 <error@@Base+0x28b5c>
    9b68:	8b1b001c 	add	x28, x0, x27
    9b6c:	295a03e1 	ldp	w1, w0, [sp, #208]
    9b70:	8b010273 	add	x19, x19, x1
    9b74:	9400a644 	bl	33484 <error@@Base+0x28d7c>
    9b78:	14000009 	b	9b9c <warn@@Base+0xdb4>
    9b7c:	528000a2 	mov	w2, #0x5                   	// #5
    9b80:	b00001c1 	adrp	x1, 42000 <error@@Base+0x378f8>
    9b84:	d2800000 	mov	x0, #0x0                   	// #0
    9b88:	911ee021 	add	x1, x1, #0x7b8
    9b8c:	97fffba1 	bl	8a10 <dcgettext@plt>
    9b90:	2a1c03e1 	mov	w1, w28
    9b94:	940002dd 	bl	a708 <error@@Base>
    9b98:	1400001b 	b	9c04 <warn@@Base+0xe1c>
    9b9c:	2a1703e1 	mov	w1, w23
    9ba0:	aa1b03e0 	mov	x0, x27
    9ba4:	9400bd0b 	bl	38fd0 <error@@Base+0x2e8c8>
    9ba8:	2a1703e1 	mov	w1, w23
    9bac:	aa1c03e0 	mov	x0, x28
    9bb0:	9400bd08 	bl	38fd0 <error@@Base+0x2e8c8>
    9bb4:	eb1c037f 	cmp	x27, x28
    9bb8:	540000a1 	b.ne	9bcc <warn@@Base+0xde4>  // b.any
    9bbc:	b00001c1 	adrp	x1, 42000 <error@@Base+0x378f8>
    9bc0:	528000a2 	mov	w2, #0x5                   	// #5
    9bc4:	911f8021 	add	x1, x1, #0x7e0
    9bc8:	14000005 	b	9bdc <warn@@Base+0xdf4>
    9bcc:	54000129 	b.ls	9bf0 <warn@@Base+0xe08>  // b.plast
    9bd0:	b00001c1 	adrp	x1, 42000 <error@@Base+0x378f8>
    9bd4:	911fc021 	add	x1, x1, #0x7f0
    9bd8:	528000a2 	mov	w2, #0x5                   	// #5
    9bdc:	d2800000 	mov	x0, #0x0                   	// #0
    9be0:	97fffb8c 	bl	8a10 <dcgettext@plt>
    9be4:	f94053e1 	ldr	x1, [sp, #160]
    9be8:	f9400021 	ldr	x1, [x1]
    9bec:	97fff9ad 	bl	82a0 <fputs@plt>
    9bf0:	f94053e0 	ldr	x0, [sp, #160]
    9bf4:	f9400001 	ldr	x1, [x0]
    9bf8:	52800140 	mov	w0, #0xa                   	// #10
    9bfc:	97fff9e1 	bl	8380 <putc@plt>
    9c00:	17fffe9c 	b	9670 <warn@@Base+0x888>
    9c04:	eb15029f 	cmp	x20, x21
    9c08:	54000129 	b.ls	9c2c <warn@@Base+0xe44>  // b.plast
    9c0c:	b9409be0 	ldr	w0, [sp, #152]
    9c10:	b94073e1 	ldr	w1, [sp, #112]
    9c14:	11000400 	add	w0, w0, #0x1
    9c18:	b9009be0 	str	w0, [sp, #152]
    9c1c:	6b01001f 	cmp	w0, w1
    9c20:	54000062 	b.cs	9c2c <warn@@Base+0xe44>  // b.hs, b.nlast
    9c24:	f90037f5 	str	x21, [sp, #104]
    9c28:	17fffe78 	b	9608 <warn@@Base+0x820>
    9c2c:	eb14033f 	cmp	x25, x20
    9c30:	540000e9 	b.ls	9c4c <warn@@Base+0xe64>  // b.plast
    9c34:	d0000321 	adrp	x1, 6f000 <error@@Base+0x648f8>
    9c38:	f947dc21 	ldr	x1, [x1, #4024]
    9c3c:	52800140 	mov	w0, #0xa                   	// #10
    9c40:	f9400021 	ldr	x1, [x1]
    9c44:	97fff9cf 	bl	8380 <putc@plt>
    9c48:	17fffd5e 	b	91c0 <warn@@Base+0x3d8>
    9c4c:	d0000321 	adrp	x1, 6f000 <error@@Base+0x648f8>
    9c50:	f947dc21 	ldr	x1, [x1, #4024]
    9c54:	52800140 	mov	w0, #0xa                   	// #10
    9c58:	f9400021 	ldr	x1, [x1]
    9c5c:	97fff9c9 	bl	8380 <putc@plt>
    9c60:	52800020 	mov	w0, #0x1                   	// #1
    9c64:	14000119 	b	a0c8 <warn@@Base+0x12e0>
    9c68:	aa1303e0 	mov	x0, x19
    9c6c:	9400025c 	bl	a5dc <warn@@Base+0x17f4>
    9c70:	34000120 	cbz	w0, 9c94 <warn@@Base+0xeac>
    9c74:	90000353 	adrp	x19, 71000 <error@@Base+0x668f8>
    9c78:	b0000355 	adrp	x21, 72000 <error@@Base+0x678f8>
    9c7c:	52801002 	mov	w2, #0x80                  	// #128
    9c80:	52800019 	mov	w25, #0x0                   	// #0
    9c84:	f9474660 	ldr	x0, [x19, #3720]
    9c88:	b94006a1 	ldr	w1, [x21, #4]
    9c8c:	9ba20021 	umaddl	x1, w1, w2, x0
    9c90:	1400000a 	b	9cb8 <warn@@Base+0xed0>
    9c94:	b00001c1 	adrp	x1, 42000 <error@@Base+0x378f8>
    9c98:	528000a2 	mov	w2, #0x5                   	// #5
    9c9c:	91200021 	add	x1, x1, #0x800
    9ca0:	d2800000 	mov	x0, #0x0                   	// #0
    9ca4:	97fffb5b 	bl	8a10 <dcgettext@plt>
    9ca8:	f9400ec1 	ldr	x1, [x22, #24]
    9cac:	97fffc4f 	bl	8de8 <warn@@Base>
    9cb0:	52800000 	mov	w0, #0x0                   	// #0
    9cb4:	14000105 	b	a0c8 <warn@@Base+0x12e0>
    9cb8:	eb01001f 	cmp	x0, x1
    9cbc:	540000a0 	b.eq	9cd0 <warn@@Base+0xee8>  // b.none
    9cc0:	b9406802 	ldr	w2, [x0, #104]
    9cc4:	91020000 	add	x0, x0, #0x80
    9cc8:	0b020339 	add	w25, w25, w2
    9ccc:	17fffffb 	b	9cb8 <warn@@Base+0xed0>
    9cd0:	35000159 	cbnz	w25, 9cf8 <warn@@Base+0xf10>
    9cd4:	528000a2 	mov	w2, #0x5                   	// #5
    9cd8:	b00001c1 	adrp	x1, 42000 <error@@Base+0x378f8>
    9cdc:	d2800000 	mov	x0, #0x0                   	// #0
    9ce0:	91216021 	add	x1, x1, #0x858
    9ce4:	97fffb4b 	bl	8a10 <dcgettext@plt>
    9ce8:	aa0003e1 	mov	x1, x0
    9cec:	52800020 	mov	w0, #0x1                   	// #1
    9cf0:	97fffa20 	bl	8570 <__printf_chk@plt>
    9cf4:	17ffffdb 	b	9c60 <warn@@Base+0xe78>
    9cf8:	d37c7f20 	ubfiz	x0, x25, #4, #32
    9cfc:	97fffa29 	bl	85a0 <xmalloc@plt>
    9d00:	b94006a3 	ldr	w3, [x21, #4]
    9d04:	52801004 	mov	w4, #0x80                  	// #128
    9d08:	f9474662 	ldr	x2, [x19, #3720]
    9d0c:	aa0003f4 	mov	x20, x0
    9d10:	2a1903e1 	mov	w1, w25
    9d14:	aa0003e6 	mov	x6, x0
    9d18:	9ba40865 	umaddl	x5, w3, w4, x2
    9d1c:	eb05005f 	cmp	x2, x5
    9d20:	54000200 	b.eq	9d60 <warn@@Base+0xf78>  // b.none
    9d24:	b9406840 	ldr	w0, [x2, #104]
    9d28:	aa0603e4 	mov	x4, x6
    9d2c:	d2800003 	mov	x3, #0x0                   	// #0
    9d30:	6b03001f 	cmp	w0, w3
    9d34:	540000e9 	b.ls	9d50 <warn@@Base+0xf68>  // b.plast
    9d38:	f9403047 	ldr	x7, [x2, #96]
    9d3c:	f86378e7 	ldr	x7, [x7, x3, lsl #3]
    9d40:	91000463 	add	x3, x3, #0x1
    9d44:	a9000887 	stp	x7, x2, [x4]
    9d48:	91004084 	add	x4, x4, #0x10
    9d4c:	17fffff9 	b	9d30 <warn@@Base+0xf48>
    9d50:	d37c7c00 	ubfiz	x0, x0, #4, #32
    9d54:	91020042 	add	x2, x2, #0x80
    9d58:	8b0000c6 	add	x6, x6, x0
    9d5c:	17fffff0 	b	9d1c <warn@@Base+0xf34>
    9d60:	aa1403e0 	mov	x0, x20
    9d64:	90000043 	adrp	x3, 11000 <error@@Base+0x68f8>
    9d68:	d2800202 	mov	x2, #0x10                  	// #16
    9d6c:	912c5063 	add	x3, x3, #0xb14
    9d70:	97fff994 	bl	83c0 <qsort@plt>
    9d74:	90000340 	adrp	x0, 71000 <error@@Base+0x668f8>
    9d78:	b94dd400 	ldr	w0, [x0, #3540]
    9d7c:	34000160 	cbz	w0, 9da8 <warn@@Base+0xfc0>
    9d80:	f9400280 	ldr	x0, [x20]
    9d84:	b4000120 	cbz	x0, 9da8 <warn@@Base+0xfc0>
    9d88:	528000a2 	mov	w2, #0x5                   	// #5
    9d8c:	b00001c1 	adrp	x1, 42000 <error@@Base+0x378f8>
    9d90:	d2800000 	mov	x0, #0x0                   	// #0
    9d94:	91220021 	add	x1, x1, #0x880
    9d98:	97fffb1e 	bl	8a10 <dcgettext@plt>
    9d9c:	f9400282 	ldr	x2, [x20]
    9da0:	f9400ec1 	ldr	x1, [x22, #24]
    9da4:	97fffc11 	bl	8de8 <warn@@Base>
    9da8:	f94047e1 	ldr	x1, [sp, #136]
    9dac:	52800140 	mov	w0, #0xa                   	// #10
    9db0:	d000033a 	adrp	x26, 6f000 <error@@Base+0x648f8>
    9db4:	f947df5a 	ldr	x26, [x26, #4024]
    9db8:	8b010361 	add	x1, x27, x1
    9dbc:	a906d3e1 	stp	x1, x20, [sp, #104]
    9dc0:	aa1b03f3 	mov	x19, x27
    9dc4:	52800018 	mov	w24, #0x0                   	// #0
    9dc8:	f9400341 	ldr	x1, [x26]
    9dcc:	f90043ff 	str	xzr, [sp, #128]
    9dd0:	97fff96c 	bl	8380 <putc@plt>
    9dd4:	528000a2 	mov	w2, #0x5                   	// #5
    9dd8:	b00001c1 	adrp	x1, 42000 <error@@Base+0x378f8>
    9ddc:	d2800000 	mov	x0, #0x0                   	// #0
    9de0:	911a4021 	add	x1, x1, #0x690
    9de4:	97fffb0b 	bl	8a10 <dcgettext@plt>
    9de8:	aa0003e1 	mov	x1, x0
    9dec:	52800020 	mov	w0, #0x1                   	// #1
    9df0:	97fff9e0 	bl	8570 <__printf_chk@plt>
    9df4:	b00001a0 	adrp	x0, 3e000 <error@@Base+0x338f8>
    9df8:	91318000 	add	x0, x0, #0xc60
    9dfc:	f90057e0 	str	x0, [sp, #168]
    9e00:	f9403be0 	ldr	x0, [sp, #112]
    9e04:	f9403be1 	ldr	x1, [sp, #112]
    9e08:	f9400400 	ldr	x0, [x0, #8]
    9e0c:	f9400037 	ldr	x23, [x1]
    9e10:	b9400015 	ldr	w21, [x0]
    9e14:	f9400c1c 	ldr	x28, [x0, #24]
    9e18:	51000aa1 	sub	w1, w21, #0x2
    9e1c:	7100183f 	cmp	w1, #0x6
    9e20:	54000149 	b.ls	9e48 <warn@@Base+0x1060>  // b.plast
    9e24:	528000a2 	mov	w2, #0x5                   	// #5
    9e28:	b00001c1 	adrp	x1, 42000 <error@@Base+0x378f8>
    9e2c:	d2800000 	mov	x0, #0x0                   	// #0
    9e30:	9122c021 	add	x1, x1, #0x8b0
    9e34:	97fffaf7 	bl	8a10 <dcgettext@plt>
    9e38:	aa1703e2 	mov	x2, x23
    9e3c:	2a1503e1 	mov	w1, w21
    9e40:	97fffbea 	bl	8de8 <warn@@Base>
    9e44:	14000095 	b	a098 <warn@@Base+0x12b0>
    9e48:	f94047e1 	ldr	x1, [sp, #136]
    9e4c:	eb17003f 	cmp	x1, x23
    9e50:	54000142 	b.cs	9e78 <warn@@Base+0x1090>  // b.hs, b.nlast
    9e54:	528000a2 	mov	w2, #0x5                   	// #5
    9e58:	b00001c1 	adrp	x1, 42000 <error@@Base+0x378f8>
    9e5c:	d2800000 	mov	x0, #0x0                   	// #0
    9e60:	9123c021 	add	x1, x1, #0x8f0
    9e64:	97fffaeb 	bl	8a10 <dcgettext@plt>
    9e68:	2a1803e2 	mov	w2, w24
    9e6c:	aa1703e1 	mov	x1, x23
    9e70:	97fffbde 	bl	8de8 <warn@@Base>
    9e74:	14000089 	b	a098 <warn@@Base+0x12b0>
    9e78:	f9403800 	ldr	x0, [x0, #112]
    9e7c:	7100031f 	cmp	w24, #0x0
    9e80:	f94043e1 	ldr	x1, [sp, #128]
    9e84:	8b0002e0 	add	x0, x23, x0
    9e88:	f9003fe0 	str	x0, [sp, #120]
    9e8c:	8b000360 	add	x0, x27, x0
    9e90:	f9004be0 	str	x0, [sp, #144]
    9e94:	fa4112e0 	ccmp	x23, x1, #0x0, ne	// ne = any
    9e98:	54001000 	b.eq	a098 <warn@@Base+0x12b0>  // b.none
    9e9c:	90000340 	adrp	x0, 71000 <error@@Base+0x668f8>
    9ea0:	b94dd400 	ldr	w0, [x0, #3540]
    9ea4:	34000260 	cbz	w0, 9ef0 <warn@@Base+0x1108>
    9ea8:	34000258 	cbz	w24, 9ef0 <warn@@Base+0x1108>
    9eac:	f9404be0 	ldr	x0, [sp, #144]
    9eb0:	eb13001f 	cmp	x0, x19
    9eb4:	540000a9 	b.ls	9ec8 <warn@@Base+0x10e0>  // b.plast
    9eb8:	b00001c1 	adrp	x1, 42000 <error@@Base+0x378f8>
    9ebc:	528000a2 	mov	w2, #0x5                   	// #5
    9ec0:	91248021 	add	x1, x1, #0x920
    9ec4:	14000005 	b	9ed8 <warn@@Base+0x10f0>
    9ec8:	54000142 	b.cs	9ef0 <warn@@Base+0x1108>  // b.hs, b.nlast
    9ecc:	b00001c1 	adrp	x1, 42000 <error@@Base+0x378f8>
    9ed0:	91254021 	add	x1, x1, #0x950
    9ed4:	528000a2 	mov	w2, #0x5                   	// #5
    9ed8:	d2800000 	mov	x0, #0x0                   	// #0
    9edc:	97fffacd 	bl	8a10 <dcgettext@plt>
    9ee0:	f9400ec3 	ldr	x3, [x22, #24]
    9ee4:	cb1b0261 	sub	x1, x19, x27
    9ee8:	f9403fe2 	ldr	x2, [sp, #120]
    9eec:	97fffbbf 	bl	8de8 <warn@@Base>
    9ef0:	531d72a1 	lsl	w1, w21, #3
    9ef4:	92800022 	mov	x2, #0xfffffffffffffffe    	// #-2
    9ef8:	f9404be0 	ldr	x0, [sp, #144]
    9efc:	51000421 	sub	w1, w1, #0x1
    9f00:	2a1503e3 	mov	w3, w21
    9f04:	f90043e3 	str	x3, [sp, #128]
    9f08:	9ac12041 	lsl	x1, x2, x1
    9f0c:	aa2103e1 	mvn	x1, x1
    9f10:	f90053e1 	str	x1, [sp, #160]
    9f14:	f94037e1 	ldr	x1, [sp, #104]
    9f18:	eb00003f 	cmp	x1, x0
    9f1c:	54000549 	b.ls	9fc4 <warn@@Base+0x11dc>  // b.plast
    9f20:	f94037e1 	ldr	x1, [sp, #104]
    9f24:	cb000022 	sub	x2, x1, x0
    9f28:	90000341 	adrp	x1, 71000 <error@@Base+0x668f8>
    9f2c:	f9473c23 	ldr	x3, [x1, #3704]
    9f30:	f94043e1 	ldr	x1, [sp, #128]
    9f34:	eb01005f 	cmp	x2, x1
    9f38:	9a819042 	csel	x2, x2, x1, ls	// ls = plast
    9f3c:	2a0203e1 	mov	w1, w2
    9f40:	8b020002 	add	x2, x0, x2
    9f44:	f9003fe2 	str	x2, [sp, #120]
    9f48:	d63f0060 	blr	x3
    9f4c:	aa0003e2 	mov	x2, x0
    9f50:	f94037e0 	ldr	x0, [sp, #104]
    9f54:	f9005be2 	str	x2, [sp, #176]
    9f58:	f9403fe1 	ldr	x1, [sp, #120]
    9f5c:	eb01001f 	cmp	x0, x1
    9f60:	54000329 	b.ls	9fc4 <warn@@Base+0x11dc>  // b.plast
    9f64:	cb010001 	sub	x1, x0, x1
    9f68:	a9478be0 	ldp	x0, x2, [sp, #120]
    9f6c:	eb02003f 	cmp	x1, x2
    9f70:	9a829021 	csel	x1, x1, x2, ls	// ls = plast
    9f74:	f9004fe1 	str	x1, [sp, #152]
    9f78:	b9409be1 	ldr	w1, [sp, #152]
    9f7c:	9400bb15 	bl	38bd0 <error@@Base+0x2e4c8>
    9f80:	aa0003f3 	mov	x19, x0
    9f84:	f94057e1 	ldr	x1, [sp, #168]
    9f88:	52800020 	mov	w0, #0x1                   	// #1
    9f8c:	97fff979 	bl	8570 <__printf_chk@plt>
    9f90:	aa1703e0 	mov	x0, x23
    9f94:	52800081 	mov	w1, #0x4                   	// #4
    9f98:	9400bc0e 	bl	38fd0 <error@@Base+0x2e8c8>
    9f9c:	f9405be2 	ldr	x2, [sp, #176]
    9fa0:	aa130040 	orr	x0, x2, x19
    9fa4:	b5000160 	cbnz	x0, 9fd0 <warn@@Base+0x11e8>
    9fa8:	528000a2 	mov	w2, #0x5                   	// #5
    9fac:	b00001c1 	adrp	x1, 42000 <error@@Base+0x378f8>
    9fb0:	911ba021 	add	x1, x1, #0x6e8
    9fb4:	97fffa97 	bl	8a10 <dcgettext@plt>
    9fb8:	aa0003e1 	mov	x1, x0
    9fbc:	52800020 	mov	w0, #0x1                   	// #1
    9fc0:	97fff96c 	bl	8570 <__printf_chk@plt>
    9fc4:	f9404bf3 	ldr	x19, [sp, #144]
    9fc8:	f90043f7 	str	x23, [sp, #128]
    9fcc:	14000033 	b	a098 <warn@@Base+0x12b0>
    9fd0:	f94053e0 	ldr	x0, [sp, #160]
    9fd4:	ea22001f 	bics	xzr, x0, x2
    9fd8:	540001a1 	b.ne	a00c <warn@@Base+0x1224>  // b.any
    9fdc:	ea33001f 	bics	xzr, x0, x19
    9fe0:	54000160 	b.eq	a00c <warn@@Base+0x1224>  // b.none
    9fe4:	aa0203e0 	mov	x0, x2
    9fe8:	2a1503e1 	mov	w1, w21
    9fec:	9400bbf9 	bl	38fd0 <error@@Base+0x2e8c8>
    9ff0:	2a1503e1 	mov	w1, w21
    9ff4:	aa1303e0 	mov	x0, x19
    9ff8:	9400bbf6 	bl	38fd0 <error@@Base+0x2e8c8>
    9ffc:	b00001c0 	adrp	x0, 42000 <error@@Base+0x378f8>
    a000:	91262000 	add	x0, x0, #0x988
    a004:	97fff9db 	bl	8770 <puts@plt>
    a008:	1400001f 	b	a084 <warn@@Base+0x129c>
    a00c:	8b1c0040 	add	x0, x2, x28
    a010:	2a1503e1 	mov	w1, w21
    a014:	f9005be2 	str	x2, [sp, #176]
    a018:	9400bbee 	bl	38fd0 <error@@Base+0x2e8c8>
    a01c:	2a1503e1 	mov	w1, w21
    a020:	8b1c0260 	add	x0, x19, x28
    a024:	9400be1f 	bl	398a0 <error@@Base+0x2f198>
    a028:	f9405be2 	ldr	x2, [sp, #176]
    a02c:	eb13005f 	cmp	x2, x19
    a030:	54000121 	b.ne	a054 <warn@@Base+0x126c>  // b.any
    a034:	528000a2 	mov	w2, #0x5                   	// #5
    a038:	900001c1 	adrp	x1, 42000 <error@@Base+0x378f8>
    a03c:	d2800000 	mov	x0, #0x0                   	// #0
    a040:	911f8021 	add	x1, x1, #0x7e0
    a044:	97fffa73 	bl	8a10 <dcgettext@plt>
    a048:	f9400341 	ldr	x1, [x26]
    a04c:	97fff895 	bl	82a0 <fputs@plt>
    a050:	14000009 	b	a074 <warn@@Base+0x128c>
    a054:	54000109 	b.ls	a074 <warn@@Base+0x128c>  // b.plast
    a058:	900001c1 	adrp	x1, 42000 <error@@Base+0x378f8>
    a05c:	528000a2 	mov	w2, #0x5                   	// #5
    a060:	911fc021 	add	x1, x1, #0x7f0
    a064:	d2800000 	mov	x0, #0x0                   	// #0
    a068:	97fffa6a 	bl	8a10 <dcgettext@plt>
    a06c:	f9400341 	ldr	x1, [x26]
    a070:	97fff88c 	bl	82a0 <fputs@plt>
    a074:	f9400341 	ldr	x1, [x26]
    a078:	aa1c03f3 	mov	x19, x28
    a07c:	52800140 	mov	w0, #0xa                   	// #10
    a080:	97fff8c0 	bl	8380 <putc@plt>
    a084:	f9403fe0 	ldr	x0, [sp, #120]
    a088:	aa1303fc 	mov	x28, x19
    a08c:	f9404fe1 	ldr	x1, [sp, #152]
    a090:	8b010000 	add	x0, x0, x1
    a094:	17ffffa0 	b	9f14 <warn@@Base+0x112c>
    a098:	f9403be0 	ldr	x0, [sp, #112]
    a09c:	11000718 	add	w24, w24, #0x1
    a0a0:	91004000 	add	x0, x0, #0x10
    a0a4:	f9003be0 	str	x0, [sp, #112]
    a0a8:	6b18033f 	cmp	w25, w24
    a0ac:	54ffeaa1 	b.ne	9e00 <warn@@Base+0x1018>  // b.any
    a0b0:	f9400341 	ldr	x1, [x26]
    a0b4:	52800140 	mov	w0, #0xa                   	// #10
    a0b8:	97fff8b2 	bl	8380 <putc@plt>
    a0bc:	aa1403e0 	mov	x0, x20
    a0c0:	97fff9e0 	bl	8840 <free@plt>
    a0c4:	17fffee7 	b	9c60 <warn@@Base+0xe78>
    a0c8:	b0000321 	adrp	x1, 6f000 <error@@Base+0x648f8>
    a0cc:	f947e421 	ldr	x1, [x1, #4040]
    a0d0:	f9406fe3 	ldr	x3, [sp, #216]
    a0d4:	f9400022 	ldr	x2, [x1]
    a0d8:	eb020063 	subs	x3, x3, x2
    a0dc:	d2800002 	mov	x2, #0x0                   	// #0
    a0e0:	54000040 	b.eq	a0e8 <warn@@Base+0x1300>  // b.none
    a0e4:	97fff96b 	bl	8690 <__stack_chk_fail@plt>
    a0e8:	a94153f3 	ldp	x19, x20, [sp, #16]
    a0ec:	a9425bf5 	ldp	x21, x22, [sp, #32]
    a0f0:	a94363f7 	ldp	x23, x24, [sp, #48]
    a0f4:	a9446bf9 	ldp	x25, x26, [sp, #64]
    a0f8:	a94573fb 	ldp	x27, x28, [sp, #80]
    a0fc:	a8ce7bfd 	ldp	x29, x30, [sp], #224
    a100:	d65f03c0 	ret
    a104:	a9b97bfd 	stp	x29, x30, [sp, #-112]!
    a108:	910003fd 	mov	x29, sp
    a10c:	a9025bf5 	stp	x21, x22, [sp, #32]
    a110:	11000435 	add	w21, w1, #0x1
    a114:	2a0103f6 	mov	w22, w1
    a118:	b0000321 	adrp	x1, 6f000 <error@@Base+0x648f8>
    a11c:	f947e421 	ldr	x1, [x1, #4040]
    a120:	a90153f3 	stp	x19, x20, [sp, #16]
    a124:	0b1506b5 	add	w21, w21, w21, lsl #1
    a128:	a90363f7 	stp	x23, x24, [sp, #48]
    a12c:	aa0303f4 	mov	x20, x3
    a130:	90000357 	adrp	x23, 72000 <error@@Base+0x678f8>
    a134:	a9046bf9 	stp	x25, x26, [sp, #64]
    a138:	910183f9 	add	x25, sp, #0x60
    a13c:	aa0203f3 	mov	x19, x2
    a140:	a90573fb 	stp	x27, x28, [sp, #80]
    a144:	93407eb5 	sxtw	x21, w21
    a148:	528005b8 	mov	w24, #0x2d                  	// #45
    a14c:	f9400023 	ldr	x3, [x1]
    a150:	f90037e3 	str	x3, [sp, #104]
    a154:	d2800003 	mov	x3, #0x0                   	// #0
    a158:	aa1503e2 	mov	x2, x21
    a15c:	52800401 	mov	w1, #0x20                  	// #32
    a160:	aa0003fb 	mov	x27, x0
    a164:	f94042fa 	ldr	x26, [x23, #128]
    a168:	aa1303e0 	mov	x0, x19
    a16c:	97fff909 	bl	8590 <memset@plt>
    a170:	aa1503e2 	mov	x2, x21
    a174:	aa1403e0 	mov	x0, x20
    a178:	52800001 	mov	w1, #0x0                   	// #0
    a17c:	97fff905 	bl	8590 <memset@plt>
    a180:	b40018fa 	cbz	x26, a49c <warn@@Base+0x16b4>
    a184:	f9400f40 	ldr	x0, [x26, #24]
    a188:	f9401743 	ldr	x3, [x26, #40]
    a18c:	aa0003e2 	mov	x2, x0
    a190:	aa0303e1 	mov	x1, x3
    a194:	d1000442 	sub	x2, x2, #0x1
    a198:	b100045f 	cmn	x2, #0x1
    a19c:	540000c0 	b.eq	a1b4 <warn@@Base+0x13cc>  // b.none
    a1a0:	f9400b44 	ldr	x4, [x26, #16]
    a1a4:	f8627884 	ldr	x4, [x4, x2, lsl #3]
    a1a8:	eb04003f 	cmp	x1, x4
    a1ac:	9a842021 	csel	x1, x1, x4, cs	// cs = hs, nlast
    a1b0:	17fffff9 	b	a194 <warn@@Base+0x13ac>
    a1b4:	eb01037f 	cmp	x27, x1
    a1b8:	54000389 	b.ls	a228 <warn@@Base+0x1440>  // b.plast
    a1bc:	a940035c 	ldp	x28, x0, [x26]
    a1c0:	b50000fc 	cbnz	x28, a1dc <warn@@Base+0x13f4>
    a1c4:	b4000280 	cbz	x0, a214 <warn@@Base+0x142c>
    a1c8:	f900001f 	str	xzr, [x0]
    a1cc:	aa1a03e0 	mov	x0, x26
    a1d0:	a9007f5f 	stp	xzr, xzr, [x26]
    a1d4:	94003d0f 	bl	19610 <error@@Base+0xef08>
    a1d8:	140000b1 	b	a49c <warn@@Base+0x16b4>
    a1dc:	f9000780 	str	x0, [x28, #8]
    a1e0:	f9400740 	ldr	x0, [x26, #8]
    a1e4:	b40000e0 	cbz	x0, a200 <warn@@Base+0x1418>
    a1e8:	f900001c 	str	x28, [x0]
    a1ec:	aa1a03e0 	mov	x0, x26
    a1f0:	a9007f5f 	stp	xzr, xzr, [x26]
    a1f4:	94003d07 	bl	19610 <error@@Base+0xef08>
    a1f8:	aa1c03fa 	mov	x26, x28
    a1fc:	17ffffe2 	b	a184 <warn@@Base+0x139c>
    a200:	a9007f5f 	stp	xzr, xzr, [x26]
    a204:	aa1a03e0 	mov	x0, x26
    a208:	f90042fc 	str	x28, [x23, #128]
    a20c:	94003d01 	bl	19610 <error@@Base+0xef08>
    a210:	17fffffa 	b	a1f8 <warn@@Base+0x1410>
    a214:	a9007f5f 	stp	xzr, xzr, [x26]
    a218:	aa1a03e0 	mov	x0, x26
    a21c:	f90042ff 	str	xzr, [x23, #128]
    a220:	94003cfc 	bl	19610 <error@@Base+0xef08>
    a224:	1400009e 	b	a49c <warn@@Base+0x16b4>
    a228:	aa0303e1 	mov	x1, x3
    a22c:	d1000400 	sub	x0, x0, #0x1
    a230:	b100041f 	cmn	x0, #0x1
    a234:	540000c0 	b.eq	a24c <warn@@Base+0x1464>  // b.none
    a238:	f9400b42 	ldr	x2, [x26, #16]
    a23c:	f8607842 	ldr	x2, [x2, x0, lsl #3]
    a240:	eb02003f 	cmp	x1, x2
    a244:	9a829021 	csel	x1, x1, x2, ls	// ls = plast
    a248:	17fffff9 	b	a22c <warn@@Base+0x1444>
    a24c:	eb01037f 	cmp	x27, x1
    a250:	54001223 	b.cc	a494 <warn@@Base+0x16ac>  // b.lo, b.ul, b.last
    a254:	d2800101 	mov	x1, #0x8                   	// #8
    a258:	aa1903e0 	mov	x0, x25
    a25c:	52800002 	mov	w2, #0x0                   	// #0
    a260:	f90033e3 	str	x3, [sp, #96]
    a264:	97fffa17 	bl	8ac0 <iterative_hash@plt>
    a268:	12001c00 	and	w0, w0, #0xff
    a26c:	b9403344 	ldr	w4, [x26, #48]
    a270:	f9400f41 	ldr	x1, [x26, #24]
    a274:	4b0402c4 	sub	w4, w22, w4
    a278:	d1000421 	sub	x1, x1, #0x1
    a27c:	0b040484 	add	w4, w4, w4, lsl #1
    a280:	b100043f 	cmn	x1, #0x1
    a284:	54000100 	b.eq	a2a4 <warn@@Base+0x14bc>  // b.none
    a288:	f9400b42 	ldr	x2, [x26, #16]
    a28c:	f8617842 	ldr	x2, [x2, x1, lsl #3]
    a290:	d1000421 	sub	x1, x1, #0x1
    a294:	eb02037f 	cmp	x27, x2
    a298:	54ffff41 	b.ne	a280 <warn@@Base+0x1498>  // b.any
    a29c:	52800022 	mov	w2, #0x1                   	// #1
    a2a0:	14000002 	b	a2a8 <warn@@Base+0x14c0>
    a2a4:	52800002 	mov	w2, #0x0                   	// #0
    a2a8:	93407c81 	sxtw	x1, w4
    a2ac:	34000722 	cbz	w2, a390 <warn@@Base+0x15a8>
    a2b0:	11000484 	add	w4, w4, #0x1
    a2b4:	d10006a3 	sub	x3, x21, #0x1
    a2b8:	93407c84 	sxtw	x4, w4
    a2bc:	38646a62 	ldrb	w2, [x19, x4]
    a2c0:	eb03009f 	cmp	x4, x3
    a2c4:	540000e2 	b.cs	a2e0 <warn@@Base+0x14f8>  // b.hs, b.nlast
    a2c8:	7100805f 	cmp	w2, #0x20
    a2cc:	54000061 	b.ne	a2d8 <warn@@Base+0x14f0>  // b.any
    a2d0:	38246a78 	strb	w24, [x19, x4]
    a2d4:	38246a80 	strb	w0, [x20, x4]
    a2d8:	91000484 	add	x4, x4, #0x1
    a2dc:	17fffff8 	b	a2bc <warn@@Base+0x14d4>
    a2e0:	8b040263 	add	x3, x19, x4
    a2e4:	7100805f 	cmp	w2, #0x20
    a2e8:	54000081 	b.ne	a2f8 <warn@@Base+0x1510>  // b.any
    a2ec:	38246a78 	strb	w24, [x19, x4]
    a2f0:	38246a80 	strb	w0, [x20, x4]
    a2f4:	14000006 	b	a30c <warn@@Base+0x1524>
    a2f8:	7100f85f 	cmp	w2, #0x3e
    a2fc:	54000081 	b.ne	a30c <warn@@Base+0x1524>  // b.any
    a300:	52800b02 	mov	w2, #0x58                  	// #88
    a304:	39000062 	strb	w2, [x3]
    a308:	38246a80 	strb	w0, [x20, x4]
    a30c:	38616a62 	ldrb	w2, [x19, x1]
    a310:	7100805f 	cmp	w2, #0x20
    a314:	54000c01 	b.ne	a494 <warn@@Base+0x16ac>  // b.any
    a318:	f9401742 	ldr	x2, [x26, #40]
    a31c:	f9400f43 	ldr	x3, [x26, #24]
    a320:	eb02037f 	cmp	x27, x2
    a324:	540001c8 	b.hi	a35c <warn@@Base+0x1574>  // b.pmore
    a328:	d1000463 	sub	x3, x3, #0x1
    a32c:	b100047f 	cmn	x3, #0x1
    a330:	540000c0 	b.eq	a348 <warn@@Base+0x1560>  // b.none
    a334:	f9400b44 	ldr	x4, [x26, #16]
    a338:	f8637884 	ldr	x4, [x4, x3, lsl #3]
    a33c:	eb04005f 	cmp	x2, x4
    a340:	9a849042 	csel	x2, x2, x4, ls	// ls = plast
    a344:	17fffff9 	b	a328 <warn@@Base+0x1540>
    a348:	eb02037f 	cmp	x27, x2
    a34c:	528005e3 	mov	w3, #0x2f                  	// #47
    a350:	52800562 	mov	w2, #0x2b                  	// #43
    a354:	1a831042 	csel	w2, w2, w3, ne	// ne = any
    a358:	1400004d 	b	a48c <warn@@Base+0x16a4>
    a35c:	d1000463 	sub	x3, x3, #0x1
    a360:	b100047f 	cmn	x3, #0x1
    a364:	540000c0 	b.eq	a37c <warn@@Base+0x1594>  // b.none
    a368:	f9400b44 	ldr	x4, [x26, #16]
    a36c:	f8637884 	ldr	x4, [x4, x3, lsl #3]
    a370:	eb04005f 	cmp	x2, x4
    a374:	9a842042 	csel	x2, x2, x4, cs	// cs = hs, nlast
    a378:	17fffff9 	b	a35c <warn@@Base+0x1574>
    a37c:	eb02037f 	cmp	x27, x2
    a380:	52800b83 	mov	w3, #0x5c                  	// #92
    a384:	52800562 	mov	w2, #0x2b                  	// #43
    a388:	1a831042 	csel	w2, w2, w3, ne	// ne = any
    a38c:	14000040 	b	a48c <warn@@Base+0x16a4>
    a390:	f9401742 	ldr	x2, [x26, #40]
    a394:	eb02037f 	cmp	x27, x2
    a398:	54000721 	b.ne	a47c <warn@@Base+0x1694>  // b.any
    a39c:	11000484 	add	w4, w4, #0x1
    a3a0:	d10006a3 	sub	x3, x21, #0x1
    a3a4:	93407c84 	sxtw	x4, w4
    a3a8:	38646a62 	ldrb	w2, [x19, x4]
    a3ac:	eb03009f 	cmp	x4, x3
    a3b0:	540000e2 	b.cs	a3cc <warn@@Base+0x15e4>  // b.hs, b.nlast
    a3b4:	7100805f 	cmp	w2, #0x20
    a3b8:	54000061 	b.ne	a3c4 <warn@@Base+0x15dc>  // b.any
    a3bc:	38246a78 	strb	w24, [x19, x4]
    a3c0:	38246a80 	strb	w0, [x20, x4]
    a3c4:	91000484 	add	x4, x4, #0x1
    a3c8:	17fffff8 	b	a3a8 <warn@@Base+0x15c0>
    a3cc:	8b040263 	add	x3, x19, x4
    a3d0:	7100805f 	cmp	w2, #0x20
    a3d4:	540000a1 	b.ne	a3e8 <warn@@Base+0x1600>  // b.any
    a3d8:	528007c2 	mov	w2, #0x3e                  	// #62
    a3dc:	38246a62 	strb	w2, [x19, x4]
    a3e0:	38246a80 	strb	w0, [x20, x4]
    a3e4:	14000006 	b	a3fc <warn@@Base+0x1614>
    a3e8:	7100b45f 	cmp	w2, #0x2d
    a3ec:	54000081 	b.ne	a3fc <warn@@Base+0x1614>  // b.any
    a3f0:	52800b02 	mov	w2, #0x58                  	// #88
    a3f4:	39000062 	strb	w2, [x3]
    a3f8:	38246a80 	strb	w0, [x20, x4]
    a3fc:	38616a62 	ldrb	w2, [x19, x1]
    a400:	7100805f 	cmp	w2, #0x20
    a404:	54000481 	b.ne	a494 <warn@@Base+0x16ac>  // b.any
    a408:	f9400f43 	ldr	x3, [x26, #24]
    a40c:	f9401742 	ldr	x2, [x26, #40]
    a410:	aa0303e5 	mov	x5, x3
    a414:	aa0203e4 	mov	x4, x2
    a418:	d10004a5 	sub	x5, x5, #0x1
    a41c:	b10004bf 	cmn	x5, #0x1
    a420:	540000c0 	b.eq	a438 <warn@@Base+0x1650>  // b.none
    a424:	f9400b46 	ldr	x6, [x26, #16]
    a428:	f86578c6 	ldr	x6, [x6, x5, lsl #3]
    a42c:	eb06009f 	cmp	x4, x6
    a430:	9a869084 	csel	x4, x4, x6, ls	// ls = plast
    a434:	17fffff9 	b	a418 <warn@@Base+0x1630>
    a438:	eb04037f 	cmp	x27, x4
    a43c:	54000068 	b.hi	a448 <warn@@Base+0x1660>  // b.pmore
    a440:	528005e2 	mov	w2, #0x2f                  	// #47
    a444:	14000012 	b	a48c <warn@@Base+0x16a4>
    a448:	d1000463 	sub	x3, x3, #0x1
    a44c:	b100047f 	cmn	x3, #0x1
    a450:	540000c0 	b.eq	a468 <warn@@Base+0x1680>  // b.none
    a454:	f9400b44 	ldr	x4, [x26, #16]
    a458:	f8637884 	ldr	x4, [x4, x3, lsl #3]
    a45c:	eb04005f 	cmp	x2, x4
    a460:	9a842042 	csel	x2, x2, x4, cs	// cs = hs, nlast
    a464:	17fffff9 	b	a448 <warn@@Base+0x1660>
    a468:	eb02037f 	cmp	x27, x2
    a46c:	528007c3 	mov	w3, #0x3e                  	// #62
    a470:	52800b82 	mov	w2, #0x5c                  	// #92
    a474:	1a832042 	csel	w2, w2, w3, cs	// cs = hs, nlast
    a478:	14000005 	b	a48c <warn@@Base+0x16a4>
    a47c:	38616a62 	ldrb	w2, [x19, x1]
    a480:	7100805f 	cmp	w2, #0x20
    a484:	54000081 	b.ne	a494 <warn@@Base+0x16ac>  // b.any
    a488:	52800f82 	mov	w2, #0x7c                  	// #124
    a48c:	38216a62 	strb	w2, [x19, x1]
    a490:	38216a80 	strb	w0, [x20, x1]
    a494:	f940035a 	ldr	x26, [x26]
    a498:	17ffff3a 	b	a180 <warn@@Base+0x1398>
    a49c:	b000033b 	adrp	x27, 6f000 <error@@Base+0x648f8>
    a4a0:	f947df7b 	ldr	x27, [x27, #4024]
    a4a4:	aa1303e0 	mov	x0, x19
    a4a8:	f000033a 	adrp	x26, 71000 <error@@Base+0x668f8>
    a4ac:	900001b9 	adrp	x25, 3e000 <error@@Base+0x338f8>
    a4b0:	97fff778 	bl	8290 <strlen@plt>
    a4b4:	91356b5a 	add	x26, x26, #0xd5a
    a4b8:	aa0003f8 	mov	x24, x0
    a4bc:	9127a339 	add	x25, x25, #0x9e8
    a4c0:	52800017 	mov	w23, #0x0                   	// #0
    a4c4:	d2800015 	mov	x21, #0x0                   	// #0
    a4c8:	39400340 	ldrb	w0, [x26]
    a4cc:	34000560 	cbz	w0, a578 <warn@@Base+0x1790>
    a4d0:	eb15031f 	cmp	x24, x21
    a4d4:	54000108 	b.hi	a4f4 <warn@@Base+0x170c>  // b.pmore
    a4d8:	34000097 	cbz	w23, a4e8 <warn@@Base+0x1700>
    a4dc:	aa1903e1 	mov	x1, x25
    a4e0:	52800020 	mov	w0, #0x1                   	// #1
    a4e4:	97fff823 	bl	8570 <__printf_chk@plt>
    a4e8:	52800017 	mov	w23, #0x0                   	// #0
    a4ec:	52800400 	mov	w0, #0x20                  	// #32
    a4f0:	14000027 	b	a58c <warn@@Base+0x17a4>
    a4f4:	38756a96 	ldrb	w22, [x20, x21]
    a4f8:	6b1702df 	cmp	w22, w23
    a4fc:	54000061 	b.ne	a508 <warn@@Base+0x1720>  // b.any
    a500:	2a1603f7 	mov	w23, w22
    a504:	1400001f 	b	a580 <warn@@Base+0x1798>
    a508:	34000316 	cbz	w22, a568 <warn@@Base+0x1780>
    a50c:	f0000320 	adrp	x0, 71000 <error@@Base+0x668f8>
    a510:	39756c00 	ldrb	w0, [x0, #3419]
    a514:	34000160 	cbz	w0, a540 <warn@@Base+0x1758>
    a518:	52800d83 	mov	w3, #0x6c                  	// #108
    a51c:	b00001c1 	adrp	x1, 43000 <error@@Base+0x388f8>
    a520:	52800020 	mov	w0, #0x1                   	// #1
    a524:	91052021 	add	x1, x1, #0x148
    a528:	1ac30ac2 	udiv	w2, w22, w3
    a52c:	1b03d842 	msub	w2, w2, w3, w22
    a530:	1101f042 	add	w2, w2, #0x7c
    a534:	12001c42 	and	w2, w2, #0xff
    a538:	97fff80e 	bl	8570 <__printf_chk@plt>
    a53c:	17fffff1 	b	a500 <warn@@Base+0x1718>
    a540:	528000e3 	mov	w3, #0x7                   	// #7
    a544:	b00001c1 	adrp	x1, 43000 <error@@Base+0x388f8>
    a548:	52800020 	mov	w0, #0x1                   	// #1
    a54c:	91050021 	add	x1, x1, #0x140
    a550:	1ac30ac2 	udiv	w2, w22, w3
    a554:	1b03d842 	msub	w2, w2, w3, w22
    a558:	11007c42 	add	w2, w2, #0x1f
    a55c:	12001c42 	and	w2, w2, #0xff
    a560:	97fff804 	bl	8570 <__printf_chk@plt>
    a564:	17ffffe7 	b	a500 <warn@@Base+0x1718>
    a568:	aa1903e1 	mov	x1, x25
    a56c:	52800017 	mov	w23, #0x0                   	// #0
    a570:	52800020 	mov	w0, #0x1                   	// #1
    a574:	97fff7ff 	bl	8570 <__printf_chk@plt>
    a578:	eb15031f 	cmp	x24, x21
    a57c:	54000069 	b.ls	a588 <warn@@Base+0x17a0>  // b.plast
    a580:	38756a60 	ldrb	w0, [x19, x21]
    a584:	14000002 	b	a58c <warn@@Base+0x17a4>
    a588:	52800400 	mov	w0, #0x20                  	// #32
    a58c:	f9400361 	ldr	x1, [x27]
    a590:	910006b5 	add	x21, x21, #0x1
    a594:	97fff77b 	bl	8380 <putc@plt>
    a598:	eb15031f 	cmp	x24, x21
    a59c:	54fff962 	b.cs	a4c8 <warn@@Base+0x16e0>  // b.hs, b.nlast
    a5a0:	b0000320 	adrp	x0, 6f000 <error@@Base+0x648f8>
    a5a4:	f947e400 	ldr	x0, [x0, #4040]
    a5a8:	f94037e2 	ldr	x2, [sp, #104]
    a5ac:	f9400001 	ldr	x1, [x0]
    a5b0:	eb010042 	subs	x2, x2, x1
    a5b4:	d2800001 	mov	x1, #0x0                   	// #0
    a5b8:	54000040 	b.eq	a5c0 <warn@@Base+0x17d8>  // b.none
    a5bc:	97fff835 	bl	8690 <__stack_chk_fail@plt>
    a5c0:	a94153f3 	ldp	x19, x20, [sp, #16]
    a5c4:	a9425bf5 	ldp	x21, x22, [sp, #32]
    a5c8:	a94363f7 	ldp	x23, x24, [sp, #48]
    a5cc:	a9446bf9 	ldp	x25, x26, [sp, #64]
    a5d0:	a94573fb 	ldp	x27, x28, [sp, #80]
    a5d4:	a8c77bfd 	ldp	x29, x30, [sp], #112
    a5d8:	d65f03c0 	ret
    a5dc:	a9bd7bfd 	stp	x29, x30, [sp, #-48]!
    a5e0:	910003fd 	mov	x29, sp
    a5e4:	a90153f3 	stp	x19, x20, [sp, #16]
    a5e8:	90000354 	adrp	x20, 72000 <error@@Base+0x678f8>
    a5ec:	aa0003f3 	mov	x19, x0
    a5f0:	b9400680 	ldr	w0, [x20, #4]
    a5f4:	f90013f5 	str	x21, [sp, #32]
    a5f8:	3100041f 	cmn	w0, #0x1
    a5fc:	540007c0 	b.eq	a6f4 <warn@@Base+0x190c>  // b.none
    a600:	350007c0 	cbnz	w0, a6f8 <warn@@Base+0x1910>
    a604:	d0000335 	adrp	x21, 70000 <error@@Base+0x658f8>
    a608:	b9407aa0 	ldr	w0, [x21, #120]
    a60c:	3100041f 	cmn	w0, #0x1
    a610:	54000321 	b.ne	a674 <warn@@Base+0x188c>  // b.any
    a614:	52800020 	mov	w0, #0x1                   	// #1
    a618:	aa1303e1 	mov	x1, x19
    a61c:	b9007aa0 	str	w0, [x21, #120]
    a620:	52800500 	mov	w0, #0x28                  	// #40
    a624:	94009e4b 	bl	31f50 <error@@Base+0x27848>
    a628:	72001c1f 	tst	w0, #0xff
    a62c:	540000e0 	b.eq	a648 <warn@@Base+0x1860>  // b.none
    a630:	f0000320 	adrp	x0, 71000 <error@@Base+0x668f8>
    a634:	52800001 	mov	w1, #0x0                   	// #0
    a638:	91278000 	add	x0, x0, #0x9e0
    a63c:	94000b8a 	bl	d464 <error@@Base+0x2d5c>
    a640:	35000040 	cbnz	w0, a648 <warn@@Base+0x1860>
    a644:	b9007abf 	str	wzr, [x21, #120]
    a648:	aa1303e1 	mov	x1, x19
    a64c:	52800520 	mov	w0, #0x29                  	// #41
    a650:	94009e40 	bl	31f50 <error@@Base+0x27848>
    a654:	72001c1f 	tst	w0, #0xff
    a658:	540000e0 	b.eq	a674 <warn@@Base+0x188c>  // b.none
    a65c:	f0000320 	adrp	x0, 71000 <error@@Base+0x668f8>
    a660:	52800001 	mov	w1, #0x0                   	// #0
    a664:	91294000 	add	x0, x0, #0xa50
    a668:	94000b7f 	bl	d464 <error@@Base+0x2d5c>
    a66c:	35000040 	cbnz	w0, a674 <warn@@Base+0x188c>
    a670:	b9007abf 	str	wzr, [x21, #120]
    a674:	aa1303e1 	mov	x1, x19
    a678:	52800060 	mov	w0, #0x3                   	// #3
    a67c:	94009e35 	bl	31f50 <error@@Base+0x27848>
    a680:	72001c1f 	tst	w0, #0xff
    a684:	54000140 	b.eq	a6ac <warn@@Base+0x18c4>  // b.none
    a688:	d0000320 	adrp	x0, 70000 <error@@Base+0x658f8>
    a68c:	aa1303e1 	mov	x1, x19
    a690:	9126c000 	add	x0, x0, #0x9b0
    a694:	52800004 	mov	w4, #0x0                   	// #0
    a698:	52800023 	mov	w3, #0x1                   	// #1
    a69c:	52800002 	mov	w2, #0x0                   	// #0
    a6a0:	94008c6c 	bl	2d850 <error@@Base+0x23148>
    a6a4:	72001c1f 	tst	w0, #0xff
    a6a8:	540001e1 	b.ne	a6e4 <warn@@Base+0x18fc>  // b.any
    a6ac:	aa1303e1 	mov	x1, x19
    a6b0:	528003a0 	mov	w0, #0x1d                  	// #29
    a6b4:	94009e27 	bl	31f50 <error@@Base+0x27848>
    a6b8:	72001c1f 	tst	w0, #0xff
    a6bc:	54000180 	b.eq	a6ec <warn@@Base+0x1904>  // b.none
    a6c0:	f0000320 	adrp	x0, 71000 <error@@Base+0x668f8>
    a6c4:	aa1303e1 	mov	x1, x19
    a6c8:	91144000 	add	x0, x0, #0x510
    a6cc:	52800004 	mov	w4, #0x0                   	// #0
    a6d0:	52800023 	mov	w3, #0x1                   	// #1
    a6d4:	528003c2 	mov	w2, #0x1e                  	// #30
    a6d8:	94008c5e 	bl	2d850 <error@@Base+0x23148>
    a6dc:	72001c1f 	tst	w0, #0xff
    a6e0:	54000060 	b.eq	a6ec <warn@@Base+0x1904>  // b.none
    a6e4:	b9400680 	ldr	w0, [x20, #4]
    a6e8:	14000004 	b	a6f8 <warn@@Base+0x1910>
    a6ec:	12800000 	mov	w0, #0xffffffff            	// #-1
    a6f0:	b9000680 	str	w0, [x20, #4]
    a6f4:	52800000 	mov	w0, #0x0                   	// #0
    a6f8:	a94153f3 	ldp	x19, x20, [sp, #16]
    a6fc:	f94013f5 	ldr	x21, [sp, #32]
    a700:	a8c37bfd 	ldp	x29, x30, [sp], #48
    a704:	d65f03c0 	ret

000000000000a708 <error@@Base>:
    a708:	a9aa7bfd 	stp	x29, x30, [sp, #-352]!
    a70c:	b0000329 	adrp	x9, 6f000 <error@@Base+0x648f8>
    a710:	f947dd29 	ldr	x9, [x9, #4024]
    a714:	910003fd 	mov	x29, sp
    a718:	b0000328 	adrp	x8, 6f000 <error@@Base+0x648f8>
    a71c:	f947e508 	ldr	x8, [x8, #4040]
    a720:	a90153f3 	stp	x19, x20, [sp, #16]
    a724:	aa0003f4 	mov	x20, x0
    a728:	f90013f5 	str	x21, [sp, #32]
    a72c:	3d802be0 	str	q0, [sp, #160]
    a730:	3d802fe1 	str	q1, [sp, #176]
    a734:	3d8033e2 	str	q2, [sp, #192]
    a738:	3d8037e3 	str	q3, [sp, #208]
    a73c:	3d803be4 	str	q4, [sp, #224]
    a740:	3d803fe5 	str	q5, [sp, #240]
    a744:	3d8043e6 	str	q6, [sp, #256]
    a748:	3d8047e7 	str	q7, [sp, #272]
    a74c:	a9128be1 	stp	x1, x2, [sp, #296]
    a750:	a91393e3 	stp	x3, x4, [sp, #312]
    a754:	a9149be5 	stp	x5, x6, [sp, #328]
    a758:	f900afe7 	str	x7, [sp, #344]
    a75c:	f9400120 	ldr	x0, [x9]
    a760:	f9400101 	ldr	x1, [x8]
    a764:	f9004fe1 	str	x1, [sp, #152]
    a768:	d2800001 	mov	x1, #0x0                   	// #0
    a76c:	b0000333 	adrp	x19, 6f000 <error@@Base+0x648f8>
    a770:	f947ce73 	ldr	x19, [x19, #3992]
    a774:	97fff863 	bl	8900 <fflush@plt>
    a778:	910483e5 	add	x5, sp, #0x120
    a77c:	910583e6 	add	x6, sp, #0x160
    a780:	128006e4 	mov	w4, #0xffffffc8            	// #-56
    a784:	12800fe3 	mov	w3, #0xffffff80            	// #-128
    a788:	f9400275 	ldr	x21, [x19]
    a78c:	528000a2 	mov	w2, #0x5                   	// #5
    a790:	b00001c1 	adrp	x1, 43000 <error@@Base+0x388f8>
    a794:	d2800000 	mov	x0, #0x0                   	// #0
    a798:	91078021 	add	x1, x1, #0x1e0
    a79c:	a9059be6 	stp	x6, x6, [sp, #88]
    a7a0:	f90037e5 	str	x5, [sp, #104]
    a7a4:	290e0fe4 	stp	w4, w3, [sp, #112]
    a7a8:	97fff89a 	bl	8a10 <dcgettext@plt>
    a7ac:	f0000321 	adrp	x1, 71000 <error@@Base+0x668f8>
    a7b0:	aa0003e2 	mov	x2, x0
    a7b4:	aa1503e0 	mov	x0, x21
    a7b8:	f9468023 	ldr	x3, [x1, #3328]
    a7bc:	52800021 	mov	w1, #0x1                   	// #1
    a7c0:	97fff800 	bl	87c0 <__fprintf_chk@plt>
    a7c4:	910163e0 	add	x0, sp, #0x58
    a7c8:	9101e3e4 	add	x4, sp, #0x78
    a7cc:	9100c3e3 	add	x3, sp, #0x30
    a7d0:	aa1403e2 	mov	x2, x20
    a7d4:	52800021 	mov	w1, #0x1                   	// #1
    a7d8:	ad400400 	ldp	q0, q1, [x0]
    a7dc:	f9400260 	ldr	x0, [x19]
    a7e0:	ad000480 	stp	q0, q1, [x4]
    a7e4:	ad000460 	stp	q0, q1, [x3]
    a7e8:	97fff77e 	bl	85e0 <__vfprintf_chk@plt>
    a7ec:	b0000320 	adrp	x0, 6f000 <error@@Base+0x648f8>
    a7f0:	f947e400 	ldr	x0, [x0, #4040]
    a7f4:	f9404fe2 	ldr	x2, [sp, #152]
    a7f8:	f9400001 	ldr	x1, [x0]
    a7fc:	eb010042 	subs	x2, x2, x1
    a800:	d2800001 	mov	x1, #0x0                   	// #0
    a804:	54000040 	b.eq	a80c <error@@Base+0x104>  // b.none
    a808:	97fff7a2 	bl	8690 <__stack_chk_fail@plt>
    a80c:	a94153f3 	ldp	x19, x20, [sp, #16]
    a810:	f94013f5 	ldr	x21, [sp, #32]
    a814:	a8d67bfd 	ldp	x29, x30, [sp], #352
    a818:	d65f03c0 	ret
    a81c:	d105c3ff 	sub	sp, sp, #0x170
    a820:	a9047bfd 	stp	x29, x30, [sp, #64]
    a824:	910103fd 	add	x29, sp, #0x40
    a828:	f9005be0 	str	x0, [sp, #176]
    a82c:	b0000320 	adrp	x0, 6f000 <error@@Base+0x648f8>
    a830:	f947e400 	ldr	x0, [x0, #4040]
    a834:	a90553f3 	stp	x19, x20, [sp, #80]
    a838:	f9405be2 	ldr	x2, [sp, #176]
    a83c:	a9065bf5 	stp	x21, x22, [sp, #96]
    a840:	a90763f7 	stp	x23, x24, [sp, #112]
    a844:	f9401442 	ldr	x2, [x2, #40]
    a848:	a9086bf9 	stp	x25, x26, [sp, #128]
    a84c:	f0000339 	adrp	x25, 71000 <error@@Base+0x668f8>
    a850:	a90973fb 	stp	x27, x28, [sp, #144]
    a854:	f9005fe2 	str	x2, [sp, #184]
    a858:	f9008be1 	str	x1, [sp, #272]
    a85c:	b94e3b21 	ldr	w1, [x25, #3640]
    a860:	f9400002 	ldr	x2, [x0]
    a864:	f900b7e2 	str	x2, [sp, #360]
    a868:	d2800002 	mov	x2, #0x0                   	// #0
    a86c:	a94b0be0 	ldp	x0, x2, [sp, #176]
    a870:	f9401c00 	ldr	x0, [x0, #56]
    a874:	8b000056 	add	x22, x2, x0
    a878:	35000081 	cbnz	w1, a888 <error@@Base+0x180>
    a87c:	52800020 	mov	w0, #0x1                   	// #1
    a880:	b90e3b20 	str	w0, [x25, #3640]
    a884:	14000002 	b	a88c <error@@Base+0x184>
    a888:	360074e1 	tbz	w1, #0, b724 <error@@Base+0x101c>
    a88c:	f9405be0 	ldr	x0, [sp, #176]
    a890:	52800021 	mov	w1, #0x1                   	// #1
    a894:	9400a2a4 	bl	33324 <error@@Base+0x28c1c>
    a898:	d0000340 	adrp	x0, 74000 <error@@Base+0x698f8>
    a89c:	91078000 	add	x0, x0, #0x1e0
    a8a0:	f9405ff3 	ldr	x19, [sp, #184]
    a8a4:	9101a000 	add	x0, x0, #0x68
    a8a8:	f90063e0 	str	x0, [sp, #192]
    a8ac:	b0000320 	adrp	x0, 6f000 <error@@Base+0x648f8>
    a8b0:	f947dc00 	ldr	x0, [x0, #4024]
    a8b4:	f90073e0 	str	x0, [sp, #224]
    a8b8:	eb1302df 	cmp	x22, x19
    a8bc:	54007349 	b.ls	b724 <error@@Base+0x101c>  // b.plast
    a8c0:	f9405be0 	ldr	x0, [sp, #176]
    a8c4:	910503f7 	add	x23, sp, #0x140
    a8c8:	f9400c14 	ldr	x20, [x0, #24]
    a8cc:	900001e0 	adrp	x0, 46000 <error@@Base+0x3b8f8>
    a8d0:	91160001 	add	x1, x0, #0x580
    a8d4:	aa1403e0 	mov	x0, x20
    a8d8:	940092de 	bl	2f450 <error@@Base+0x24d48>
    a8dc:	72001c1f 	tst	w0, #0xff
    a8e0:	54000360 	b.eq	a94c <error@@Base+0x244>  // b.none
    a8e4:	f00001a1 	adrp	x1, 41000 <error@@Base+0x368f8>
    a8e8:	aa1403e0 	mov	x0, x20
    a8ec:	91048021 	add	x1, x1, #0x120
    a8f0:	97fff7b8 	bl	87d0 <strcmp@plt>
    a8f4:	340002c0 	cbz	w0, a94c <error@@Base+0x244>
    a8f8:	d0000340 	adrp	x0, 74000 <error@@Base+0x698f8>
    a8fc:	91078000 	add	x0, x0, #0x1e0
    a900:	9101a000 	add	x0, x0, #0x68
    a904:	f9009ff6 	str	x22, [sp, #312]
    a908:	ad400400 	ldp	q0, q1, [x0]
    a90c:	f9401000 	ldr	x0, [x0, #32]
    a910:	f90012e0 	str	x0, [x23, #32]
    a914:	ad0006e0 	stp	q0, q1, [x23]
    a918:	72001c1f 	tst	w0, #0xff
    a91c:	54000101 	b.ne	a93c <error@@Base+0x234>  // b.any
    a920:	900001e1 	adrp	x1, 46000 <error@@Base+0x3b8f8>
    a924:	91164021 	add	x1, x1, #0x590
    a928:	528000a2 	mov	w2, #0x5                   	// #5
    a92c:	d2800000 	mov	x0, #0x0                   	// #0
    a930:	97fff838 	bl	8a10 <dcgettext@plt>
    a934:	97fff92d 	bl	8de8 <warn@@Base>
    a938:	14000379 	b	b71c <error@@Base+0x1014>
    a93c:	39456be0 	ldrb	w0, [sp, #346]
    a940:	d2800015 	mov	x21, #0x0                   	// #0
    a944:	94000abe 	bl	d43c <error@@Base+0x2d34>
    a948:	14000187 	b	af64 <error@@Base+0x85c>
    a94c:	f9405be0 	ldr	x0, [sp, #176]
    a950:	9104e3e4 	add	x4, sp, #0x138
    a954:	aa1703e3 	mov	x3, x23
    a958:	aa1603e2 	mov	x2, x22
    a95c:	aa1303e1 	mov	x1, x19
    a960:	940009aa 	bl	d008 <error@@Base+0x2900>
    a964:	aa0003f5 	mov	x21, x0
    a968:	b4006da0 	cbz	x0, b71c <error@@Base+0x1014>
    a96c:	528000a2 	mov	w2, #0x5                   	// #5
    a970:	900001e1 	adrp	x1, 46000 <error@@Base+0x3b8f8>
    a974:	d2800000 	mov	x0, #0x0                   	// #0
    a978:	9117a021 	add	x1, x1, #0x5e8
    a97c:	97fff825 	bl	8a10 <dcgettext@plt>
    a980:	aa0003e1 	mov	x1, x0
    a984:	f9405fe0 	ldr	x0, [sp, #184]
    a988:	cb000262 	sub	x2, x19, x0
    a98c:	52800020 	mov	w0, #0x1                   	// #1
    a990:	97fff6f8 	bl	8570 <__printf_chk@plt>
    a994:	528000a2 	mov	w2, #0x5                   	// #5
    a998:	900001e1 	adrp	x1, 46000 <error@@Base+0x3b8f8>
    a99c:	d2800000 	mov	x0, #0x0                   	// #0
    a9a0:	91184021 	add	x1, x1, #0x610
    a9a4:	97fff81b 	bl	8a10 <dcgettext@plt>
    a9a8:	aa0003e1 	mov	x1, x0
    a9ac:	f940a3e2 	ldr	x2, [sp, #320]
    a9b0:	52800020 	mov	w0, #0x1                   	// #1
    a9b4:	97fff6ef 	bl	8570 <__printf_chk@plt>
    a9b8:	528000a2 	mov	w2, #0x5                   	// #5
    a9bc:	900001e1 	adrp	x1, 46000 <error@@Base+0x3b8f8>
    a9c0:	d2800000 	mov	x0, #0x0                   	// #0
    a9c4:	9118e021 	add	x1, x1, #0x638
    a9c8:	97fff812 	bl	8a10 <dcgettext@plt>
    a9cc:	794293f4 	ldrh	w20, [sp, #328]
    a9d0:	aa0003e1 	mov	x1, x0
    a9d4:	52800020 	mov	w0, #0x1                   	// #1
    a9d8:	2a1403e2 	mov	w2, w20
    a9dc:	97fff6e5 	bl	8570 <__printf_chk@plt>
    a9e0:	7100129f 	cmp	w20, #0x4
    a9e4:	54000269 	b.ls	aa30 <error@@Base+0x328>  // b.plast
    a9e8:	528000a2 	mov	w2, #0x5                   	// #5
    a9ec:	900001e1 	adrp	x1, 46000 <error@@Base+0x3b8f8>
    a9f0:	d2800000 	mov	x0, #0x0                   	// #0
    a9f4:	91198021 	add	x1, x1, #0x660
    a9f8:	97fff806 	bl	8a10 <dcgettext@plt>
    a9fc:	aa0003e1 	mov	x1, x0
    aa00:	39452be2 	ldrb	w2, [sp, #330]
    aa04:	52800020 	mov	w0, #0x1                   	// #1
    aa08:	97fff6da 	bl	8570 <__printf_chk@plt>
    aa0c:	528000a2 	mov	w2, #0x5                   	// #5
    aa10:	900001e1 	adrp	x1, 46000 <error@@Base+0x3b8f8>
    aa14:	d2800000 	mov	x0, #0x0                   	// #0
    aa18:	911a2021 	add	x1, x1, #0x688
    aa1c:	97fff7fd 	bl	8a10 <dcgettext@plt>
    aa20:	aa0003e1 	mov	x1, x0
    aa24:	39452fe2 	ldrb	w2, [sp, #331]
    aa28:	52800020 	mov	w0, #0x1                   	// #1
    aa2c:	97fff6d1 	bl	8570 <__printf_chk@plt>
    aa30:	528000a2 	mov	w2, #0x5                   	// #5
    aa34:	900001e1 	adrp	x1, 46000 <error@@Base+0x3b8f8>
    aa38:	d2800000 	mov	x0, #0x0                   	// #0
    aa3c:	911ac021 	add	x1, x1, #0x6b0
    aa40:	97fff7f4 	bl	8a10 <dcgettext@plt>
    aa44:	aa0003e1 	mov	x1, x0
    aa48:	b94153e2 	ldr	w2, [sp, #336]
    aa4c:	52800020 	mov	w0, #0x1                   	// #1
    aa50:	97fff6c8 	bl	8570 <__printf_chk@plt>
    aa54:	528000a2 	mov	w2, #0x5                   	// #5
    aa58:	900001e1 	adrp	x1, 46000 <error@@Base+0x3b8f8>
    aa5c:	d2800000 	mov	x0, #0x0                   	// #0
    aa60:	911b6021 	add	x1, x1, #0x6d8
    aa64:	97fff7eb 	bl	8a10 <dcgettext@plt>
    aa68:	aa0003e1 	mov	x1, x0
    aa6c:	394563e2 	ldrb	w2, [sp, #344]
    aa70:	52800020 	mov	w0, #0x1                   	// #1
    aa74:	97fff6bf 	bl	8570 <__printf_chk@plt>
    aa78:	71000e9f 	cmp	w20, #0x3
    aa7c:	54000149 	b.ls	aaa4 <error@@Base+0x39c>  // b.plast
    aa80:	528000a2 	mov	w2, #0x5                   	// #5
    aa84:	900001e1 	adrp	x1, 46000 <error@@Base+0x3b8f8>
    aa88:	d2800000 	mov	x0, #0x0                   	// #0
    aa8c:	911c0021 	add	x1, x1, #0x700
    aa90:	97fff7e0 	bl	8a10 <dcgettext@plt>
    aa94:	aa0003e1 	mov	x1, x0
    aa98:	394567e2 	ldrb	w2, [sp, #345]
    aa9c:	52800020 	mov	w0, #0x1                   	// #1
    aaa0:	97fff6b4 	bl	8570 <__printf_chk@plt>
    aaa4:	528000a2 	mov	w2, #0x5                   	// #5
    aaa8:	900001e1 	adrp	x1, 46000 <error@@Base+0x3b8f8>
    aaac:	d2800000 	mov	x0, #0x0                   	// #0
    aab0:	911ca021 	add	x1, x1, #0x728
    aab4:	97fff7d7 	bl	8a10 <dcgettext@plt>
    aab8:	39456bf3 	ldrb	w19, [sp, #346]
    aabc:	aa0003e1 	mov	x1, x0
    aac0:	52800020 	mov	w0, #0x1                   	// #1
    aac4:	2a1303e2 	mov	w2, w19
    aac8:	97fff6aa 	bl	8570 <__printf_chk@plt>
    aacc:	528000a2 	mov	w2, #0x5                   	// #5
    aad0:	900001e1 	adrp	x1, 46000 <error@@Base+0x3b8f8>
    aad4:	d2800000 	mov	x0, #0x0                   	// #0
    aad8:	911d4021 	add	x1, x1, #0x750
    aadc:	97fff7cd 	bl	8a10 <dcgettext@plt>
    aae0:	aa0003e1 	mov	x1, x0
    aae4:	b9415fe2 	ldr	w2, [sp, #348]
    aae8:	52800020 	mov	w0, #0x1                   	// #1
    aaec:	97fff6a1 	bl	8570 <__printf_chk@plt>
    aaf0:	528000a2 	mov	w2, #0x5                   	// #5
    aaf4:	900001e1 	adrp	x1, 46000 <error@@Base+0x3b8f8>
    aaf8:	d2800000 	mov	x0, #0x0                   	// #0
    aafc:	911de021 	add	x1, x1, #0x778
    ab00:	97fff7c4 	bl	8a10 <dcgettext@plt>
    ab04:	394583fa 	ldrb	w26, [sp, #352]
    ab08:	aa0003e1 	mov	x1, x0
    ab0c:	52800020 	mov	w0, #0x1                   	// #1
    ab10:	2a1a03e2 	mov	w2, w26
    ab14:	97fff697 	bl	8570 <__printf_chk@plt>
    ab18:	528000a2 	mov	w2, #0x5                   	// #5
    ab1c:	900001e1 	adrp	x1, 46000 <error@@Base+0x3b8f8>
    ab20:	d2800000 	mov	x0, #0x0                   	// #0
    ab24:	911e8021 	add	x1, x1, #0x7a0
    ab28:	97fff7ba 	bl	8a10 <dcgettext@plt>
    ab2c:	394587f8 	ldrb	w24, [sp, #353]
    ab30:	aa0003e1 	mov	x1, x0
    ab34:	52800020 	mov	w0, #0x1                   	// #1
    ab38:	2a1803e2 	mov	w2, w24
    ab3c:	97fff68d 	bl	8570 <__printf_chk@plt>
    ab40:	3500013a 	cbnz	w26, ab64 <error@@Base+0x45c>
    ab44:	900001e1 	adrp	x1, 46000 <error@@Base+0x3b8f8>
    ab48:	911f2021 	add	x1, x1, #0x7c8
    ab4c:	528000a2 	mov	w2, #0x5                   	// #5
    ab50:	d2800000 	mov	x0, #0x0                   	// #0
    ab54:	97fff7af 	bl	8a10 <dcgettext@plt>
    ab58:	97fff8a4 	bl	8de8 <warn@@Base>
    ab5c:	52800020 	mov	w0, #0x1                   	// #1
    ab60:	390583e0 	strb	w0, [sp, #352]
    ab64:	2a1303e0 	mov	w0, w19
    ab68:	94000a35 	bl	d43c <error@@Base+0x2d34>
    ab6c:	8b3802a0 	add	x0, x21, w24, uxtb
    ab70:	2a1803f3 	mov	w19, w24
    ab74:	eb0002df 	cmp	x22, x0
    ab78:	54000108 	b.hi	ab98 <error@@Base+0x490>  // b.pmore
    ab7c:	900001e1 	adrp	x1, 46000 <error@@Base+0x3b8f8>
    ab80:	911fe021 	add	x1, x1, #0x7f8
    ab84:	528000a2 	mov	w2, #0x5                   	// #5
    ab88:	d2800000 	mov	x0, #0x0                   	// #0
    ab8c:	97fff7a1 	bl	8a10 <dcgettext@plt>
    ab90:	97fff896 	bl	8de8 <warn@@Base>
    ab94:	140002e2 	b	b71c <error@@Base+0x1014>
    ab98:	528000a2 	mov	w2, #0x5                   	// #5
    ab9c:	900001e1 	adrp	x1, 46000 <error@@Base+0x3b8f8>
    aba0:	d2800000 	mov	x0, #0x0                   	// #0
    aba4:	9120a021 	add	x1, x1, #0x828
    aba8:	97fff79a 	bl	8a10 <dcgettext@plt>
    abac:	900001fb 	adrp	x27, 46000 <error@@Base+0x3b8f8>
    abb0:	aa0003e1 	mov	x1, x0
    abb4:	9120e37b 	add	x27, x27, #0x838
    abb8:	52800020 	mov	w0, #0x1                   	// #1
    abbc:	97fff66d 	bl	8570 <__printf_chk@plt>
    abc0:	900001fa 	adrp	x26, 46000 <error@@Base+0x3b8f8>
    abc4:	d280001c 	mov	x28, #0x0                   	// #0
    abc8:	91216340 	add	x0, x26, #0x858
    abcc:	f90057e0 	str	x0, [sp, #168]
    abd0:	1100079a 	add	w26, w28, #0x1
    abd4:	6b1a031f 	cmp	w24, w26
    abd8:	540001cd 	b.le	ac10 <error@@Base+0x508>
    abdc:	f94057e1 	ldr	x1, [sp, #168]
    abe0:	aa1b03e2 	mov	x2, x27
    abe4:	387c6aa3 	ldrb	w3, [x21, x28]
    abe8:	528000a4 	mov	w4, #0x5                   	// #5
    abec:	d2800000 	mov	x0, #0x0                   	// #0
    abf0:	97fff73c 	bl	88e0 <dcngettext@plt>
    abf4:	aa0003e1 	mov	x1, x0
    abf8:	387c6aa3 	ldrb	w3, [x21, x28]
    abfc:	2a1a03e2 	mov	w2, w26
    ac00:	9100079c 	add	x28, x28, #0x1
    ac04:	52800020 	mov	w0, #0x1                   	// #1
    ac08:	97fff65a 	bl	8570 <__printf_chk@plt>
    ac0c:	17fffff1 	b	abd0 <error@@Base+0x4c8>
    ac10:	d1000660 	sub	x0, x19, #0x1
    ac14:	8b0002b3 	add	x19, x21, x0
    ac18:	7100129f 	cmp	w20, #0x4
    ac1c:	54000229 	b.ls	ac60 <error@@Base+0x558>  // b.plast
    ac20:	f9408be1 	ldr	x1, [sp, #272]
    ac24:	52800160 	mov	w0, #0xb                   	// #11
    ac28:	94009cca 	bl	31f50 <error@@Base+0x27848>
    ac2c:	a94b07e4 	ldp	x4, x1, [sp, #176]
    ac30:	aa1303e0 	mov	x0, x19
    ac34:	aa1703e3 	mov	x3, x23
    ac38:	aa1603e2 	mov	x2, x22
    ac3c:	52800025 	mov	w5, #0x1                   	// #1
    ac40:	94000d11 	bl	e084 <error@@Base+0x397c>
    ac44:	a94b07e4 	ldp	x4, x1, [sp, #176]
    ac48:	aa1703e3 	mov	x3, x23
    ac4c:	aa1603e2 	mov	x2, x22
    ac50:	52800005 	mov	w5, #0x0                   	// #0
    ac54:	94000d0c 	bl	e084 <error@@Base+0x397c>
    ac58:	aa0003f3 	mov	x19, x0
    ac5c:	140000b9 	b	af40 <error@@Base+0x838>
    ac60:	38606aa0 	ldrb	w0, [x21, x0]
    ac64:	350001a0 	cbnz	w0, ac98 <error@@Base+0x590>
    ac68:	528000a2 	mov	w2, #0x5                   	// #5
    ac6c:	900001e1 	adrp	x1, 46000 <error@@Base+0x3b8f8>
    ac70:	d2800000 	mov	x0, #0x0                   	// #0
    ac74:	9121c021 	add	x1, x1, #0x870
    ac78:	97fff766 	bl	8a10 <dcgettext@plt>
    ac7c:	aa0003e1 	mov	x1, x0
    ac80:	52800020 	mov	w0, #0x1                   	// #1
    ac84:	97fff63b 	bl	8570 <__printf_chk@plt>
    ac88:	aa1303e0 	mov	x0, x19
    ac8c:	eb1302df 	cmp	x22, x19
    ac90:	54000568 	b.hi	ad3c <error@@Base+0x634>  // b.pmore
    ac94:	1400002f 	b	ad50 <error@@Base+0x648>
    ac98:	528000a2 	mov	w2, #0x5                   	// #5
    ac9c:	900001e1 	adrp	x1, 46000 <error@@Base+0x3b8f8>
    aca0:	d2800000 	mov	x0, #0x0                   	// #0
    aca4:	91226021 	add	x1, x1, #0x898
    aca8:	97fff75a 	bl	8a10 <dcgettext@plt>
    acac:	aa0003e1 	mov	x1, x0
    acb0:	f9405fe0 	ldr	x0, [sp, #184]
    acb4:	900001f4 	adrp	x20, 46000 <error@@Base+0x3b8f8>
    acb8:	52800018 	mov	w24, #0x0                   	// #0
    acbc:	91230294 	add	x20, x20, #0x8c0
    acc0:	cb000262 	sub	x2, x19, x0
    acc4:	52800020 	mov	w0, #0x1                   	// #1
    acc8:	97fff62a 	bl	8570 <__printf_chk@plt>
    accc:	eb1302df 	cmp	x22, x19
    acd0:	540000a8 	b.hi	ace4 <error@@Base+0x5dc>  // b.pmore
    acd4:	d10006c0 	sub	x0, x22, #0x1
    acd8:	eb00027f 	cmp	x19, x0
    acdc:	540003a3 	b.cc	ad50 <error@@Base+0x648>  // b.lo, b.ul, b.last
    ace0:	14000291 	b	b724 <error@@Base+0x101c>
    ace4:	39400260 	ldrb	w0, [x19]
    ace8:	34000220 	cbz	w0, ad2c <error@@Base+0x624>
    acec:	cb1302da 	sub	x26, x22, x19
    acf0:	11000718 	add	w24, w24, #0x1
    acf4:	aa1303e4 	mov	x4, x19
    acf8:	2a1803e2 	mov	w2, w24
    acfc:	2a1a03e3 	mov	w3, w26
    ad00:	aa1403e1 	mov	x1, x20
    ad04:	52800020 	mov	w0, #0x1                   	// #1
    ad08:	97fff61a 	bl	8570 <__printf_chk@plt>
    ad0c:	aa1303e0 	mov	x0, x19
    ad10:	aa1a03e1 	mov	x1, x26
    ad14:	97fff577 	bl	82f0 <strnlen@plt>
    ad18:	8b000273 	add	x19, x19, x0
    ad1c:	eb1302df 	cmp	x22, x19
    ad20:	54fffda9 	b.ls	acd4 <error@@Base+0x5cc>  // b.plast
    ad24:	91000673 	add	x19, x19, #0x1
    ad28:	17ffffe9 	b	accc <error@@Base+0x5c4>
    ad2c:	d10006c0 	sub	x0, x22, #0x1
    ad30:	eb00027f 	cmp	x19, x0
    ad34:	54004f82 	b.cs	b724 <error@@Base+0x101c>  // b.hs, b.nlast
    ad38:	aa1303e0 	mov	x0, x19
    ad3c:	91000673 	add	x19, x19, #0x1
    ad40:	eb1302df 	cmp	x22, x19
    ad44:	54000069 	b.ls	ad50 <error@@Base+0x648>  // b.plast
    ad48:	39400400 	ldrb	w0, [x0, #1]
    ad4c:	35000180 	cbnz	w0, ad7c <error@@Base+0x674>
    ad50:	528000a2 	mov	w2, #0x5                   	// #5
    ad54:	900001e1 	adrp	x1, 46000 <error@@Base+0x3b8f8>
    ad58:	d2800000 	mov	x0, #0x0                   	// #0
    ad5c:	91234021 	add	x1, x1, #0x8d0
    ad60:	97fff72c 	bl	8a10 <dcgettext@plt>
    ad64:	aa0003e1 	mov	x1, x0
    ad68:	52800020 	mov	w0, #0x1                   	// #1
    ad6c:	97fff601 	bl	8570 <__printf_chk@plt>
    ad70:	eb1302df 	cmp	x22, x19
    ad74:	54000e48 	b.hi	af3c <error@@Base+0x834>  // b.pmore
    ad78:	14000072 	b	af40 <error@@Base+0x838>
    ad7c:	528000a2 	mov	w2, #0x5                   	// #5
    ad80:	900001e1 	adrp	x1, 46000 <error@@Base+0x3b8f8>
    ad84:	d2800000 	mov	x0, #0x0                   	// #0
    ad88:	9123e021 	add	x1, x1, #0x8f8
    ad8c:	97fff721 	bl	8a10 <dcgettext@plt>
    ad90:	aa0003e1 	mov	x1, x0
    ad94:	f9405fe0 	ldr	x0, [sp, #184]
    ad98:	d000035b 	adrp	x27, 74000 <error@@Base+0x698f8>
    ad9c:	900001fa 	adrp	x26, 46000 <error@@Base+0x3b8f8>
    ada0:	cb000262 	sub	x2, x19, x0
    ada4:	52800020 	mov	w0, #0x1                   	// #1
    ada8:	97fff5f2 	bl	8570 <__printf_chk@plt>
    adac:	528000a2 	mov	w2, #0x5                   	// #5
    adb0:	900001e1 	adrp	x1, 46000 <error@@Base+0x3b8f8>
    adb4:	d2800000 	mov	x0, #0x0                   	// #0
    adb8:	91248021 	add	x1, x1, #0x920
    adbc:	97fff715 	bl	8a10 <dcgettext@plt>
    adc0:	aa0003e1 	mov	x1, x0
    adc4:	52800020 	mov	w0, #0x1                   	// #1
    adc8:	97fff5ea 	bl	8570 <__printf_chk@plt>
    adcc:	91078360 	add	x0, x27, #0x1e0
    add0:	f90057e0 	str	x0, [sp, #168]
    add4:	91250340 	add	x0, x26, #0x940
    add8:	f90067e0 	str	x0, [sp, #200]
    addc:	39400260 	ldrb	w0, [x19]
    ade0:	34000ae0 	cbz	w0, af3c <error@@Base+0x834>
    ade4:	f94057e0 	ldr	x0, [sp, #168]
    ade8:	cb1302dc 	sub	x28, x22, x19
    adec:	f94067e1 	ldr	x1, [sp, #200]
    adf0:	91024003 	add	x3, x0, #0x90
    adf4:	b9402462 	ldr	w2, [x3, #36]
    adf8:	52800020 	mov	w0, #0x1                   	// #1
    adfc:	0b000042 	add	w2, w2, w0
    ae00:	b9002462 	str	w2, [x3, #36]
    ae04:	97fff5db 	bl	8570 <__printf_chk@plt>
    ae08:	aa1c03e1 	mov	x1, x28
    ae0c:	aa1303e0 	mov	x0, x19
    ae10:	97fff538 	bl	82f0 <strnlen@plt>
    ae14:	8b000274 	add	x20, x19, x0
    ae18:	eb1402df 	cmp	x22, x20
    ae1c:	54000049 	b.ls	ae24 <error@@Base+0x71c>  // b.plast
    ae20:	91000694 	add	x20, x20, #0x1
    ae24:	9104d3e4 	add	x4, sp, #0x134
    ae28:	9104c3e3 	add	x3, sp, #0x130
    ae2c:	aa0403fb 	mov	x27, x4
    ae30:	aa0303fa 	mov	x26, x3
    ae34:	aa1603e1 	mov	x1, x22
    ae38:	aa1403e0 	mov	x0, x20
    ae3c:	52800002 	mov	w2, #0x0                   	// #0
    ae40:	9400a109 	bl	33264 <error@@Base+0x28b5c>
    ae44:	b94133e1 	ldr	w1, [sp, #304]
    ae48:	aa0003e2 	mov	x2, x0
    ae4c:	b94137e0 	ldr	w0, [sp, #308]
    ae50:	900001f8 	adrp	x24, 46000 <error@@Base+0x3b8f8>
    ae54:	8b010294 	add	x20, x20, x1
    ae58:	f9006be2 	str	x2, [sp, #208]
    ae5c:	91252318 	add	x24, x24, #0x948
    ae60:	9400a189 	bl	33484 <error@@Base+0x28d7c>
    ae64:	f9406be2 	ldr	x2, [sp, #208]
    ae68:	aa1803e1 	mov	x1, x24
    ae6c:	52800020 	mov	w0, #0x1                   	// #1
    ae70:	97fff5c0 	bl	8570 <__printf_chk@plt>
    ae74:	aa1b03e4 	mov	x4, x27
    ae78:	aa1a03e3 	mov	x3, x26
    ae7c:	aa1403e0 	mov	x0, x20
    ae80:	aa1603e1 	mov	x1, x22
    ae84:	52800002 	mov	w2, #0x0                   	// #0
    ae88:	9400a0f7 	bl	33264 <error@@Base+0x28b5c>
    ae8c:	b94133e1 	ldr	w1, [sp, #304]
    ae90:	aa0003e2 	mov	x2, x0
    ae94:	b94137e0 	ldr	w0, [sp, #308]
    ae98:	8b010294 	add	x20, x20, x1
    ae9c:	f9006be2 	str	x2, [sp, #208]
    aea0:	9400a179 	bl	33484 <error@@Base+0x28d7c>
    aea4:	f9406be2 	ldr	x2, [sp, #208]
    aea8:	aa1803e1 	mov	x1, x24
    aeac:	52800020 	mov	w0, #0x1                   	// #1
    aeb0:	97fff5b0 	bl	8570 <__printf_chk@plt>
    aeb4:	aa1a03e3 	mov	x3, x26
    aeb8:	aa1b03e4 	mov	x4, x27
    aebc:	aa1403e0 	mov	x0, x20
    aec0:	aa1603e1 	mov	x1, x22
    aec4:	52800002 	mov	w2, #0x0                   	// #0
    aec8:	9400a0e7 	bl	33264 <error@@Base+0x28b5c>
    aecc:	b94133e1 	ldr	w1, [sp, #304]
    aed0:	aa0003e2 	mov	x2, x0
    aed4:	b94137e0 	ldr	w0, [sp, #308]
    aed8:	8b010294 	add	x20, x20, x1
    aedc:	f9006be2 	str	x2, [sp, #208]
    aee0:	9400a169 	bl	33484 <error@@Base+0x28d7c>
    aee4:	f9406be2 	ldr	x2, [sp, #208]
    aee8:	aa1803e1 	mov	x1, x24
    aeec:	52800020 	mov	w0, #0x1                   	// #1
    aef0:	97fff5a0 	bl	8570 <__printf_chk@plt>
    aef4:	900001e1 	adrp	x1, 46000 <error@@Base+0x3b8f8>
    aef8:	aa1303e3 	mov	x3, x19
    aefc:	2a1c03e2 	mov	w2, w28
    af00:	91254021 	add	x1, x1, #0x950
    af04:	52800020 	mov	w0, #0x1                   	// #1
    af08:	97fff59a 	bl	8570 <__printf_chk@plt>
    af0c:	eb1402df 	cmp	x22, x20
    af10:	54000128 	b.hi	af34 <error@@Base+0x82c>  // b.pmore
    af14:	900001e1 	adrp	x1, 46000 <error@@Base+0x3b8f8>
    af18:	91256021 	add	x1, x1, #0x958
    af1c:	528000a2 	mov	w2, #0x5                   	// #5
    af20:	aa1403f3 	mov	x19, x20
    af24:	d2800000 	mov	x0, #0x0                   	// #0
    af28:	97fff6ba 	bl	8a10 <dcgettext@plt>
    af2c:	97fff7af 	bl	8de8 <warn@@Base>
    af30:	14000004 	b	af40 <error@@Base+0x838>
    af34:	aa1403f3 	mov	x19, x20
    af38:	17ffffa9 	b	addc <error@@Base+0x6d4>
    af3c:	91000673 	add	x19, x19, #0x1
    af40:	f94073e0 	ldr	x0, [sp, #224]
    af44:	f9400001 	ldr	x1, [x0]
    af48:	52800140 	mov	w0, #0xa                   	// #10
    af4c:	97fff50d 	bl	8380 <putc@plt>
    af50:	f94063e1 	ldr	x1, [sp, #192]
    af54:	ad4006e0 	ldp	q0, q1, [x23]
    af58:	f94012e0 	ldr	x0, [x23, #32]
    af5c:	f9001020 	str	x0, [x1, #32]
    af60:	ad000420 	stp	q0, q1, [x1]
    af64:	528000a2 	mov	w2, #0x5                   	// #5
    af68:	f9409ffb 	ldr	x27, [sp, #312]
    af6c:	eb13037f 	cmp	x27, x19
    af70:	54000128 	b.hi	af94 <error@@Base+0x88c>  // b.pmore
    af74:	900001e1 	adrp	x1, 46000 <error@@Base+0x3b8f8>
    af78:	d2800000 	mov	x0, #0x0                   	// #0
    af7c:	9125e021 	add	x1, x1, #0x978
    af80:	97fff6a4 	bl	8a10 <dcgettext@plt>
    af84:	aa0003e1 	mov	x1, x0
    af88:	52800020 	mov	w0, #0x1                   	// #1
    af8c:	97fff579 	bl	8570 <__printf_chk@plt>
    af90:	17fffe4a 	b	a8b8 <error@@Base+0x1b0>
    af94:	b0000323 	adrp	x3, 6f000 <error@@Base+0x648f8>
    af98:	f947dc63 	ldr	x3, [x3, #4024]
    af9c:	900001e1 	adrp	x1, 46000 <error@@Base+0x3b8f8>
    afa0:	d2800000 	mov	x0, #0x0                   	// #0
    afa4:	91266021 	add	x1, x1, #0x998
    afa8:	f9006fe3 	str	x3, [sp, #216]
    afac:	d0000357 	adrp	x23, 74000 <error@@Base+0x698f8>
    afb0:	97fff698 	bl	8a10 <dcgettext@plt>
    afb4:	910782fa 	add	x26, x23, #0x1e0
    afb8:	aa0003e1 	mov	x1, x0
    afbc:	52800020 	mov	w0, #0x1                   	// #1
    afc0:	97fff56c 	bl	8570 <__printf_chk@plt>
    afc4:	900001e0 	adrp	x0, 46000 <error@@Base+0x3b8f8>
    afc8:	9126e000 	add	x0, x0, #0x9b8
    afcc:	f90067e0 	str	x0, [sp, #200]
    afd0:	f94067e1 	ldr	x1, [sp, #200]
    afd4:	aa1303f4 	mov	x20, x19
    afd8:	f9405fe0 	ldr	x0, [sp, #184]
    afdc:	cb000262 	sub	x2, x19, x0
    afe0:	52800020 	mov	w0, #0x1                   	// #1
    afe4:	97fff563 	bl	8570 <__printf_chk@plt>
    afe8:	38401693 	ldrb	w19, [x20], #1
    afec:	394587e2 	ldrb	w2, [sp, #353]
    aff0:	6b02027f 	cmp	w19, w2
    aff4:	54000ac3 	b.cc	b14c <error@@Base+0xa44>  // b.lo, b.ul, b.last
    aff8:	394583e0 	ldrb	w0, [sp, #352]
    affc:	4b020273 	sub	w19, w19, w2
    b000:	b900abe0 	str	w0, [sp, #168]
    b004:	12001e73 	and	w19, w19, #0xff
    b008:	910782e8 	add	x8, x23, #0x1e0
    b00c:	394567e1 	ldrb	w1, [sp, #345]
    b010:	b940abe2 	ldr	w2, [sp, #168]
    b014:	91024106 	add	x6, x8, #0x90
    b018:	394563e0 	ldrb	w0, [sp, #344]
    b01c:	7100043f 	cmp	w1, #0x1
    b020:	f9404904 	ldr	x4, [x8, #144]
    b024:	f00001bc 	adrp	x28, 42000 <error@@Base+0x378f8>
    b028:	1ac20a78 	udiv	w24, w19, w2
    b02c:	12001f02 	and	w2, w24, #0xff
    b030:	92401f03 	and	x3, x24, #0xff
    b034:	540002a1 	b.ne	b088 <error@@Base+0x980>  // b.any
    b038:	9ba07c43 	umull	x3, w2, w0
    b03c:	8b040064 	add	x4, x3, x4
    b040:	f9004904 	str	x4, [x8, #144]
    b044:	b4000043 	cbz	x3, b04c <error@@Base+0x944>
    b048:	b90008df 	str	wzr, [x6, #8]
    b04c:	528000a2 	mov	w2, #0x5                   	// #5
    b050:	f00001c1 	adrp	x1, 46000 <error@@Base+0x3b8f8>
    b054:	d2800000 	mov	x0, #0x0                   	// #0
    b058:	91272021 	add	x1, x1, #0x9c8
    b05c:	f9006be3 	str	x3, [sp, #208]
    b060:	f90077e4 	str	x4, [sp, #232]
    b064:	97fff66b 	bl	8a10 <dcgettext@plt>
    b068:	f9406be3 	ldr	x3, [sp, #208]
    b06c:	aa0003e1 	mov	x1, x0
    b070:	f94077e4 	ldr	x4, [sp, #232]
    b074:	91270385 	add	x5, x28, #0x9c0
    b078:	2a1303e2 	mov	w2, w19
    b07c:	52800020 	mov	w0, #0x1                   	// #1
    b080:	97fff53c 	bl	8570 <__printf_chk@plt>
    b084:	1400001a 	b	b0ec <error@@Base+0x9e4>
    b088:	394080c2 	ldrb	w2, [x6, #32]
    b08c:	8b030042 	add	x2, x2, x3
    b090:	9ac10845 	udiv	x5, x2, x1
    b094:	1b057c00 	mul	w0, w0, w5
    b098:	9b0188a5 	msub	x5, x5, x1, x2
    b09c:	2a0003e1 	mov	w1, w0
    b0a0:	390080c5 	strb	w5, [x6, #32]
    b0a4:	8b040024 	add	x4, x1, x4
    b0a8:	f9004904 	str	x4, [x8, #144]
    b0ac:	34000040 	cbz	w0, b0b4 <error@@Base+0x9ac>
    b0b0:	b90008df 	str	wzr, [x6, #8]
    b0b4:	528000a2 	mov	w2, #0x5                   	// #5
    b0b8:	f00001c1 	adrp	x1, 46000 <error@@Base+0x3b8f8>
    b0bc:	d2800000 	mov	x0, #0x0                   	// #0
    b0c0:	91280021 	add	x1, x1, #0xa00
    b0c4:	f9006be3 	str	x3, [sp, #208]
    b0c8:	a90e97e4 	stp	x4, x5, [sp, #232]
    b0cc:	97fff651 	bl	8a10 <dcgettext@plt>
    b0d0:	91270386 	add	x6, x28, #0x9c0
    b0d4:	a94e97e4 	ldp	x4, x5, [sp, #232]
    b0d8:	aa0003e1 	mov	x1, x0
    b0dc:	f9406be3 	ldr	x3, [sp, #208]
    b0e0:	2a1303e2 	mov	w2, w19
    b0e4:	52800020 	mov	w0, #0x1                   	// #1
    b0e8:	97fff522 	bl	8570 <__printf_chk@plt>
    b0ec:	b940abe0 	ldr	w0, [sp, #168]
    b0f0:	528000a2 	mov	w2, #0x5                   	// #5
    b0f4:	b9415fe3 	ldr	w3, [sp, #348]
    b0f8:	f00001c1 	adrp	x1, 46000 <error@@Base+0x3b8f8>
    b0fc:	91290021 	add	x1, x1, #0xa40
    b100:	1b00cf07 	msub	w7, w24, w0, w19
    b104:	b940a358 	ldr	w24, [x26, #160]
    b108:	d2800000 	mov	x0, #0x0                   	// #0
    b10c:	0b270073 	add	w19, w3, w7, uxtb
    b110:	0b180278 	add	w24, w19, w24
    b114:	b900a358 	str	w24, [x26, #160]
    b118:	97fff63e 	bl	8a10 <dcgettext@plt>
    b11c:	aa0003e1 	mov	x1, x0
    b120:	93407e62 	sxtw	x2, w19
    b124:	2a1803e3 	mov	w3, w24
    b128:	52800020 	mov	w0, #0x1                   	// #1
    b12c:	97fff511 	bl	8570 <__printf_chk@plt>
    b130:	b9409b53 	ldr	w19, [x26, #152]
    b134:	350003f3 	cbnz	w19, b1b0 <error@@Base+0xaa8>
    b138:	f9406fe0 	ldr	x0, [sp, #216]
    b13c:	f9400001 	ldr	x1, [x0]
    b140:	52800140 	mov	w0, #0xa                   	// #10
    b144:	97fff48f 	bl	8380 <putc@plt>
    b148:	14000029 	b	b1ec <error@@Base+0xae4>
    b14c:	7100327f 	cmp	w19, #0xc
    b150:	540026c8 	b.hi	b628 <error@@Base+0xf20>  // b.pmore
    b154:	d00001e0 	adrp	x0, 49000 <error@@Base+0x3e8f8>
    b158:	91268000 	add	x0, x0, #0x9a0
    b15c:	78735800 	ldrh	w0, [x0, w19, uxtw #1]
    b160:	10000073 	adr	x19, b16c <error@@Base+0xa64>
    b164:	8b20aa60 	add	x0, x19, w0, sxth #2
    b168:	d61f0000 	br	x0
    b16c:	39456be1 	ldrb	w1, [sp, #346]
    b170:	aa1603e2 	mov	x2, x22
    b174:	aa1403e0 	mov	x0, x20
    b178:	9400170b 	bl	10da4 <error@@Base+0x669c>
    b17c:	8b000293 	add	x19, x20, x0
    b180:	1400015f 	b	b6fc <error@@Base+0xff4>
    b184:	528000a2 	mov	w2, #0x5                   	// #5
    b188:	f00001c1 	adrp	x1, 46000 <error@@Base+0x3b8f8>
    b18c:	d2800000 	mov	x0, #0x0                   	// #0
    b190:	9129a021 	add	x1, x1, #0xa68
    b194:	97fff61f 	bl	8a10 <dcgettext@plt>
    b198:	aa0003e1 	mov	x1, x0
    b19c:	52800020 	mov	w0, #0x1                   	// #1
    b1a0:	97fff4f4 	bl	8570 <__printf_chk@plt>
    b1a4:	910782e0 	add	x0, x23, #0x1e0
    b1a8:	b9409813 	ldr	w19, [x0, #152]
    b1ac:	34000173 	cbz	w19, b1d8 <error@@Base+0xad0>
    b1b0:	528000a2 	mov	w2, #0x5                   	// #5
    b1b4:	f00001c1 	adrp	x1, 46000 <error@@Base+0x3b8f8>
    b1b8:	d2800000 	mov	x0, #0x0                   	// #0
    b1bc:	91296021 	add	x1, x1, #0xa58
    b1c0:	97fff614 	bl	8a10 <dcgettext@plt>
    b1c4:	aa0003e1 	mov	x1, x0
    b1c8:	2a1303e2 	mov	w2, w19
    b1cc:	52800020 	mov	w0, #0x1                   	// #1
    b1d0:	97fff4e8 	bl	8570 <__printf_chk@plt>
    b1d4:	14000006 	b	b1ec <error@@Base+0xae4>
    b1d8:	90000321 	adrp	x1, 6f000 <error@@Base+0x648f8>
    b1dc:	f947dc21 	ldr	x1, [x1, #4024]
    b1e0:	52800140 	mov	w0, #0xa                   	// #10
    b1e4:	f9400021 	ldr	x1, [x1]
    b1e8:	97fff466 	bl	8380 <putc@plt>
    b1ec:	b9409b40 	ldr	w0, [x26, #152]
    b1f0:	11000400 	add	w0, w0, #0x1
    b1f4:	b9009b40 	str	w0, [x26, #152]
    b1f8:	aa1403f3 	mov	x19, x20
    b1fc:	14000140 	b	b6fc <error@@Base+0xff4>
    b200:	aa1603e1 	mov	x1, x22
    b204:	9104d3e4 	add	x4, sp, #0x134
    b208:	9104c3e3 	add	x3, sp, #0x130
    b20c:	52800002 	mov	w2, #0x0                   	// #0
    b210:	aa1403e0 	mov	x0, x20
    b214:	9400a014 	bl	33264 <error@@Base+0x28b5c>
    b218:	aa0003f8 	mov	x24, x0
    b21c:	b94137e0 	ldr	w0, [sp, #308]
    b220:	b94133f3 	ldr	w19, [sp, #304]
    b224:	f00001bc 	adrp	x28, 42000 <error@@Base+0x378f8>
    b228:	8b130293 	add	x19, x20, x19
    b22c:	9400a096 	bl	33484 <error@@Base+0x28d7c>
    b230:	394567e1 	ldrb	w1, [sp, #345]
    b234:	b0000340 	adrp	x0, 74000 <error@@Base+0x698f8>
    b238:	91078000 	add	x0, x0, #0x1e0
    b23c:	7100043f 	cmp	w1, #0x1
    b240:	54000281 	b.ne	b290 <error@@Base+0xb88>  // b.any
    b244:	394563f4 	ldrb	w20, [sp, #344]
    b248:	f9404803 	ldr	x3, [x0, #144]
    b24c:	9b187e94 	mul	x20, x20, x24
    b250:	8b030298 	add	x24, x20, x3
    b254:	f9004818 	str	x24, [x0, #144]
    b258:	b4000054 	cbz	x20, b260 <error@@Base+0xb58>
    b25c:	b900981f 	str	wzr, [x0, #152]
    b260:	528000a2 	mov	w2, #0x5                   	// #5
    b264:	f00001c1 	adrp	x1, 46000 <error@@Base+0x3b8f8>
    b268:	d2800000 	mov	x0, #0x0                   	// #0
    b26c:	9129c021 	add	x1, x1, #0xa70
    b270:	97fff5e8 	bl	8a10 <dcgettext@plt>
    b274:	aa0003e1 	mov	x1, x0
    b278:	91270384 	add	x4, x28, #0x9c0
    b27c:	aa1803e3 	mov	x3, x24
    b280:	aa1403e2 	mov	x2, x20
    b284:	52800020 	mov	w0, #0x1                   	// #1
    b288:	97fff4ba 	bl	8570 <__printf_chk@plt>
    b28c:	1400011c 	b	b6fc <error@@Base+0xff4>
    b290:	3942c004 	ldrb	w4, [x0, #176]
    b294:	394563e2 	ldrb	w2, [sp, #344]
    b298:	8b180084 	add	x4, x4, x24
    b29c:	f9404803 	ldr	x3, [x0, #144]
    b2a0:	9ac10894 	udiv	x20, x4, x1
    b2a4:	1b147c42 	mul	w2, w2, w20
    b2a8:	9b019294 	msub	x20, x20, x1, x4
    b2ac:	3902c014 	strb	w20, [x0, #176]
    b2b0:	8b224063 	add	x3, x3, w2, uxtw
    b2b4:	f9004803 	str	x3, [x0, #144]
    b2b8:	34000042 	cbz	w2, b2c0 <error@@Base+0xbb8>
    b2bc:	b900981f 	str	wzr, [x0, #152]
    b2c0:	528000a2 	mov	w2, #0x5                   	// #5
    b2c4:	f00001c1 	adrp	x1, 46000 <error@@Base+0x3b8f8>
    b2c8:	d2800000 	mov	x0, #0x0                   	// #0
    b2cc:	912a4021 	add	x1, x1, #0xa90
    b2d0:	f90057e3 	str	x3, [sp, #168]
    b2d4:	97fff5cf 	bl	8a10 <dcgettext@plt>
    b2d8:	f94057e3 	ldr	x3, [sp, #168]
    b2dc:	aa0003e1 	mov	x1, x0
    b2e0:	91270385 	add	x5, x28, #0x9c0
    b2e4:	2a1403e4 	mov	w4, w20
    b2e8:	aa1803e2 	mov	x2, x24
    b2ec:	52800020 	mov	w0, #0x1                   	// #1
    b2f0:	97fff4a0 	bl	8570 <__printf_chk@plt>
    b2f4:	14000102 	b	b6fc <error@@Base+0xff4>
    b2f8:	9104d3e4 	add	x4, sp, #0x134
    b2fc:	9104c3e3 	add	x3, sp, #0x130
    b300:	aa1603e1 	mov	x1, x22
    b304:	52800022 	mov	w2, #0x1                   	// #1
    b308:	aa1403e0 	mov	x0, x20
    b30c:	94009fd6 	bl	33264 <error@@Base+0x28b5c>
    b310:	aa0003f8 	mov	x24, x0
    b314:	b94137e0 	ldr	w0, [sp, #308]
    b318:	b94133f3 	ldr	w19, [sp, #304]
    b31c:	8b130293 	add	x19, x20, x19
    b320:	9400a059 	bl	33484 <error@@Base+0x28d7c>
    b324:	910782e3 	add	x3, x23, #0x1e0
    b328:	528000a2 	mov	w2, #0x5                   	// #5
    b32c:	f00001c1 	adrp	x1, 46000 <error@@Base+0x3b8f8>
    b330:	d2800000 	mov	x0, #0x0                   	// #0
    b334:	912ae021 	add	x1, x1, #0xab8
    b338:	b940a074 	ldr	w20, [x3, #160]
    b33c:	0b180294 	add	w20, w20, w24
    b340:	b900a074 	str	w20, [x3, #160]
    b344:	97fff5b3 	bl	8a10 <dcgettext@plt>
    b348:	aa0003e1 	mov	x1, x0
    b34c:	2a1403e3 	mov	w3, w20
    b350:	aa1803e2 	mov	x2, x24
    b354:	52800020 	mov	w0, #0x1                   	// #1
    b358:	97fff486 	bl	8570 <__printf_chk@plt>
    b35c:	140000e8 	b	b6fc <error@@Base+0xff4>
    b360:	9104d3e4 	add	x4, sp, #0x134
    b364:	9104c3e3 	add	x3, sp, #0x130
    b368:	aa1603e1 	mov	x1, x22
    b36c:	52800002 	mov	w2, #0x0                   	// #0
    b370:	aa1403e0 	mov	x0, x20
    b374:	94009fbc 	bl	33264 <error@@Base+0x28b5c>
    b378:	aa0003f8 	mov	x24, x0
    b37c:	b94137e0 	ldr	w0, [sp, #308]
    b380:	b94133f3 	ldr	w19, [sp, #304]
    b384:	8b130293 	add	x19, x20, x19
    b388:	9400a03f 	bl	33484 <error@@Base+0x28d7c>
    b38c:	528000a2 	mov	w2, #0x5                   	// #5
    b390:	f00001c1 	adrp	x1, 46000 <error@@Base+0x3b8f8>
    b394:	d2800000 	mov	x0, #0x0                   	// #0
    b398:	912b6021 	add	x1, x1, #0xad8
    b39c:	97fff59d 	bl	8a10 <dcgettext@plt>
    b3a0:	aa0003e1 	mov	x1, x0
    b3a4:	aa1803e2 	mov	x2, x24
    b3a8:	52800020 	mov	w0, #0x1                   	// #1
    b3ac:	97fff471 	bl	8570 <__printf_chk@plt>
    b3b0:	910782e0 	add	x0, x23, #0x1e0
    b3b4:	b9009c18 	str	w24, [x0, #156]
    b3b8:	140000d1 	b	b6fc <error@@Base+0xff4>
    b3bc:	9104d3e4 	add	x4, sp, #0x134
    b3c0:	9104c3e3 	add	x3, sp, #0x130
    b3c4:	aa1603e1 	mov	x1, x22
    b3c8:	52800002 	mov	w2, #0x0                   	// #0
    b3cc:	aa1403e0 	mov	x0, x20
    b3d0:	94009fa5 	bl	33264 <error@@Base+0x28b5c>
    b3d4:	aa0003f8 	mov	x24, x0
    b3d8:	b94137e0 	ldr	w0, [sp, #308]
    b3dc:	b94133f3 	ldr	w19, [sp, #304]
    b3e0:	8b130293 	add	x19, x20, x19
    b3e4:	9400a028 	bl	33484 <error@@Base+0x28d7c>
    b3e8:	528000a2 	mov	w2, #0x5                   	// #5
    b3ec:	f00001c1 	adrp	x1, 46000 <error@@Base+0x3b8f8>
    b3f0:	d2800000 	mov	x0, #0x0                   	// #0
    b3f4:	912c4021 	add	x1, x1, #0xb10
    b3f8:	97fff586 	bl	8a10 <dcgettext@plt>
    b3fc:	aa0003e1 	mov	x1, x0
    b400:	aa1803e2 	mov	x2, x24
    b404:	52800020 	mov	w0, #0x1                   	// #1
    b408:	97fff45a 	bl	8570 <__printf_chk@plt>
    b40c:	910782e0 	add	x0, x23, #0x1e0
    b410:	b900a418 	str	w24, [x0, #164]
    b414:	140000ba 	b	b6fc <error@@Base+0xff4>
    b418:	b0000358 	adrp	x24, 74000 <error@@Base+0x698f8>
    b41c:	91078318 	add	x24, x24, #0x1e0
    b420:	528000a2 	mov	w2, #0x5                   	// #5
    b424:	f00001c1 	adrp	x1, 46000 <error@@Base+0x3b8f8>
    b428:	d2800000 	mov	x0, #0x0                   	// #0
    b42c:	912ca021 	add	x1, x1, #0xb28
    b430:	b940ab03 	ldr	w3, [x24, #168]
    b434:	7100007f 	cmp	w3, #0x0
    b438:	1a9f17f3 	cset	w19, eq	// eq = none
    b43c:	97fff575 	bl	8a10 <dcgettext@plt>
    b440:	aa0003e1 	mov	x1, x0
    b444:	92400262 	and	x2, x19, #0x1
    b448:	52800020 	mov	w0, #0x1                   	// #1
    b44c:	97fff449 	bl	8570 <__printf_chk@plt>
    b450:	b900ab13 	str	w19, [x24, #168]
    b454:	17ffff69 	b	b1f8 <error@@Base+0xaf0>
    b458:	528000a2 	mov	w2, #0x5                   	// #5
    b45c:	f00001c1 	adrp	x1, 46000 <error@@Base+0x3b8f8>
    b460:	d2800000 	mov	x0, #0x0                   	// #0
    b464:	912d0021 	add	x1, x1, #0xb40
    b468:	97fff56a 	bl	8a10 <dcgettext@plt>
    b46c:	aa0003e1 	mov	x1, x0
    b470:	52800020 	mov	w0, #0x1                   	// #1
    b474:	97fff43f 	bl	8570 <__printf_chk@plt>
    b478:	b0000340 	adrp	x0, 74000 <error@@Base+0x698f8>
    b47c:	52800021 	mov	w1, #0x1                   	// #1
    b480:	b9028c01 	str	w1, [x0, #652]
    b484:	17ffff5d 	b	b1f8 <error@@Base+0xaf0>
    b488:	394583e3 	ldrb	w3, [sp, #352]
    b48c:	52801fe1 	mov	w1, #0xff                  	// #255
    b490:	394567e0 	ldrb	w0, [sp, #345]
    b494:	4b020021 	sub	w1, w1, w2
    b498:	1ac30821 	udiv	w1, w1, w3
    b49c:	340002e0 	cbz	w0, b4f8 <error@@Base+0xdf0>
    b4a0:	394563f3 	ldrb	w19, [sp, #344]
    b4a4:	b0000340 	adrp	x0, 74000 <error@@Base+0x698f8>
    b4a8:	91078000 	add	x0, x0, #0x1e0
    b4ac:	f9404818 	ldr	x24, [x0, #144]
    b4b0:	9b217e73 	smull	x19, w19, w1
    b4b4:	8b180278 	add	x24, x19, x24
    b4b8:	f9004818 	str	x24, [x0, #144]
    b4bc:	b4000053 	cbz	x19, b4c4 <error@@Base+0xdbc>
    b4c0:	b900981f 	str	wzr, [x0, #152]
    b4c4:	528000a2 	mov	w2, #0x5                   	// #5
    b4c8:	f00001c1 	adrp	x1, 46000 <error@@Base+0x3b8f8>
    b4cc:	d2800000 	mov	x0, #0x0                   	// #0
    b4d0:	912d6021 	add	x1, x1, #0xb58
    b4d4:	97fff54f 	bl	8a10 <dcgettext@plt>
    b4d8:	aa0003e1 	mov	x1, x0
    b4dc:	aa1803e3 	mov	x3, x24
    b4e0:	aa1303e2 	mov	x2, x19
    b4e4:	f00001a4 	adrp	x4, 42000 <error@@Base+0x378f8>
    b4e8:	52800020 	mov	w0, #0x1                   	// #1
    b4ec:	91270084 	add	x4, x4, #0x9c0
    b4f0:	97fff420 	bl	8570 <__printf_chk@plt>
    b4f4:	17ffff41 	b	b1f8 <error@@Base+0xaf0>
    b4f8:	d4207d00 	brk	#0x3e8
    b4fc:	eb1402d8 	subs	x24, x22, x20
    b500:	540001a3 	b.cc	b534 <error@@Base+0xe2c>  // b.lo, b.ul, b.last
    b504:	d2800053 	mov	x19, #0x2                   	// #2
    b508:	f100071f 	cmp	x24, #0x1
    b50c:	54000068 	b.hi	b518 <error@@Base+0xe10>  // b.pmore
    b510:	b4000198 	cbz	x24, b540 <error@@Base+0xe38>
    b514:	d2800033 	mov	x19, #0x1                   	// #1
    b518:	d0000322 	adrp	x2, 71000 <error@@Base+0x668f8>
    b51c:	2a1303e1 	mov	w1, w19
    b520:	aa1403e0 	mov	x0, x20
    b524:	f9473c42 	ldr	x2, [x2, #3704]
    b528:	d63f0040 	blr	x2
    b52c:	aa0003f8 	mov	x24, x0
    b530:	14000005 	b	b544 <error@@Base+0xe3c>
    b534:	d2800013 	mov	x19, #0x0                   	// #0
    b538:	d2800018 	mov	x24, #0x0                   	// #0
    b53c:	14000002 	b	b544 <error@@Base+0xe3c>
    b540:	d2800013 	mov	x19, #0x0                   	// #0
    b544:	b0000344 	adrp	x4, 74000 <error@@Base+0x698f8>
    b548:	91078084 	add	x4, x4, #0x1e0
    b54c:	8b130293 	add	x19, x20, x19
    b550:	528000a2 	mov	w2, #0x5                   	// #5
    b554:	f00001c1 	adrp	x1, 46000 <error@@Base+0x3b8f8>
    b558:	d2800000 	mov	x0, #0x0                   	// #0
    b55c:	f9404883 	ldr	x3, [x4, #144]
    b560:	912e0021 	add	x1, x1, #0xb80
    b564:	3902c09f 	strb	wzr, [x4, #176]
    b568:	8b030314 	add	x20, x24, x3
    b56c:	f9004894 	str	x20, [x4, #144]
    b570:	97fff528 	bl	8a10 <dcgettext@plt>
    b574:	aa0003e1 	mov	x1, x0
    b578:	aa1403e3 	mov	x3, x20
    b57c:	aa1803e2 	mov	x2, x24
    b580:	52800020 	mov	w0, #0x1                   	// #1
    b584:	97fff3fb 	bl	8570 <__printf_chk@plt>
    b588:	1400005d 	b	b6fc <error@@Base+0xff4>
    b58c:	528000a2 	mov	w2, #0x5                   	// #5
    b590:	f00001c1 	adrp	x1, 46000 <error@@Base+0x3b8f8>
    b594:	d2800000 	mov	x0, #0x0                   	// #0
    b598:	912ec021 	add	x1, x1, #0xbb0
    b59c:	97fff51d 	bl	8a10 <dcgettext@plt>
    b5a0:	aa0003e1 	mov	x1, x0
    b5a4:	52800020 	mov	w0, #0x1                   	// #1
    b5a8:	97fff3f2 	bl	8570 <__printf_chk@plt>
    b5ac:	17ffff13 	b	b1f8 <error@@Base+0xaf0>
    b5b0:	528000a2 	mov	w2, #0x5                   	// #5
    b5b4:	f00001c1 	adrp	x1, 46000 <error@@Base+0x3b8f8>
    b5b8:	d2800000 	mov	x0, #0x0                   	// #0
    b5bc:	912f4021 	add	x1, x1, #0xbd0
    b5c0:	97fff514 	bl	8a10 <dcgettext@plt>
    b5c4:	aa0003e1 	mov	x1, x0
    b5c8:	52800020 	mov	w0, #0x1                   	// #1
    b5cc:	97fff3e9 	bl	8570 <__printf_chk@plt>
    b5d0:	17ffff0a 	b	b1f8 <error@@Base+0xaf0>
    b5d4:	9104d3e4 	add	x4, sp, #0x134
    b5d8:	9104c3e3 	add	x3, sp, #0x130
    b5dc:	aa1603e1 	mov	x1, x22
    b5e0:	52800002 	mov	w2, #0x0                   	// #0
    b5e4:	aa1403e0 	mov	x0, x20
    b5e8:	94009f1f 	bl	33264 <error@@Base+0x28b5c>
    b5ec:	aa0003f8 	mov	x24, x0
    b5f0:	b94137e0 	ldr	w0, [sp, #308]
    b5f4:	b94133f3 	ldr	w19, [sp, #304]
    b5f8:	8b130293 	add	x19, x20, x19
    b5fc:	94009fa2 	bl	33484 <error@@Base+0x28d7c>
    b600:	528000a2 	mov	w2, #0x5                   	// #5
    b604:	f00001c1 	adrp	x1, 46000 <error@@Base+0x3b8f8>
    b608:	d2800000 	mov	x0, #0x0                   	// #0
    b60c:	912fc021 	add	x1, x1, #0xbf0
    b610:	97fff500 	bl	8a10 <dcgettext@plt>
    b614:	aa0003e1 	mov	x1, x0
    b618:	aa1803e2 	mov	x2, x24
    b61c:	52800020 	mov	w0, #0x1                   	// #1
    b620:	97fff3d4 	bl	8570 <__printf_chk@plt>
    b624:	14000036 	b	b6fc <error@@Base+0xff4>
    b628:	528000a2 	mov	w2, #0x5                   	// #5
    b62c:	f00001c1 	adrp	x1, 46000 <error@@Base+0x3b8f8>
    b630:	d2800000 	mov	x0, #0x0                   	// #0
    b634:	91302021 	add	x1, x1, #0xc08
    b638:	97fff4f6 	bl	8a10 <dcgettext@plt>
    b63c:	aa0003e1 	mov	x1, x0
    b640:	2a1303e2 	mov	w2, w19
    b644:	52800020 	mov	w0, #0x1                   	// #1
    b648:	97fff3ca 	bl	8570 <__printf_chk@plt>
    b64c:	b40004d5 	cbz	x21, b6e4 <error@@Base+0xfdc>
    b650:	8b3302a0 	add	x0, x21, w19, uxtb
    b654:	f00001d8 	adrp	x24, 46000 <error@@Base+0x3b8f8>
    b658:	f0000181 	adrp	x1, 3e000 <error@@Base+0x338f8>
    b65c:	9130c31c 	add	x28, x24, #0xc30
    b660:	9135c021 	add	x1, x1, #0xd70
    b664:	f9006be1 	str	x1, [sp, #208]
    b668:	385ff013 	ldurb	w19, [x0, #-1]
    b66c:	9104d3e1 	add	x1, sp, #0x134
    b670:	f90057e1 	str	x1, [sp, #168]
    b674:	34000393 	cbz	w19, b6e4 <error@@Base+0xfdc>
    b678:	f94057e4 	ldr	x4, [sp, #168]
    b67c:	9104c3e3 	add	x3, sp, #0x130
    b680:	aa1603e1 	mov	x1, x22
    b684:	aa1403e0 	mov	x0, x20
    b688:	52800002 	mov	w2, #0x0                   	// #0
    b68c:	94009ef6 	bl	33264 <error@@Base+0x28b5c>
    b690:	aa0003e2 	mov	x2, x0
    b694:	b94133e1 	ldr	w1, [sp, #304]
    b698:	b94137e0 	ldr	w0, [sp, #308]
    b69c:	8b010294 	add	x20, x20, x1
    b6a0:	f90077e2 	str	x2, [sp, #232]
    b6a4:	94009f78 	bl	33484 <error@@Base+0x28d7c>
    b6a8:	f94077e2 	ldr	x2, [sp, #232]
    b6ac:	7100067f 	cmp	w19, #0x1
    b6b0:	540000e1 	b.ne	b6cc <error@@Base+0xfc4>  // b.any
    b6b4:	9130c301 	add	x1, x24, #0xc30
    b6b8:	2a1303e0 	mov	w0, w19
    b6bc:	f00001a3 	adrp	x3, 42000 <error@@Base+0x378f8>
    b6c0:	91270063 	add	x3, x3, #0x9c0
    b6c4:	97fff3ab 	bl	8570 <__printf_chk@plt>
    b6c8:	14000007 	b	b6e4 <error@@Base+0xfdc>
    b6cc:	f9406be3 	ldr	x3, [sp, #208]
    b6d0:	51000673 	sub	w19, w19, #0x1
    b6d4:	aa1c03e1 	mov	x1, x28
    b6d8:	52800020 	mov	w0, #0x1                   	// #1
    b6dc:	97fff3a5 	bl	8570 <__printf_chk@plt>
    b6e0:	17ffffe5 	b	b674 <error@@Base+0xf6c>
    b6e4:	90000321 	adrp	x1, 6f000 <error@@Base+0x648f8>
    b6e8:	f947dc21 	ldr	x1, [x1, #4024]
    b6ec:	aa1403f3 	mov	x19, x20
    b6f0:	52800140 	mov	w0, #0xa                   	// #10
    b6f4:	f9400021 	ldr	x1, [x1]
    b6f8:	97fff322 	bl	8380 <putc@plt>
    b6fc:	eb13037f 	cmp	x27, x19
    b700:	54ffc688 	b.hi	afd0 <error@@Base+0x8c8>  // b.pmore
    b704:	90000321 	adrp	x1, 6f000 <error@@Base+0x648f8>
    b708:	f947dc21 	ldr	x1, [x1, #4024]
    b70c:	52800140 	mov	w0, #0xa                   	// #10
    b710:	f9400021 	ldr	x1, [x1]
    b714:	97fff31b 	bl	8380 <putc@plt>
    b718:	17fffc68 	b	a8b8 <error@@Base+0x1b0>
    b71c:	52800014 	mov	w20, #0x0                   	// #0
    b720:	14000002 	b	b728 <error@@Base+0x1020>
    b724:	52800034 	mov	w20, #0x1                   	// #1
    b728:	b94e3b20 	ldr	w0, [x25, #3640]
    b72c:	3608c4c0 	tbz	w0, #1, cfc4 <error@@Base+0x28bc>
    b730:	b0000340 	adrp	x0, 74000 <error@@Base+0x698f8>
    b734:	91078000 	add	x0, x0, #0x1e0
    b738:	f9008fe0 	str	x0, [sp, #280]
    b73c:	9102e000 	add	x0, x0, #0xb8
    b740:	f90093e0 	str	x0, [sp, #288]
    b744:	52800001 	mov	w1, #0x0                   	// #0
    b748:	f9405be0 	ldr	x0, [sp, #176]
    b74c:	f9405ff8 	ldr	x24, [sp, #184]
    b750:	94009ef5 	bl	33324 <error@@Base+0x28c1c>
    b754:	b900dbf4 	str	w20, [sp, #216]
    b758:	90000320 	adrp	x0, 6f000 <error@@Base+0x648f8>
    b75c:	f947dc00 	ldr	x0, [x0, #4024]
    b760:	f9007be0 	str	x0, [sp, #240]
    b764:	eb1802df 	cmp	x22, x24
    b768:	5400c2c9 	b.ls	cfc0 <error@@Base+0x28b8>  // b.plast
    b76c:	f9405be0 	ldr	x0, [sp, #176]
    b770:	f00001c1 	adrp	x1, 46000 <error@@Base+0x3b8f8>
    b774:	91160021 	add	x1, x1, #0x580
    b778:	f9400c13 	ldr	x19, [x0, #24]
    b77c:	910503e0 	add	x0, sp, #0x140
    b780:	f90077e0 	str	x0, [sp, #232]
    b784:	aa1303e0 	mov	x0, x19
    b788:	94008f32 	bl	2f450 <error@@Base+0x24d48>
    b78c:	72001c1f 	tst	w0, #0xff
    b790:	54000400 	b.eq	b810 <error@@Base+0x1108>  // b.none
    b794:	d00001a1 	adrp	x1, 41000 <error@@Base+0x368f8>
    b798:	aa1303e0 	mov	x0, x19
    b79c:	91048021 	add	x1, x1, #0x120
    b7a0:	97fff40c 	bl	87d0 <strcmp@plt>
    b7a4:	34000360 	cbz	w0, b810 <error@@Base+0x1108>
    b7a8:	b0000340 	adrp	x0, 74000 <error@@Base+0x698f8>
    b7ac:	91078000 	add	x0, x0, #0x1e0
    b7b0:	9102e000 	add	x0, x0, #0xb8
    b7b4:	f9009ff6 	str	x22, [sp, #312]
    b7b8:	f94077e1 	ldr	x1, [sp, #232]
    b7bc:	ad400400 	ldp	q0, q1, [x0]
    b7c0:	f9401000 	ldr	x0, [x0, #32]
    b7c4:	f9001020 	str	x0, [x1, #32]
    b7c8:	ad000420 	stp	q0, q1, [x1]
    b7cc:	72001c1f 	tst	w0, #0xff
    b7d0:	54000101 	b.ne	b7f0 <error@@Base+0x10e8>  // b.any
    b7d4:	f00001c1 	adrp	x1, 46000 <error@@Base+0x3b8f8>
    b7d8:	91164021 	add	x1, x1, #0x590
    b7dc:	528000a2 	mov	w2, #0x5                   	// #5
    b7e0:	d2800000 	mov	x0, #0x0                   	// #0
    b7e4:	97fff48b 	bl	8a10 <dcgettext@plt>
    b7e8:	97fff580 	bl	8de8 <warn@@Base>
    b7ec:	140005f3 	b	cfb8 <error@@Base+0x28b0>
    b7f0:	39456be0 	ldrb	w0, [sp, #346]
    b7f4:	52800019 	mov	w25, #0x0                   	// #0
    b7f8:	d280001c 	mov	x28, #0x0                   	// #0
    b7fc:	52800017 	mov	w23, #0x0                   	// #0
    b800:	f90057ff 	str	xzr, [sp, #168]
    b804:	f9006bff 	str	xzr, [sp, #208]
    b808:	9400070d 	bl	d43c <error@@Base+0x2d34>
    b80c:	140002ef 	b	c3c8 <error@@Base+0x1cc0>
    b810:	f9405be0 	ldr	x0, [sp, #176]
    b814:	aa1803e1 	mov	x1, x24
    b818:	f94077e3 	ldr	x3, [sp, #232]
    b81c:	9104e3e4 	add	x4, sp, #0x138
    b820:	aa1603e2 	mov	x2, x22
    b824:	940005f9 	bl	d008 <error@@Base+0x2900>
    b828:	f9006be0 	str	x0, [sp, #208]
    b82c:	b400bc60 	cbz	x0, cfb8 <error@@Base+0x28b0>
    b830:	394583e0 	ldrb	w0, [sp, #352]
    b834:	35000120 	cbnz	w0, b858 <error@@Base+0x1150>
    b838:	f00001c1 	adrp	x1, 46000 <error@@Base+0x3b8f8>
    b83c:	911f2021 	add	x1, x1, #0x7c8
    b840:	528000a2 	mov	w2, #0x5                   	// #5
    b844:	d2800000 	mov	x0, #0x0                   	// #0
    b848:	97fff472 	bl	8a10 <dcgettext@plt>
    b84c:	97fff567 	bl	8de8 <warn@@Base>
    b850:	52800020 	mov	w0, #0x1                   	// #1
    b854:	390583e0 	strb	w0, [sp, #352]
    b858:	39456be0 	ldrb	w0, [sp, #346]
    b85c:	940006f8 	bl	d43c <error@@Base+0x2d34>
    b860:	394587f4 	ldrb	w20, [sp, #353]
    b864:	f9406be0 	ldr	x0, [sp, #208]
    b868:	d1000698 	sub	x24, x20, #0x1
    b86c:	394587f3 	ldrb	w19, [sp, #353]
    b870:	8b180018 	add	x24, x0, x24
    b874:	eb1802df 	cmp	x22, x24
    b878:	54000128 	b.hi	b89c <error@@Base+0x1194>  // b.pmore
    b87c:	528000a2 	mov	w2, #0x5                   	// #5
    b880:	f00001c1 	adrp	x1, 46000 <error@@Base+0x3b8f8>
    b884:	d2800000 	mov	x0, #0x0                   	// #0
    b888:	9130e021 	add	x1, x1, #0xc38
    b88c:	97fff461 	bl	8a10 <dcgettext@plt>
    b890:	2a1303e1 	mov	w1, w19
    b894:	97fff555 	bl	8de8 <warn@@Base>
    b898:	140005c8 	b	cfb8 <error@@Base+0x28b0>
    b89c:	794293e0 	ldrh	w0, [sp, #328]
    b8a0:	b900e3e0 	str	w0, [sp, #224]
    b8a4:	7100101f 	cmp	w0, #0x4
    b8a8:	540035e9 	b.ls	bf64 <error@@Base+0x185c>  // b.plast
    b8ac:	f9408be1 	ldr	x1, [sp, #272]
    b8b0:	d000033a 	adrp	x26, 71000 <error@@Base+0x668f8>
    b8b4:	52800160 	mov	w0, #0xb                   	// #11
    b8b8:	52800015 	mov	w21, #0x0                   	// #0
    b8bc:	940099a5 	bl	31f50 <error@@Base+0x27848>
    b8c0:	f9406be0 	ldr	x0, [sp, #208]
    b8c4:	52800021 	mov	w1, #0x1                   	// #1
    b8c8:	f9473f42 	ldr	x2, [x26, #3704]
    b8cc:	8b140014 	add	x20, x0, x20
    b8d0:	aa1403f3 	mov	x19, x20
    b8d4:	aa1803e0 	mov	x0, x24
    b8d8:	d63f0040 	blr	x2
    b8dc:	b900abe0 	str	w0, [sp, #168]
    b8e0:	9104d3e0 	add	x0, sp, #0x134
    b8e4:	f90063e0 	str	x0, [sp, #192]
    b8e8:	b940abe0 	ldr	w0, [sp, #168]
    b8ec:	6b15001f 	cmp	w0, w21
    b8f0:	54000260 	b.eq	b93c <error@@Base+0x1234>  // b.none
    b8f4:	f94063e3 	ldr	x3, [sp, #192]
    b8f8:	aa1603e1 	mov	x1, x22
    b8fc:	aa1303e0 	mov	x0, x19
    b900:	d2800004 	mov	x4, #0x0                   	// #0
    b904:	52800002 	mov	w2, #0x0                   	// #0
    b908:	110006b5 	add	w21, w21, #0x1
    b90c:	94009e56 	bl	33264 <error@@Base+0x28b5c>
    b910:	f94063e3 	ldr	x3, [sp, #192]
    b914:	aa1603e1 	mov	x1, x22
    b918:	b94137e0 	ldr	w0, [sp, #308]
    b91c:	d2800004 	mov	x4, #0x0                   	// #0
    b920:	52800002 	mov	w2, #0x0                   	// #0
    b924:	8b000273 	add	x19, x19, x0
    b928:	aa1303e0 	mov	x0, x19
    b92c:	94009e4e 	bl	33264 <error@@Base+0x28b5c>
    b930:	b94137e0 	ldr	w0, [sp, #308]
    b934:	8b000273 	add	x19, x19, x0
    b938:	17ffffec 	b	b8e8 <error@@Base+0x11e0>
    b93c:	f94063e4 	ldr	x4, [sp, #192]
    b940:	9104c3e0 	add	x0, sp, #0x130
    b944:	aa0003e3 	mov	x3, x0
    b948:	aa1603e1 	mov	x1, x22
    b94c:	52800002 	mov	w2, #0x0                   	// #0
    b950:	f90067e0 	str	x0, [sp, #200]
    b954:	aa1303e0 	mov	x0, x19
    b958:	94009e43 	bl	33264 <error@@Base+0x28b5c>
    b95c:	b94133e1 	ldr	w1, [sp, #304]
    b960:	aa0003f7 	mov	x23, x0
    b964:	2a0003f9 	mov	w25, w0
    b968:	92407c15 	and	x21, x0, #0xffffffff
    b96c:	8b010273 	add	x19, x19, x1
    b970:	b2407fe0 	mov	x0, #0xffffffff            	// #4294967295
    b974:	eb0002ff 	cmp	x23, x0
    b978:	54000089 	b.ls	b988 <error@@Base+0x1280>  // b.plast
    b97c:	b94137e0 	ldr	w0, [sp, #308]
    b980:	321f0000 	orr	w0, w0, #0x2
    b984:	b90137e0 	str	w0, [sp, #308]
    b988:	b94137e0 	ldr	w0, [sp, #308]
    b98c:	94009ebe 	bl	33484 <error@@Base+0x28d7c>
    b990:	eb1302df 	cmp	x22, x19
    b994:	54000128 	b.hi	b9b8 <error@@Base+0x12b0>  // b.pmore
    b998:	f00001c1 	adrp	x1, 46000 <error@@Base+0x3b8f8>
    b99c:	9131c021 	add	x1, x1, #0xc70
    b9a0:	528000a2 	mov	w2, #0x5                   	// #5
    b9a4:	b940dbf4 	ldr	w20, [sp, #216]
    b9a8:	d2800000 	mov	x0, #0x0                   	// #0
    b9ac:	97fff419 	bl	8a10 <dcgettext@plt>
    b9b0:	97fff50e 	bl	8de8 <warn@@Base>
    b9b4:	14000584 	b	cfc4 <error@@Base+0x28bc>
    b9b8:	340000d7 	cbz	w23, b9d0 <error@@Base+0x12c8>
    b9bc:	aa1503e0 	mov	x0, x21
    b9c0:	d2800101 	mov	x1, #0x8                   	// #8
    b9c4:	97fff457 	bl	8b20 <xcalloc@plt>
    b9c8:	aa0003fc 	mov	x28, x0
    b9cc:	14000002 	b	b9d4 <error@@Base+0x12cc>
    b9d0:	d280001c 	mov	x28, #0x0                   	// #0
    b9d4:	aa1c03f8 	mov	x24, x28
    b9d8:	d280001b 	mov	x27, #0x0                   	// #0
    b9dc:	6b1b033f 	cmp	w25, w27
    b9e0:	54000de9 	b.ls	bb9c <error@@Base+0x1494>  // b.plast
    b9e4:	aa1403f5 	mov	x21, x20
    b9e8:	52800017 	mov	w23, #0x0                   	// #0
    b9ec:	b940abe0 	ldr	w0, [sp, #168]
    b9f0:	6b17001f 	cmp	w0, w23
    b9f4:	54000be0 	b.eq	bb70 <error@@Base+0x1468>  // b.none
    b9f8:	a94c0fe4 	ldp	x4, x3, [sp, #192]
    b9fc:	52800002 	mov	w2, #0x0                   	// #0
    ba00:	aa1603e1 	mov	x1, x22
    ba04:	aa1503e0 	mov	x0, x21
    ba08:	94009e17 	bl	33264 <error@@Base+0x28b5c>
    ba0c:	aa0003e6 	mov	x6, x0
    ba10:	b94133e1 	ldr	w1, [sp, #304]
    ba14:	b94137e0 	ldr	w0, [sp, #308]
    ba18:	8b0102b5 	add	x21, x21, x1
    ba1c:	f9007fe6 	str	x6, [sp, #248]
    ba20:	94009e99 	bl	33484 <error@@Base+0x28d7c>
    ba24:	a94c0fe4 	ldp	x4, x3, [sp, #192]
    ba28:	aa1503e0 	mov	x0, x21
    ba2c:	aa1603e1 	mov	x1, x22
    ba30:	52800002 	mov	w2, #0x0                   	// #0
    ba34:	94009e0c 	bl	33264 <error@@Base+0x28b5c>
    ba38:	aa0003fc 	mov	x28, x0
    ba3c:	b94133e1 	ldr	w1, [sp, #304]
    ba40:	b94137e0 	ldr	w0, [sp, #308]
    ba44:	8b0102b5 	add	x21, x21, x1
    ba48:	94009e8f 	bl	33484 <error@@Base+0x28d7c>
    ba4c:	f9407fe6 	ldr	x6, [sp, #248]
    ba50:	eb1302df 	cmp	x22, x19
    ba54:	54000128 	b.hi	ba78 <error@@Base+0x1370>  // b.pmore
    ba58:	f00001c1 	adrp	x1, 46000 <error@@Base+0x3b8f8>
    ba5c:	9131c021 	add	x1, x1, #0xc70
    ba60:	528000a2 	mov	w2, #0x5                   	// #5
    ba64:	aa1803fc 	mov	x28, x24
    ba68:	d2800000 	mov	x0, #0x0                   	// #0
    ba6c:	97fff3e9 	bl	8a10 <dcgettext@plt>
    ba70:	97fff4de 	bl	8de8 <warn@@Base>
    ba74:	14000043 	b	bb80 <error@@Base+0x1478>
    ba78:	b94167e5 	ldr	w5, [sp, #356]
    ba7c:	2a0503e3 	mov	w3, w5
    ba80:	f10004df 	cmp	x6, #0x1
    ba84:	54000421 	b.ne	bb08 <error@@Base+0x1400>  // b.any
    ba88:	f100239f 	cmp	x28, #0x8
    ba8c:	54000080 	b.eq	ba9c <error@@Base+0x1394>  // b.none
    ba90:	f1007f9f 	cmp	x28, #0x1f
    ba94:	54000080 	b.eq	baa4 <error@@Base+0x139c>  // b.none
    ba98:	1400001c 	b	bb08 <error@@Base+0x1400>
    ba9c:	f83b7b13 	str	x19, [x24, x27, lsl #3]
    baa0:	1400001a 	b	bb08 <error@@Base+0x1400>
    baa4:	710020bf 	cmp	w5, #0x8
    baa8:	540001c9 	b.ls	bae0 <error@@Base+0x13d8>  // b.plast
    baac:	528000a4 	mov	w4, #0x5                   	// #5
    bab0:	f00001a2 	adrp	x2, 42000 <error@@Base+0x378f8>
    bab4:	f00001a1 	adrp	x1, 42000 <error@@Base+0x378f8>
    bab8:	911c8042 	add	x2, x2, #0x720
    babc:	911dc021 	add	x1, x1, #0x770
    bac0:	d2800000 	mov	x0, #0x0                   	// #0
    bac4:	b900fbe5 	str	w5, [sp, #248]
    bac8:	97fff386 	bl	88e0 <dcngettext@plt>
    bacc:	b940fbe5 	ldr	w5, [sp, #248]
    bad0:	52800102 	mov	w2, #0x8                   	// #8
    bad4:	2a0503e1 	mov	w1, w5
    bad8:	97fffb0c 	bl	a708 <error@@Base>
    badc:	d2800103 	mov	x3, #0x8                   	// #8
    bae0:	cb1302c0 	sub	x0, x22, x19
    bae4:	eb03001f 	cmp	x0, x3
    bae8:	9a839000 	csel	x0, x0, x3, ls	// ls = plast
    baec:	b40000a0 	cbz	x0, bb00 <error@@Base+0x13f8>
    baf0:	f9473f42 	ldr	x2, [x26, #3704]
    baf4:	2a0003e1 	mov	w1, w0
    baf8:	aa1303e0 	mov	x0, x19
    bafc:	d63f0040 	blr	x2
    bb00:	9400b458 	bl	38c60 <error@@Base+0x2e558>
    bb04:	f83b7b00 	str	x0, [x24, x27, lsl #3]
    bb08:	b94167e0 	ldr	w0, [sp, #356]
    bb0c:	12800008 	mov	w8, #0xffffffff            	// #-1
    bb10:	f90003e0 	str	x0, [sp]
    bb14:	aa1303e4 	mov	x4, x19
    bb18:	b940e3e0 	ldr	w0, [sp, #224]
    bb1c:	aa1c03e1 	mov	x1, x28
    bb20:	b9000be0 	str	w0, [sp, #8]
    bb24:	aa1603e5 	mov	x5, x22
    bb28:	52800020 	mov	w0, #0x1                   	// #1
    bb2c:	b9001be0 	str	w0, [sp, #24]
    bb30:	f9405be0 	ldr	x0, [sp, #176]
    bb34:	f9000bff 	str	xzr, [sp, #16]
    bb38:	f9405fe3 	ldr	x3, [sp, #184]
    bb3c:	f90013e0 	str	x0, [sp, #32]
    bb40:	52800120 	mov	w0, #0x9                   	// #9
    bb44:	f90017ff 	str	xzr, [sp, #40]
    bb48:	3900c3e0 	strb	w0, [sp, #48]
    bb4c:	d2800007 	mov	x7, #0x0                   	// #0
    bb50:	b9003be8 	str	w8, [sp, #56]
    bb54:	d2800006 	mov	x6, #0x0                   	// #0
    bb58:	d2800002 	mov	x2, #0x0                   	// #0
    bb5c:	d2800000 	mov	x0, #0x0                   	// #0
    bb60:	110006f7 	add	w23, w23, #0x1
    bb64:	9400aa23 	bl	363f0 <error@@Base+0x2bce8>
    bb68:	aa0003f3 	mov	x19, x0
    bb6c:	17ffffa0 	b	b9ec <error@@Base+0x12e4>
    bb70:	9100077b 	add	x27, x27, #0x1
    bb74:	eb1302df 	cmp	x22, x19
    bb78:	54fff328 	b.hi	b9dc <error@@Base+0x12d4>  // b.pmore
    bb7c:	aa1803fc 	mov	x28, x24
    bb80:	f00001c1 	adrp	x1, 46000 <error@@Base+0x3b8f8>
    bb84:	9131c021 	add	x1, x1, #0xc70
    bb88:	528000a2 	mov	w2, #0x5                   	// #5
    bb8c:	d2800000 	mov	x0, #0x0                   	// #0
    bb90:	97fff3a0 	bl	8a10 <dcgettext@plt>
    bb94:	97fff495 	bl	8de8 <warn@@Base>
    bb98:	14000002 	b	bba0 <error@@Base+0x1498>
    bb9c:	aa1803fc 	mov	x28, x24
    bba0:	eb1302df 	cmp	x22, x19
    bba4:	54000109 	b.ls	bbc4 <error@@Base+0x14bc>  // b.plast
    bba8:	f9473f42 	ldr	x2, [x26, #3704]
    bbac:	aa1303e0 	mov	x0, x19
    bbb0:	52800021 	mov	w1, #0x1                   	// #1
    bbb4:	d63f0040 	blr	x2
    bbb8:	b900fbe0 	str	w0, [sp, #248]
    bbbc:	d2800020 	mov	x0, #0x1                   	// #1
    bbc0:	14000003 	b	bbcc <error@@Base+0x14c4>
    bbc4:	d2800000 	mov	x0, #0x0                   	// #0
    bbc8:	b900fbff 	str	wzr, [sp, #248]
    bbcc:	8b000260 	add	x0, x19, x0
    bbd0:	52800013 	mov	w19, #0x0                   	// #0
    bbd4:	aa0003f8 	mov	x24, x0
    bbd8:	f90087e0 	str	x0, [sp, #264]
    bbdc:	b940fbe0 	ldr	w0, [sp, #248]
    bbe0:	6b13001f 	cmp	w0, w19
    bbe4:	54000260 	b.eq	bc30 <error@@Base+0x1528>  // b.none
    bbe8:	f94063e3 	ldr	x3, [sp, #192]
    bbec:	aa1603e1 	mov	x1, x22
    bbf0:	aa1803e0 	mov	x0, x24
    bbf4:	d2800004 	mov	x4, #0x0                   	// #0
    bbf8:	52800002 	mov	w2, #0x0                   	// #0
    bbfc:	11000673 	add	w19, w19, #0x1
    bc00:	94009d99 	bl	33264 <error@@Base+0x28b5c>
    bc04:	f94063e3 	ldr	x3, [sp, #192]
    bc08:	aa1603e1 	mov	x1, x22
    bc0c:	b94137e0 	ldr	w0, [sp, #308]
    bc10:	d2800004 	mov	x4, #0x0                   	// #0
    bc14:	52800002 	mov	w2, #0x0                   	// #0
    bc18:	8b000318 	add	x24, x24, x0
    bc1c:	aa1803e0 	mov	x0, x24
    bc20:	94009d91 	bl	33264 <error@@Base+0x28b5c>
    bc24:	b94137e0 	ldr	w0, [sp, #308]
    bc28:	8b000318 	add	x24, x24, x0
    bc2c:	17ffffec 	b	bbdc <error@@Base+0x14d4>
    bc30:	a94c0fe4 	ldp	x4, x3, [sp, #192]
    bc34:	aa1603e1 	mov	x1, x22
    bc38:	aa1803e0 	mov	x0, x24
    bc3c:	52800002 	mov	w2, #0x0                   	// #0
    bc40:	94009d89 	bl	33264 <error@@Base+0x28b5c>
    bc44:	aa0003f4 	mov	x20, x0
    bc48:	b94133e1 	ldr	w1, [sp, #304]
    bc4c:	b2407fe0 	mov	x0, #0xffffffff            	// #4294967295
    bc50:	2a1403f7 	mov	w23, w20
    bc54:	8a000293 	and	x19, x20, x0
    bc58:	8b010318 	add	x24, x24, x1
    bc5c:	eb00029f 	cmp	x20, x0
    bc60:	54000089 	b.ls	bc70 <error@@Base+0x1568>  // b.plast
    bc64:	b94137e0 	ldr	w0, [sp, #308]
    bc68:	321f0000 	orr	w0, w0, #0x2
    bc6c:	b90137e0 	str	w0, [sp, #308]
    bc70:	b94137e0 	ldr	w0, [sp, #308]
    bc74:	94009e04 	bl	33484 <error@@Base+0x28d7c>
    bc78:	7100029f 	cmp	w20, #0x0
    bc7c:	fa5812c2 	ccmp	x22, x24, #0x2, ne	// ne = any
    bc80:	54000128 	b.hi	bca4 <error@@Base+0x159c>  // b.pmore
    bc84:	f00001c1 	adrp	x1, 46000 <error@@Base+0x3b8f8>
    bc88:	91324021 	add	x1, x1, #0xc90
    bc8c:	528000a2 	mov	w2, #0x5                   	// #5
    bc90:	b940dbf4 	ldr	w20, [sp, #216]
    bc94:	d2800000 	mov	x0, #0x0                   	// #0
    bc98:	97fff35e 	bl	8a10 <dcgettext@plt>
    bc9c:	97fff453 	bl	8de8 <warn@@Base>
    bca0:	140004c9 	b	cfc4 <error@@Base+0x28bc>
    bca4:	340000d4 	cbz	w20, bcbc <error@@Base+0x15b4>
    bca8:	aa1303e0 	mov	x0, x19
    bcac:	d2800301 	mov	x1, #0x18                  	// #24
    bcb0:	97fff39c 	bl	8b20 <xcalloc@plt>
    bcb4:	f90057e0 	str	x0, [sp, #168]
    bcb8:	14000002 	b	bcc0 <error@@Base+0x15b8>
    bcbc:	f90057ff 	str	xzr, [sp, #168]
    bcc0:	f94057fb 	ldr	x27, [sp, #168]
    bcc4:	d2800303 	mov	x3, #0x18                  	// #24
    bcc8:	aa1c03e4 	mov	x4, x28
    bccc:	b90103f7 	str	w23, [sp, #256]
    bcd0:	b90107f9 	str	w25, [sp, #260]
    bcd4:	aa1603f9 	mov	x25, x22
    bcd8:	9b036e63 	madd	x3, x19, x3, x27
    bcdc:	aa0303f7 	mov	x23, x3
    bce0:	eb1b02ff 	cmp	x23, x27
    bce4:	54001360 	b.eq	bf50 <error@@Base+0x1848>  // b.none
    bce8:	f94087f3 	ldr	x19, [sp, #264]
    bcec:	aa0403fc 	mov	x28, x4
    bcf0:	52800015 	mov	w21, #0x0                   	// #0
    bcf4:	52800036 	mov	w22, #0x1                   	// #1
    bcf8:	b940fbe0 	ldr	w0, [sp, #248]
    bcfc:	6b15001f 	cmp	w0, w21
    bd00:	540010c0 	b.eq	bf18 <error@@Base+0x1810>  // b.none
    bd04:	a94c0fe4 	ldp	x4, x3, [sp, #192]
    bd08:	52800002 	mov	w2, #0x0                   	// #0
    bd0c:	aa1903e1 	mov	x1, x25
    bd10:	aa1303e0 	mov	x0, x19
    bd14:	94009d54 	bl	33264 <error@@Base+0x28b5c>
    bd18:	aa0003e5 	mov	x5, x0
    bd1c:	b94133e1 	ldr	w1, [sp, #304]
    bd20:	b94137e0 	ldr	w0, [sp, #308]
    bd24:	8b010273 	add	x19, x19, x1
    bd28:	f90097e5 	str	x5, [sp, #296]
    bd2c:	94009dd6 	bl	33484 <error@@Base+0x28d7c>
    bd30:	a94c0fe4 	ldp	x4, x3, [sp, #192]
    bd34:	aa1303e0 	mov	x0, x19
    bd38:	aa1903e1 	mov	x1, x25
    bd3c:	52800002 	mov	w2, #0x0                   	// #0
    bd40:	94009d49 	bl	33264 <error@@Base+0x28b5c>
    bd44:	aa0003f4 	mov	x20, x0
    bd48:	b94133e1 	ldr	w1, [sp, #304]
    bd4c:	b94137e0 	ldr	w0, [sp, #308]
    bd50:	8b010273 	add	x19, x19, x1
    bd54:	94009dcc 	bl	33484 <error@@Base+0x28d7c>
    bd58:	f94097e5 	ldr	x5, [sp, #296]
    bd5c:	eb18033f 	cmp	x25, x24
    bd60:	54000168 	b.hi	bd8c <error@@Base+0x1684>  // b.pmore
    bd64:	f00001c1 	adrp	x1, 46000 <error@@Base+0x3b8f8>
    bd68:	91324021 	add	x1, x1, #0xc90
    bd6c:	528000a2 	mov	w2, #0x5                   	// #5
    bd70:	aa1903f6 	mov	x22, x25
    bd74:	b94103f7 	ldr	w23, [sp, #256]
    bd78:	d2800000 	mov	x0, #0x0                   	// #0
    bd7c:	b94107f9 	ldr	w25, [sp, #260]
    bd80:	97fff324 	bl	8a10 <dcgettext@plt>
    bd84:	97fff419 	bl	8de8 <warn@@Base>
    bd88:	1400006b 	b	bf34 <error@@Base+0x182c>
    bd8c:	f10004bf 	cmp	x5, #0x1
    bd90:	54000080 	b.eq	bda0 <error@@Base+0x1698>  // b.none
    bd94:	f10008bf 	cmp	x5, #0x2
    bd98:	540004a0 	b.eq	be2c <error@@Base+0x1724>  // b.none
    bd9c:	14000046 	b	beb4 <error@@Base+0x17ac>
    bda0:	b94167e5 	ldr	w5, [sp, #356]
    bda4:	2a0503e3 	mov	w3, w5
    bda8:	f100229f 	cmp	x20, #0x8
    bdac:	54000080 	b.eq	bdbc <error@@Base+0x16b4>  // b.none
    bdb0:	f1007e9f 	cmp	x20, #0x1f
    bdb4:	54000080 	b.eq	bdc4 <error@@Base+0x16bc>  // b.none
    bdb8:	1400003f 	b	beb4 <error@@Base+0x17ac>
    bdbc:	f9000378 	str	x24, [x27]
    bdc0:	1400003d 	b	beb4 <error@@Base+0x17ac>
    bdc4:	710020bf 	cmp	w5, #0x8
    bdc8:	540001c9 	b.ls	be00 <error@@Base+0x16f8>  // b.plast
    bdcc:	528000a4 	mov	w4, #0x5                   	// #5
    bdd0:	f00001a2 	adrp	x2, 42000 <error@@Base+0x378f8>
    bdd4:	f00001a1 	adrp	x1, 42000 <error@@Base+0x378f8>
    bdd8:	911c8042 	add	x2, x2, #0x720
    bddc:	911dc021 	add	x1, x1, #0x770
    bde0:	d2800000 	mov	x0, #0x0                   	// #0
    bde4:	b9012be5 	str	w5, [sp, #296]
    bde8:	97fff2be 	bl	88e0 <dcngettext@plt>
    bdec:	b9412be5 	ldr	w5, [sp, #296]
    bdf0:	52800102 	mov	w2, #0x8                   	// #8
    bdf4:	2a0503e1 	mov	w1, w5
    bdf8:	97fffa44 	bl	a708 <error@@Base>
    bdfc:	d2800103 	mov	x3, #0x8                   	// #8
    be00:	cb180320 	sub	x0, x25, x24
    be04:	eb03001f 	cmp	x0, x3
    be08:	9a839000 	csel	x0, x0, x3, ls	// ls = plast
    be0c:	b40000a0 	cbz	x0, be20 <error@@Base+0x1718>
    be10:	f9473f42 	ldr	x2, [x26, #3704]
    be14:	2a0003e1 	mov	w1, w0
    be18:	aa1803e0 	mov	x0, x24
    be1c:	d63f0040 	blr	x2
    be20:	9400b390 	bl	38c60 <error@@Base+0x2e558>
    be24:	f9000360 	str	x0, [x27]
    be28:	14000023 	b	beb4 <error@@Base+0x17ac>
    be2c:	f1002e9f 	cmp	x20, #0xb
    be30:	540001a0 	b.eq	be64 <error@@Base+0x175c>  // b.none
    be34:	f1003e9f 	cmp	x20, #0xf
    be38:	54000220 	b.eq	be7c <error@@Base+0x1774>  // b.none
    be3c:	f100169f 	cmp	x20, #0x5
    be40:	540003a1 	b.ne	beb4 <error@@Base+0x17ac>  // b.any
    be44:	cb180321 	sub	x1, x25, x24
    be48:	aa1803e0 	mov	x0, x24
    be4c:	f9473f42 	ldr	x2, [x26, #3704]
    be50:	f100043f 	cmp	x1, #0x1
    be54:	9a9f14a1 	csinc	x1, x5, xzr, ne	// ne = any
    be58:	d63f0040 	blr	x2
    be5c:	b9000b60 	str	w0, [x27, #8]
    be60:	14000015 	b	beb4 <error@@Base+0x17ac>
    be64:	f9473f42 	ldr	x2, [x26, #3704]
    be68:	aa1803e0 	mov	x0, x24
    be6c:	52800021 	mov	w1, #0x1                   	// #1
    be70:	d63f0040 	blr	x2
    be74:	b9000b60 	str	w0, [x27, #8]
    be78:	1400000f 	b	beb4 <error@@Base+0x17ac>
    be7c:	a94c0fe4 	ldp	x4, x3, [sp, #192]
    be80:	aa1903e1 	mov	x1, x25
    be84:	aa1803e0 	mov	x0, x24
    be88:	52800002 	mov	w2, #0x0                   	// #0
    be8c:	94009cf6 	bl	33264 <error@@Base+0x28b5c>
    be90:	b9000b60 	str	w0, [x27, #8]
    be94:	b2407fe1 	mov	x1, #0xffffffff            	// #4294967295
    be98:	eb01001f 	cmp	x0, x1
    be9c:	54000089 	b.ls	beac <error@@Base+0x17a4>  // b.plast
    bea0:	b94137e0 	ldr	w0, [sp, #308]
    bea4:	321f0000 	orr	w0, w0, #0x2
    bea8:	b90137e0 	str	w0, [sp, #308]
    beac:	b94137e0 	ldr	w0, [sp, #308]
    beb0:	94009d75 	bl	33484 <error@@Base+0x28d7c>
    beb4:	b94167e0 	ldr	w0, [sp, #356]
    beb8:	12800008 	mov	w8, #0xffffffff            	// #-1
    bebc:	f90003e0 	str	x0, [sp]
    bec0:	aa1803e4 	mov	x4, x24
    bec4:	b940e3e0 	ldr	w0, [sp, #224]
    bec8:	aa1403e1 	mov	x1, x20
    becc:	f9405fe3 	ldr	x3, [sp, #184]
    bed0:	b9000be0 	str	w0, [sp, #8]
    bed4:	f9405be0 	ldr	x0, [sp, #176]
    bed8:	f9000bff 	str	xzr, [sp, #16]
    bedc:	b9001bf6 	str	w22, [sp, #24]
    bee0:	aa1903e5 	mov	x5, x25
    bee4:	f90013e0 	str	x0, [sp, #32]
    bee8:	52800120 	mov	w0, #0x9                   	// #9
    beec:	f90017ff 	str	xzr, [sp, #40]
    bef0:	d2800007 	mov	x7, #0x0                   	// #0
    bef4:	3900c3e0 	strb	w0, [sp, #48]
    bef8:	d2800006 	mov	x6, #0x0                   	// #0
    befc:	b9003be8 	str	w8, [sp, #56]
    bf00:	d2800002 	mov	x2, #0x0                   	// #0
    bf04:	d2800000 	mov	x0, #0x0                   	// #0
    bf08:	110006b5 	add	w21, w21, #0x1
    bf0c:	9400a939 	bl	363f0 <error@@Base+0x2bce8>
    bf10:	aa0003f8 	mov	x24, x0
    bf14:	17ffff79 	b	bcf8 <error@@Base+0x15f0>
    bf18:	aa1c03e4 	mov	x4, x28
    bf1c:	9100637b 	add	x27, x27, #0x18
    bf20:	eb18033f 	cmp	x25, x24
    bf24:	54ffede8 	b.hi	bce0 <error@@Base+0x15d8>  // b.pmore
    bf28:	aa1903f6 	mov	x22, x25
    bf2c:	b94103f7 	ldr	w23, [sp, #256]
    bf30:	b94107f9 	ldr	w25, [sp, #260]
    bf34:	f00001c1 	adrp	x1, 46000 <error@@Base+0x3b8f8>
    bf38:	91324021 	add	x1, x1, #0xc90
    bf3c:	528000a2 	mov	w2, #0x5                   	// #5
    bf40:	d2800000 	mov	x0, #0x0                   	// #0
    bf44:	97fff2b3 	bl	8a10 <dcgettext@plt>
    bf48:	97fff3a8 	bl	8de8 <warn@@Base>
    bf4c:	140000a8 	b	c1ec <error@@Base+0x1ae4>
    bf50:	aa1903f6 	mov	x22, x25
    bf54:	b94103f7 	ldr	w23, [sp, #256]
    bf58:	b94107f9 	ldr	w25, [sp, #260]
    bf5c:	aa0403fc 	mov	x28, x4
    bf60:	140000a3 	b	c1ec <error@@Base+0x1ae4>
    bf64:	39400300 	ldrb	w0, [x24]
    bf68:	35000080 	cbnz	w0, bf78 <error@@Base+0x1870>
    bf6c:	52800019 	mov	w25, #0x0                   	// #0
    bf70:	d280001c 	mov	x28, #0x0                   	// #0
    bf74:	14000024 	b	c004 <error@@Base+0x18fc>
    bf78:	aa1803f3 	mov	x19, x24
    bf7c:	52800019 	mov	w25, #0x0                   	// #0
    bf80:	39400260 	ldrb	w0, [x19]
    bf84:	34000260 	cbz	w0, bfd0 <error@@Base+0x18c8>
    bf88:	cb1302c1 	sub	x1, x22, x19
    bf8c:	aa1303e0 	mov	x0, x19
    bf90:	97fff0d8 	bl	82f0 <strnlen@plt>
    bf94:	8b000273 	add	x19, x19, x0
    bf98:	eb1302df 	cmp	x22, x19
    bf9c:	540000a9 	b.ls	bfb0 <error@@Base+0x18a8>  // b.plast
    bfa0:	91000673 	add	x19, x19, #0x1
    bfa4:	11000739 	add	w25, w25, #0x1
    bfa8:	eb1302df 	cmp	x22, x19
    bfac:	54fffea8 	b.hi	bf80 <error@@Base+0x1878>  // b.pmore
    bfb0:	f00001c1 	adrp	x1, 46000 <error@@Base+0x3b8f8>
    bfb4:	9132a021 	add	x1, x1, #0xca8
    bfb8:	528000a2 	mov	w2, #0x5                   	// #5
    bfbc:	b940dbf4 	ldr	w20, [sp, #216]
    bfc0:	d2800000 	mov	x0, #0x0                   	// #0
    bfc4:	97fff293 	bl	8a10 <dcgettext@plt>
    bfc8:	97fff388 	bl	8de8 <warn@@Base>
    bfcc:	140003fe 	b	cfc4 <error@@Base+0x28bc>
    bfd0:	d37d7f20 	ubfiz	x0, x25, #3, #32
    bfd4:	97fff173 	bl	85a0 <xmalloc@plt>
    bfd8:	aa0003fc 	mov	x28, x0
    bfdc:	aa0003f4 	mov	x20, x0
    bfe0:	39400300 	ldrb	w0, [x24]
    bfe4:	340000e0 	cbz	w0, c000 <error@@Base+0x18f8>
    bfe8:	f8008698 	str	x24, [x20], #8
    bfec:	aa1803e0 	mov	x0, x24
    bff0:	97fff0a8 	bl	8290 <strlen@plt>
    bff4:	91000400 	add	x0, x0, #0x1
    bff8:	8b000318 	add	x24, x24, x0
    bffc:	17fffff9 	b	bfe0 <error@@Base+0x18d8>
    c000:	aa1303f8 	mov	x24, x19
    c004:	91000713 	add	x19, x24, #0x1
    c008:	eb1302df 	cmp	x22, x19
    c00c:	54000069 	b.ls	c018 <error@@Base+0x1910>  // b.plast
    c010:	39400700 	ldrb	w0, [x24, #1]
    c014:	35000080 	cbnz	w0, c024 <error@@Base+0x191c>
    c018:	91000b18 	add	x24, x24, #0x2
    c01c:	52800017 	mov	w23, #0x0                   	// #0
    c020:	14000075 	b	c1f4 <error@@Base+0x1aec>
    c024:	aa1303f8 	mov	x24, x19
    c028:	9104d3f4 	add	x20, sp, #0x134
    c02c:	52800017 	mov	w23, #0x0                   	// #0
    c030:	39400300 	ldrb	w0, [x24]
    c034:	34000560 	cbz	w0, c0e0 <error@@Base+0x19d8>
    c038:	cb1802c1 	sub	x1, x22, x24
    c03c:	aa1803e0 	mov	x0, x24
    c040:	97fff0ac 	bl	82f0 <strnlen@plt>
    c044:	8b000318 	add	x24, x24, x0
    c048:	eb1802df 	cmp	x22, x24
    c04c:	54000049 	b.ls	c054 <error@@Base+0x194c>  // b.plast
    c050:	91000718 	add	x24, x24, #0x1
    c054:	aa1403e3 	mov	x3, x20
    c058:	aa1603e1 	mov	x1, x22
    c05c:	aa1803e0 	mov	x0, x24
    c060:	d2800004 	mov	x4, #0x0                   	// #0
    c064:	52800002 	mov	w2, #0x0                   	// #0
    c068:	94009c7f 	bl	33264 <error@@Base+0x28b5c>
    c06c:	b94137e0 	ldr	w0, [sp, #308]
    c070:	aa1403e3 	mov	x3, x20
    c074:	aa1603e1 	mov	x1, x22
    c078:	d2800004 	mov	x4, #0x0                   	// #0
    c07c:	8b000318 	add	x24, x24, x0
    c080:	52800002 	mov	w2, #0x0                   	// #0
    c084:	aa1803e0 	mov	x0, x24
    c088:	94009c77 	bl	33264 <error@@Base+0x28b5c>
    c08c:	b94137e0 	ldr	w0, [sp, #308]
    c090:	aa1403e3 	mov	x3, x20
    c094:	aa1603e1 	mov	x1, x22
    c098:	d2800004 	mov	x4, #0x0                   	// #0
    c09c:	8b000318 	add	x24, x24, x0
    c0a0:	52800002 	mov	w2, #0x0                   	// #0
    c0a4:	aa1803e0 	mov	x0, x24
    c0a8:	94009c6f 	bl	33264 <error@@Base+0x28b5c>
    c0ac:	b94137e0 	ldr	w0, [sp, #308]
    c0b0:	110006f7 	add	w23, w23, #0x1
    c0b4:	8b000318 	add	x24, x24, x0
    c0b8:	eb1802df 	cmp	x22, x24
    c0bc:	54fffba8 	b.hi	c030 <error@@Base+0x1928>  // b.pmore
    c0c0:	d00001c1 	adrp	x1, 46000 <error@@Base+0x3b8f8>
    c0c4:	91334021 	add	x1, x1, #0xcd0
    c0c8:	528000a2 	mov	w2, #0x5                   	// #5
    c0cc:	b940dbf4 	ldr	w20, [sp, #216]
    c0d0:	d2800000 	mov	x0, #0x0                   	// #0
    c0d4:	97fff24f 	bl	8a10 <dcgettext@plt>
    c0d8:	97fff344 	bl	8de8 <warn@@Base>
    c0dc:	140003ba 	b	cfc4 <error@@Base+0x28bc>
    c0e0:	52800300 	mov	w0, #0x18                  	// #24
    c0e4:	9104d3fa 	add	x26, sp, #0x134
    c0e8:	9104c3f4 	add	x20, sp, #0x130
    c0ec:	b2407ffb 	mov	x27, #0xffffffff            	// #4294967295
    c0f0:	9ba07ee0 	umull	x0, w23, w0
    c0f4:	97fff12b 	bl	85a0 <xmalloc@plt>
    c0f8:	aa0003f5 	mov	x21, x0
    c0fc:	f90057e0 	str	x0, [sp, #168]
    c100:	39400260 	ldrb	w0, [x19]
    c104:	34000700 	cbz	w0, c1e4 <error@@Base+0x1adc>
    c108:	f90002b3 	str	x19, [x21]
    c10c:	aa1303e0 	mov	x0, x19
    c110:	97fff060 	bl	8290 <strlen@plt>
    c114:	91000400 	add	x0, x0, #0x1
    c118:	8b000273 	add	x19, x19, x0
    c11c:	aa1603e1 	mov	x1, x22
    c120:	aa1303e0 	mov	x0, x19
    c124:	aa1a03e4 	mov	x4, x26
    c128:	aa1403e3 	mov	x3, x20
    c12c:	52800002 	mov	w2, #0x0                   	// #0
    c130:	94009c4d 	bl	33264 <error@@Base+0x28b5c>
    c134:	b9000aa0 	str	w0, [x21, #8]
    c138:	b94133e1 	ldr	w1, [sp, #304]
    c13c:	8b010273 	add	x19, x19, x1
    c140:	eb1b001f 	cmp	x0, x27
    c144:	54000089 	b.ls	c154 <error@@Base+0x1a4c>  // b.plast
    c148:	b94137e0 	ldr	w0, [sp, #308]
    c14c:	321f0000 	orr	w0, w0, #0x2
    c150:	b90137e0 	str	w0, [sp, #308]
    c154:	b94137e0 	ldr	w0, [sp, #308]
    c158:	94009ccb 	bl	33484 <error@@Base+0x28d7c>
    c15c:	aa1603e1 	mov	x1, x22
    c160:	aa1303e0 	mov	x0, x19
    c164:	aa1a03e4 	mov	x4, x26
    c168:	aa1403e3 	mov	x3, x20
    c16c:	52800002 	mov	w2, #0x0                   	// #0
    c170:	94009c3d 	bl	33264 <error@@Base+0x28b5c>
    c174:	b94133e1 	ldr	w1, [sp, #304]
    c178:	b9000ea0 	str	w0, [x21, #12]
    c17c:	8b010273 	add	x19, x19, x1
    c180:	eb1b001f 	cmp	x0, x27
    c184:	54000089 	b.ls	c194 <error@@Base+0x1a8c>  // b.plast
    c188:	b94137e0 	ldr	w0, [sp, #308]
    c18c:	321f0000 	orr	w0, w0, #0x2
    c190:	b90137e0 	str	w0, [sp, #308]
    c194:	b94137e0 	ldr	w0, [sp, #308]
    c198:	94009cbb 	bl	33484 <error@@Base+0x28d7c>
    c19c:	aa1603e1 	mov	x1, x22
    c1a0:	aa1303e0 	mov	x0, x19
    c1a4:	aa1a03e4 	mov	x4, x26
    c1a8:	aa1403e3 	mov	x3, x20
    c1ac:	52800002 	mov	w2, #0x0                   	// #0
    c1b0:	94009c2d 	bl	33264 <error@@Base+0x28b5c>
    c1b4:	b94133e1 	ldr	w1, [sp, #304]
    c1b8:	b90012a0 	str	w0, [x21, #16]
    c1bc:	8b010273 	add	x19, x19, x1
    c1c0:	eb1b001f 	cmp	x0, x27
    c1c4:	54000089 	b.ls	c1d4 <error@@Base+0x1acc>  // b.plast
    c1c8:	b94137e0 	ldr	w0, [sp, #308]
    c1cc:	321f0000 	orr	w0, w0, #0x2
    c1d0:	b90137e0 	str	w0, [sp, #308]
    c1d4:	b94137e0 	ldr	w0, [sp, #308]
    c1d8:	910062b5 	add	x21, x21, #0x18
    c1dc:	94009caa 	bl	33484 <error@@Base+0x28d7c>
    c1e0:	17ffffc8 	b	c100 <error@@Base+0x19f8>
    c1e4:	91000718 	add	x24, x24, #0x1
    c1e8:	1400000d 	b	c21c <error@@Base+0x1b14>
    c1ec:	f94057e0 	ldr	x0, [sp, #168]
    c1f0:	b5000160 	cbnz	x0, c21c <error@@Base+0x1b14>
    c1f4:	528000a2 	mov	w2, #0x5                   	// #5
    c1f8:	d00001c1 	adrp	x1, 46000 <error@@Base+0x3b8f8>
    c1fc:	d2800000 	mov	x0, #0x0                   	// #0
    c200:	9133c021 	add	x1, x1, #0xcf0
    c204:	97fff203 	bl	8a10 <dcgettext@plt>
    c208:	aa0003e1 	mov	x1, x0
    c20c:	52800020 	mov	w0, #0x1                   	// #1
    c210:	f90057ff 	str	xzr, [sp, #168]
    c214:	97fff0d7 	bl	8570 <__printf_chk@plt>
    c218:	14000055 	b	c36c <error@@Base+0x1c64>
    c21c:	b50001fc 	cbnz	x28, c258 <error@@Base+0x1b50>
    c220:	528000a2 	mov	w2, #0x5                   	// #5
    c224:	d00001c1 	adrp	x1, 46000 <error@@Base+0x3b8f8>
    c228:	d2800000 	mov	x0, #0x0                   	// #0
    c22c:	91342021 	add	x1, x1, #0xd08
    c230:	97fff1f8 	bl	8a10 <dcgettext@plt>
    c234:	aa0003f3 	mov	x19, x0
    c238:	f94057e0 	ldr	x0, [sp, #168]
    c23c:	f9400000 	ldr	x0, [x0]
    c240:	9400c130 	bl	3c700 <error@@Base+0x31ff8>
    c244:	aa0003e2 	mov	x2, x0
    c248:	aa1303e1 	mov	x1, x19
    c24c:	52800020 	mov	w0, #0x1                   	// #1
    c250:	97fff0c8 	bl	8570 <__printf_chk@plt>
    c254:	14000046 	b	c36c <error@@Base+0x1c64>
    c258:	f94057e0 	ldr	x0, [sp, #168]
    c25c:	b9400813 	ldr	w19, [x0, #8]
    c260:	350000d3 	cbnz	w19, c278 <error@@Base+0x1b70>
    c264:	b940e3e0 	ldr	w0, [sp, #224]
    c268:	7100101f 	cmp	w0, #0x4
    c26c:	54000429 	b.ls	c2f0 <error@@Base+0x1be8>  // b.plast
    c270:	350003d9 	cbnz	w25, c2e8 <error@@Base+0x1be0>
    c274:	14000002 	b	c27c <error@@Base+0x1b74>
    c278:	35000119 	cbnz	w25, c298 <error@@Base+0x1b90>
    c27c:	d00001c1 	adrp	x1, 46000 <error@@Base+0x3b8f8>
    c280:	528000a2 	mov	w2, #0x5                   	// #5
    c284:	91346021 	add	x1, x1, #0xd18
    c288:	d2800000 	mov	x0, #0x0                   	// #0
    c28c:	97fff1e1 	bl	8a10 <dcgettext@plt>
    c290:	aa0003f3 	mov	x19, x0
    c294:	14000019 	b	c2f8 <error@@Base+0x1bf0>
    c298:	b940e3e0 	ldr	w0, [sp, #224]
    c29c:	7100141f 	cmp	w0, #0x5
    c2a0:	5a1f0273 	sbc	w19, w19, wzr
    c2a4:	6b19027f 	cmp	w19, w25
    c2a8:	54000203 	b.cc	c2e8 <error@@Base+0x1be0>  // b.lo, b.ul, b.last
    c2ac:	528000a2 	mov	w2, #0x5                   	// #5
    c2b0:	d00001c1 	adrp	x1, 46000 <error@@Base+0x3b8f8>
    c2b4:	d2800000 	mov	x0, #0x0                   	// #0
    c2b8:	9134a021 	add	x1, x1, #0xd28
    c2bc:	97fff1d5 	bl	8a10 <dcgettext@plt>
    c2c0:	2a1303e1 	mov	w1, w19
    c2c4:	2a1903e2 	mov	w2, w25
    c2c8:	97fff2c8 	bl	8de8 <warn@@Base>
    c2cc:	528000a2 	mov	w2, #0x5                   	// #5
    c2d0:	f00001a1 	adrp	x1, 43000 <error@@Base+0x388f8>
    c2d4:	d2800000 	mov	x0, #0x0                   	// #0
    c2d8:	91362021 	add	x1, x1, #0xd88
    c2dc:	97fff1cd 	bl	8a10 <dcgettext@plt>
    c2e0:	aa0003f3 	mov	x19, x0
    c2e4:	14000005 	b	c2f8 <error@@Base+0x1bf0>
    c2e8:	f8735b93 	ldr	x19, [x28, w19, uxtw #3]
    c2ec:	14000003 	b	c2f8 <error@@Base+0x1bf0>
    c2f0:	900001b3 	adrp	x19, 40000 <error@@Base+0x358f8>
    c2f4:	910d4273 	add	x19, x19, #0x350
    c2f8:	b0000320 	adrp	x0, 71000 <error@@Base+0x668f8>
    c2fc:	b94d3000 	ldr	w0, [x0, #3376]
    c300:	34000260 	cbz	w0, c34c <error@@Base+0x1c44>
    c304:	d00001c1 	adrp	x1, 46000 <error@@Base+0x3b8f8>
    c308:	91356021 	add	x1, x1, #0xd58
    c30c:	528000a2 	mov	w2, #0x5                   	// #5
    c310:	d2800000 	mov	x0, #0x0                   	// #0
    c314:	97fff1bf 	bl	8a10 <dcgettext@plt>
    c318:	aa0003f5 	mov	x21, x0
    c31c:	aa1303e0 	mov	x0, x19
    c320:	9400c0f8 	bl	3c700 <error@@Base+0x31ff8>
    c324:	aa0003f3 	mov	x19, x0
    c328:	f94057e0 	ldr	x0, [sp, #168]
    c32c:	f9400000 	ldr	x0, [x0]
    c330:	9400c0f4 	bl	3c700 <error@@Base+0x31ff8>
    c334:	aa0003e3 	mov	x3, x0
    c338:	aa1303e2 	mov	x2, x19
    c33c:	aa1503e1 	mov	x1, x21
    c340:	52800020 	mov	w0, #0x1                   	// #1
    c344:	97fff08b 	bl	8570 <__printf_chk@plt>
    c348:	14000009 	b	c36c <error@@Base+0x1c64>
    c34c:	f94057e0 	ldr	x0, [sp, #168]
    c350:	f9400000 	ldr	x0, [x0]
    c354:	9400c0eb 	bl	3c700 <error@@Base+0x31ff8>
    c358:	aa0003e2 	mov	x2, x0
    c35c:	d0000181 	adrp	x1, 3e000 <error@@Base+0x338f8>
    c360:	52800020 	mov	w0, #0x1                   	// #1
    c364:	913ce021 	add	x1, x1, #0xf38
    c368:	97fff082 	bl	8570 <__printf_chk@plt>
    c36c:	528000a2 	mov	w2, #0x5                   	// #5
    c370:	34000137 	cbz	w23, c394 <error@@Base+0x1c8c>
    c374:	d00001c1 	adrp	x1, 46000 <error@@Base+0x3b8f8>
    c378:	d2800000 	mov	x0, #0x0                   	// #0
    c37c:	9135a021 	add	x1, x1, #0xd68
    c380:	97fff1a4 	bl	8a10 <dcgettext@plt>
    c384:	aa0003e1 	mov	x1, x0
    c388:	52800020 	mov	w0, #0x1                   	// #1
    c38c:	97fff079 	bl	8570 <__printf_chk@plt>
    c390:	14000008 	b	c3b0 <error@@Base+0x1ca8>
    c394:	d00001c1 	adrp	x1, 46000 <error@@Base+0x3b8f8>
    c398:	d2800000 	mov	x0, #0x0                   	// #0
    c39c:	91370021 	add	x1, x1, #0xdc0
    c3a0:	97fff19c 	bl	8a10 <dcgettext@plt>
    c3a4:	aa0003e1 	mov	x1, x0
    c3a8:	52800020 	mov	w0, #0x1                   	// #1
    c3ac:	97fff071 	bl	8570 <__printf_chk@plt>
    c3b0:	f94077e0 	ldr	x0, [sp, #232]
    c3b4:	f94093e1 	ldr	x1, [sp, #288]
    c3b8:	ad400400 	ldp	q0, q1, [x0]
    c3bc:	f9401000 	ldr	x0, [x0, #32]
    c3c0:	f9001020 	str	x0, [x1, #32]
    c3c4:	ad000420 	stp	q0, q1, [x1]
    c3c8:	aa1803fa 	mov	x26, x24
    c3cc:	f94057f5 	ldr	x21, [sp, #168]
    c3d0:	2a1703f8 	mov	w24, w23
    c3d4:	f9408ff4 	ldr	x20, [sp, #280]
    c3d8:	90000340 	adrp	x0, 74000 <error@@Base+0x698f8>
    c3dc:	91078000 	add	x0, x0, #0x1e0
    c3e0:	f90067e0 	str	x0, [sp, #200]
    c3e4:	f9409fe1 	ldr	x1, [sp, #312]
    c3e8:	eb01035f 	cmp	x26, x1
    c3ec:	54005cc2 	b.cs	cf84 <error@@Base+0x287c>  // b.hs, b.nlast
    c3f0:	aa1a03f7 	mov	x23, x26
    c3f4:	394587e0 	ldrb	w0, [sp, #353]
    c3f8:	384016fb 	ldrb	w27, [x23], #1
    c3fc:	6b00037f 	cmp	w27, w0
    c400:	540004e3 	b.cc	c49c <error@@Base+0x1d94>  // b.lo, b.ul, b.last
    c404:	4b000360 	sub	w0, w27, w0
    c408:	394583e7 	ldrb	w7, [sp, #352]
    c40c:	12001c01 	and	w1, w0, #0xff
    c410:	394567e3 	ldrb	w3, [sp, #345]
    c414:	f9404a84 	ldr	x4, [x20, #144]
    c418:	91024288 	add	x8, x20, #0x90
    c41c:	1ac70820 	udiv	w0, w1, w7
    c420:	394563e2 	ldrb	w2, [sp, #344]
    c424:	12001c05 	and	w5, w0, #0xff
    c428:	92401c09 	and	x9, x0, #0xff
    c42c:	7100047f 	cmp	w3, #0x1
    c430:	54000121 	b.ne	c454 <error@@Base+0x1d4c>  // b.any
    c434:	9ba27ca2 	umull	x2, w5, w2
    c438:	8b040044 	add	x4, x2, x4
    c43c:	f9004a84 	str	x4, [x20, #144]
    c440:	b40001e2 	cbz	x2, c47c <error@@Base+0x1d74>
    c444:	90000342 	adrp	x2, 74000 <error@@Base+0x698f8>
    c448:	91078042 	add	x2, x2, #0x1e0
    c44c:	b900985f 	str	wzr, [x2, #152]
    c450:	1400000b 	b	c47c <error@@Base+0x1d74>
    c454:	39408106 	ldrb	w6, [x8, #32]
    c458:	8b0900c6 	add	x6, x6, x9
    c45c:	9ac308c5 	udiv	x5, x6, x3
    c460:	1b057c42 	mul	w2, w2, w5
    c464:	9b0398a5 	msub	x5, x5, x3, x6
    c468:	2a0203e3 	mov	w3, w2
    c46c:	39008105 	strb	w5, [x8, #32]
    c470:	8b040063 	add	x3, x3, x4
    c474:	f9004a83 	str	x3, [x20, #144]
    c478:	35fffe62 	cbnz	w2, c444 <error@@Base+0x1d3c>
    c47c:	f94067e2 	ldr	x2, [sp, #200]
    c480:	1b078400 	msub	w0, w0, w7, w1
    c484:	b9415fe3 	ldr	w3, [sp, #348]
    c488:	b940a041 	ldr	w1, [x2, #160]
    c48c:	0b200060 	add	w0, w3, w0, uxtb
    c490:	0b010000 	add	w0, w0, w1
    c494:	b900a040 	str	w0, [x2, #160]
    c498:	14000203 	b	cca4 <error@@Base+0x259c>
    c49c:	7100337f 	cmp	w27, #0xc
    c4a0:	540038a8 	b.hi	cbb4 <error@@Base+0x24ac>  // b.pmore
    c4a4:	b00001e2 	adrp	x2, 49000 <error@@Base+0x3e8f8>
    c4a8:	9126f042 	add	x2, x2, #0x9bc
    c4ac:	787b5842 	ldrh	w2, [x2, w27, uxtw #1]
    c4b0:	10000063 	adr	x3, c4bc <error@@Base+0x1db4>
    c4b4:	8b22a862 	add	x2, x3, w2, sxth #2
    c4b8:	d61f0040 	br	x2
    c4bc:	9104d3e0 	add	x0, sp, #0x134
    c4c0:	f90057e0 	str	x0, [sp, #168]
    c4c4:	9104c3e0 	add	x0, sp, #0x130
    c4c8:	52800002 	mov	w2, #0x0                   	// #0
    c4cc:	f94057e4 	ldr	x4, [sp, #168]
    c4d0:	aa0003e3 	mov	x3, x0
    c4d4:	f90063e0 	str	x0, [sp, #192]
    c4d8:	aa1703e0 	mov	x0, x23
    c4dc:	f90073e1 	str	x1, [sp, #224]
    c4e0:	94009b61 	bl	33264 <error@@Base+0x28b5c>
    c4e4:	aa0003fb 	mov	x27, x0
    c4e8:	b94133e3 	ldr	w3, [sp, #304]
    c4ec:	b2407fe0 	mov	x0, #0xffffffff            	// #4294967295
    c4f0:	f94073e1 	ldr	x1, [sp, #224]
    c4f4:	8a000362 	and	x2, x27, x0
    c4f8:	eb00037f 	cmp	x27, x0
    c4fc:	8b0302e3 	add	x3, x23, x3
    c500:	54000089 	b.ls	c510 <error@@Base+0x1e08>  // b.plast
    c504:	b94137e0 	ldr	w0, [sp, #308]
    c508:	321f0000 	orr	w0, w0, #0x2
    c50c:	b90137e0 	str	w0, [sp, #308]
    c510:	b94137e0 	ldr	w0, [sp, #308]
    c514:	8b020073 	add	x19, x3, x2
    c518:	a90e0be3 	stp	x3, x2, [sp, #224]
    c51c:	f9007fe1 	str	x1, [sp, #248]
    c520:	94009bd9 	bl	33484 <error@@Base+0x28d7c>
    c524:	340000bb 	cbz	w27, c538 <error@@Base+0x1e30>
    c528:	f9407fe1 	ldr	x1, [sp, #248]
    c52c:	a94e0be3 	ldp	x3, x2, [sp, #224]
    c530:	eb13003f 	cmp	x1, x19
    c534:	54000102 	b.cs	c554 <error@@Base+0x1e4c>  // b.hs, b.nlast
    c538:	d00001c1 	adrp	x1, 46000 <error@@Base+0x3b8f8>
    c53c:	91378021 	add	x1, x1, #0xde0
    c540:	528000a2 	mov	w2, #0x5                   	// #5
    c544:	d2800000 	mov	x0, #0x0                   	// #0
    c548:	97fff132 	bl	8a10 <dcgettext@plt>
    c54c:	97fff227 	bl	8de8 <warn@@Base>
    c550:	14000286 	b	cf68 <error@@Base+0x2860>
    c554:	aa0303fb 	mov	x27, x3
    c558:	38401777 	ldrb	w23, [x27], #1
    c55c:	71000aff 	cmp	w23, #0x2
    c560:	540001a0 	b.eq	c594 <error@@Base+0x1e8c>  // b.none
    c564:	54000088 	b.hi	c574 <error@@Base+0x1e6c>  // b.pmore
    c568:	710006ff 	cmp	w23, #0x1
    c56c:	54003980 	b.eq	cc9c <error@@Base+0x2594>  // b.none
    c570:	1400006f 	b	c72c <error@@Base+0x2024>
    c574:	71005aff 	cmp	w23, #0x16
    c578:	54005020 	b.eq	cf7c <error@@Base+0x2874>  // b.none
    c57c:	54000d88 	b.hi	c72c <error@@Base+0x2024>  // b.pmore
    c580:	71000eff 	cmp	w23, #0x3
    c584:	540004a0 	b.eq	c618 <error@@Base+0x1f10>  // b.none
    c588:	710012ff 	cmp	w23, #0x4
    c58c:	54004f80 	b.eq	cf7c <error@@Base+0x2874>  // b.none
    c590:	14000067 	b	c72c <error@@Base+0x2024>
    c594:	d1000457 	sub	x23, x2, #0x1
    c598:	f10022ff 	cmp	x23, #0x8
    c59c:	54000229 	b.ls	c5e0 <error@@Base+0x1ed8>  // b.plast
    c5a0:	aa1703e3 	mov	x3, x23
    c5a4:	528000a4 	mov	w4, #0x5                   	// #5
    c5a8:	d00001a2 	adrp	x2, 42000 <error@@Base+0x378f8>
    c5ac:	d00001a1 	adrp	x1, 42000 <error@@Base+0x378f8>
    c5b0:	911c8042 	add	x2, x2, #0x720
    c5b4:	911dc021 	add	x1, x1, #0x770
    c5b8:	d2800000 	mov	x0, #0x0                   	// #0
    c5bc:	97fff0c9 	bl	88e0 <dcngettext@plt>
    c5c0:	2a1703e1 	mov	w1, w23
    c5c4:	52800102 	mov	w2, #0x8                   	// #8
    c5c8:	97fff850 	bl	a708 <error@@Base>
    c5cc:	d2800117 	mov	x23, #0x8                   	// #8
    c5d0:	eb1b027f 	cmp	x19, x27
    c5d4:	540000c2 	b.cs	c5ec <error@@Base+0x1ee4>  // b.hs, b.nlast
    c5d8:	d2800000 	mov	x0, #0x0                   	// #0
    c5dc:	14000009 	b	c600 <error@@Base+0x1ef8>
    c5e0:	eb1b027f 	cmp	x19, x27
    c5e4:	54ffffa3 	b.cc	c5d8 <error@@Base+0x1ed0>  // b.lo, b.ul, b.last
    c5e8:	b4ffff97 	cbz	x23, c5d8 <error@@Base+0x1ed0>
    c5ec:	b0000322 	adrp	x2, 71000 <error@@Base+0x668f8>
    c5f0:	2a1703e1 	mov	w1, w23
    c5f4:	aa1b03e0 	mov	x0, x27
    c5f8:	f9473c42 	ldr	x2, [x2, #3704]
    c5fc:	d63f0040 	blr	x2
    c600:	90000341 	adrp	x1, 74000 <error@@Base+0x698f8>
    c604:	91078021 	add	x1, x1, #0x1e0
    c608:	f9004820 	str	x0, [x1, #144]
    c60c:	b900983f 	str	wzr, [x1, #152]
    c610:	3902c03f 	strb	wzr, [x1, #176]
    c614:	1400025a 	b	cf7c <error@@Base+0x2874>
    c618:	11000717 	add	w23, w24, #0x1
    c61c:	5280031a 	mov	w26, #0x18                  	// #24
    c620:	aa1503e0 	mov	x0, x21
    c624:	9bba7ee1 	umull	x1, w23, w26
    c628:	97ffefae 	bl	84e0 <xrealloc@plt>
    c62c:	aa0003f5 	mov	x21, x0
    c630:	9bba7f02 	umull	x2, w24, w26
    c634:	90000341 	adrp	x1, 74000 <error@@Base+0x698f8>
    c638:	91078021 	add	x1, x1, #0x1e0
    c63c:	8b020018 	add	x24, x0, x2
    c640:	aa1b03e0 	mov	x0, x27
    c644:	f8226abb 	str	x27, [x21, x2]
    c648:	b940b422 	ldr	w2, [x1, #180]
    c64c:	11000442 	add	w2, w2, #0x1
    c650:	b900b422 	str	w2, [x1, #180]
    c654:	97ffef0f 	bl	8290 <strlen@plt>
    c658:	91000400 	add	x0, x0, #0x1
    c65c:	f94057e4 	ldr	x4, [sp, #168]
    c660:	8b00037a 	add	x26, x27, x0
    c664:	f94063e3 	ldr	x3, [sp, #192]
    c668:	aa1a03e0 	mov	x0, x26
    c66c:	aa1303e1 	mov	x1, x19
    c670:	52800002 	mov	w2, #0x0                   	// #0
    c674:	94009afc 	bl	33264 <error@@Base+0x28b5c>
    c678:	b94133e1 	ldr	w1, [sp, #304]
    c67c:	b9000b00 	str	w0, [x24, #8]
    c680:	8b01035a 	add	x26, x26, x1
    c684:	b2407fe1 	mov	x1, #0xffffffff            	// #4294967295
    c688:	eb01001f 	cmp	x0, x1
    c68c:	54000089 	b.ls	c69c <error@@Base+0x1f94>  // b.plast
    c690:	b94137e0 	ldr	w0, [sp, #308]
    c694:	321f0000 	orr	w0, w0, #0x2
    c698:	b90137e0 	str	w0, [sp, #308]
    c69c:	b94137e0 	ldr	w0, [sp, #308]
    c6a0:	94009b79 	bl	33484 <error@@Base+0x28d7c>
    c6a4:	f94057e4 	ldr	x4, [sp, #168]
    c6a8:	aa1303e1 	mov	x1, x19
    c6ac:	f94063e3 	ldr	x3, [sp, #192]
    c6b0:	aa1a03e0 	mov	x0, x26
    c6b4:	52800002 	mov	w2, #0x0                   	// #0
    c6b8:	94009aeb 	bl	33264 <error@@Base+0x28b5c>
    c6bc:	b94133e2 	ldr	w2, [sp, #304]
    c6c0:	b2407fe1 	mov	x1, #0xffffffff            	// #4294967295
    c6c4:	b9000f00 	str	w0, [x24, #12]
    c6c8:	8b02035a 	add	x26, x26, x2
    c6cc:	eb01001f 	cmp	x0, x1
    c6d0:	54000089 	b.ls	c6e0 <error@@Base+0x1fd8>  // b.plast
    c6d4:	b94137e0 	ldr	w0, [sp, #308]
    c6d8:	321f0000 	orr	w0, w0, #0x2
    c6dc:	b90137e0 	str	w0, [sp, #308]
    c6e0:	b94137e0 	ldr	w0, [sp, #308]
    c6e4:	94009b68 	bl	33484 <error@@Base+0x28d7c>
    c6e8:	f94057e4 	ldr	x4, [sp, #168]
    c6ec:	aa1303e1 	mov	x1, x19
    c6f0:	f94063e3 	ldr	x3, [sp, #192]
    c6f4:	aa1a03e0 	mov	x0, x26
    c6f8:	52800002 	mov	w2, #0x0                   	// #0
    c6fc:	94009ada 	bl	33264 <error@@Base+0x28b5c>
    c700:	b9001300 	str	w0, [x24, #16]
    c704:	b2407fe1 	mov	x1, #0xffffffff            	// #4294967295
    c708:	eb01001f 	cmp	x0, x1
    c70c:	54000089 	b.ls	c71c <error@@Base+0x2014>  // b.plast
    c710:	b94137e0 	ldr	w0, [sp, #308]
    c714:	321f0000 	orr	w0, w0, #0x2
    c718:	b90137e0 	str	w0, [sp, #308]
    c71c:	b94137e0 	ldr	w0, [sp, #308]
    c720:	2a1703f8 	mov	w24, w23
    c724:	94009b58 	bl	33484 <error@@Base+0x28d7c>
    c728:	14000215 	b	cf7c <error@@Base+0x2874>
    c72c:	528000a2 	mov	w2, #0x5                   	// #5
    c730:	d00001c1 	adrp	x1, 46000 <error@@Base+0x3b8f8>
    c734:	d2800000 	mov	x0, #0x0                   	// #0
    c738:	91384021 	add	x1, x1, #0xe10
    c73c:	f90057e3 	str	x3, [sp, #168]
    c740:	97fff0b4 	bl	8a10 <dcgettext@plt>
    c744:	f94057e3 	ldr	x3, [sp, #168]
    c748:	aa0003e1 	mov	x1, x0
    c74c:	2a1703e2 	mov	w2, w23
    c750:	52800020 	mov	w0, #0x1                   	// #1
    c754:	cb1a0063 	sub	x3, x3, x26
    c758:	97ffef86 	bl	8570 <__printf_chk@plt>
    c75c:	710006ff 	cmp	w23, #0x1
    c760:	540040e1 	b.ne	cf7c <error@@Base+0x2874>  // b.any
    c764:	1400014e 	b	cc9c <error@@Base+0x2594>
    c768:	aa1603e1 	mov	x1, x22
    c76c:	9104d3e4 	add	x4, sp, #0x134
    c770:	9104c3e3 	add	x3, sp, #0x130
    c774:	52800002 	mov	w2, #0x0                   	// #0
    c778:	aa1703e0 	mov	x0, x23
    c77c:	94009aba 	bl	33264 <error@@Base+0x28b5c>
    c780:	aa0003fa 	mov	x26, x0
    c784:	b94137e0 	ldr	w0, [sp, #308]
    c788:	b94133f3 	ldr	w19, [sp, #304]
    c78c:	8b1302f3 	add	x19, x23, x19
    c790:	94009b3d 	bl	33484 <error@@Base+0x28d7c>
    c794:	394567e1 	ldrb	w1, [sp, #345]
    c798:	7100043f 	cmp	w1, #0x1
    c79c:	54000121 	b.ne	c7c0 <error@@Base+0x20b8>  // b.any
    c7a0:	394563e0 	ldrb	w0, [sp, #344]
    c7a4:	f9404a81 	ldr	x1, [x20, #144]
    c7a8:	9b1a7c00 	mul	x0, x0, x26
    c7ac:	8b000021 	add	x1, x1, x0
    c7b0:	f9004a81 	str	x1, [x20, #144]
    c7b4:	b4003e40 	cbz	x0, cf7c <error@@Base+0x2874>
    c7b8:	b9009a9f 	str	wzr, [x20, #152]
    c7bc:	140001f0 	b	cf7c <error@@Base+0x2874>
    c7c0:	90000340 	adrp	x0, 74000 <error@@Base+0x698f8>
    c7c4:	91078003 	add	x3, x0, #0x1e0
    c7c8:	394563e2 	ldrb	w2, [sp, #344]
    c7cc:	3942c064 	ldrb	w4, [x3, #176]
    c7d0:	f9404865 	ldr	x5, [x3, #144]
    c7d4:	8b1a0080 	add	x0, x4, x26
    c7d8:	9ac10804 	udiv	x4, x0, x1
    c7dc:	1b047c42 	mul	w2, w2, w4
    c7e0:	9b018084 	msub	x4, x4, x1, x0
    c7e4:	3902c064 	strb	w4, [x3, #176]
    c7e8:	8b2240a0 	add	x0, x5, w2, uxtw
    c7ec:	f9004860 	str	x0, [x3, #144]
    c7f0:	34003c62 	cbz	w2, cf7c <error@@Base+0x2874>
    c7f4:	b900987f 	str	wzr, [x3, #152]
    c7f8:	140001e1 	b	cf7c <error@@Base+0x2874>
    c7fc:	9104d3e4 	add	x4, sp, #0x134
    c800:	9104c3e3 	add	x3, sp, #0x130
    c804:	aa1603e1 	mov	x1, x22
    c808:	aa1703e0 	mov	x0, x23
    c80c:	52800022 	mov	w2, #0x1                   	// #1
    c810:	94009a95 	bl	33264 <error@@Base+0x28b5c>
    c814:	b94133f3 	ldr	w19, [sp, #304]
    c818:	aa0003fa 	mov	x26, x0
    c81c:	8b1302f3 	add	x19, x23, x19
    c820:	eb20c01f 	cmp	x0, w0, sxtw
    c824:	54000080 	b.eq	c834 <error@@Base+0x212c>  // b.none
    c828:	b94137e0 	ldr	w0, [sp, #308]
    c82c:	321f0000 	orr	w0, w0, #0x2
    c830:	b90137e0 	str	w0, [sp, #308]
    c834:	b94137e0 	ldr	w0, [sp, #308]
    c838:	94009b13 	bl	33484 <error@@Base+0x28d7c>
    c83c:	90000341 	adrp	x1, 74000 <error@@Base+0x698f8>
    c840:	91078021 	add	x1, x1, #0x1e0
    c844:	b940a020 	ldr	w0, [x1, #160]
    c848:	0b1a0000 	add	w0, w0, w26
    c84c:	b900a020 	str	w0, [x1, #160]
    c850:	140001cb 	b	cf7c <error@@Base+0x2874>
    c854:	aa1603e1 	mov	x1, x22
    c858:	9104d3e4 	add	x4, sp, #0x134
    c85c:	9104c3e3 	add	x3, sp, #0x130
    c860:	52800002 	mov	w2, #0x0                   	// #0
    c864:	aa1703e0 	mov	x0, x23
    c868:	94009a7f 	bl	33264 <error@@Base+0x28b5c>
    c86c:	aa0003fa 	mov	x26, x0
    c870:	b94137e0 	ldr	w0, [sp, #308]
    c874:	b94133f3 	ldr	w19, [sp, #304]
    c878:	94009b03 	bl	33484 <error@@Base+0x28d7c>
    c87c:	794293e0 	ldrh	w0, [sp, #328]
    c880:	90000341 	adrp	x1, 74000 <error@@Base+0x698f8>
    c884:	7100141f 	cmp	w0, #0x5
    c888:	b9027c3a 	str	w26, [x1, #636]
    c88c:	5a1f035a 	sbc	w26, w26, wzr
    c890:	f10002bf 	cmp	x21, #0x0
    c894:	7a401b04 	ccmp	w24, #0x0, #0x4, ne	// ne = any
    c898:	540000c1 	b.ne	c8b0 <error@@Base+0x21a8>  // b.any
    c89c:	d00001c1 	adrp	x1, 46000 <error@@Base+0x3b8f8>
    c8a0:	528000a2 	mov	w2, #0x5                   	// #5
    c8a4:	9138c021 	add	x1, x1, #0xe30
    c8a8:	d2800000 	mov	x0, #0x0                   	// #0
    c8ac:	1400000f 	b	c8e8 <error@@Base+0x21e0>
    c8b0:	6b1a031f 	cmp	w24, w26
    c8b4:	54000288 	b.hi	c904 <error@@Base+0x21fc>  // b.pmore
    c8b8:	528000a2 	mov	w2, #0x5                   	// #5
    c8bc:	d00001c1 	adrp	x1, 46000 <error@@Base+0x3b8f8>
    c8c0:	d2800000 	mov	x0, #0x0                   	// #0
    c8c4:	91394021 	add	x1, x1, #0xe50
    c8c8:	97fff052 	bl	8a10 <dcgettext@plt>
    c8cc:	2a1803e2 	mov	w2, w24
    c8d0:	2a1a03e1 	mov	w1, w26
    c8d4:	97fff145 	bl	8de8 <warn@@Base>
    c8d8:	d00001c1 	adrp	x1, 46000 <error@@Base+0x3b8f8>
    c8dc:	9139e021 	add	x1, x1, #0xe78
    c8e0:	528000a2 	mov	w2, #0x5                   	// #5
    c8e4:	d2800000 	mov	x0, #0x0                   	// #0
    c8e8:	97fff04a 	bl	8a10 <dcgettext@plt>
    c8ec:	aa0003e1 	mov	x1, x0
    c8f0:	2a1a03e2 	mov	w2, w26
    c8f4:	52800020 	mov	w0, #0x1                   	// #1
    c8f8:	97ffef1e 	bl	8570 <__printf_chk@plt>
    c8fc:	8b3342f3 	add	x19, x23, w19, uxtw
    c900:	1400019f 	b	cf7c <error@@Base+0x2874>
    c904:	52800301 	mov	w1, #0x18                  	// #24
    c908:	9ba1575a 	umaddl	x26, w26, w1, x21
    c90c:	b9400b5b 	ldr	w27, [x26, #8]
    c910:	350001fb 	cbnz	w27, c94c <error@@Base+0x2244>
    c914:	7100101f 	cmp	w0, #0x4
    c918:	54000128 	b.hi	c93c <error@@Base+0x2234>  // b.pmore
    c91c:	f9400340 	ldr	x0, [x26]
    c920:	9400bf78 	bl	3c700 <error@@Base+0x31ff8>
    c924:	aa0003e2 	mov	x2, x0
    c928:	d00001c1 	adrp	x1, 46000 <error@@Base+0x3b8f8>
    c92c:	52800020 	mov	w0, #0x1                   	// #1
    c930:	913a8021 	add	x1, x1, #0xea0
    c934:	97ffef0f 	bl	8570 <__printf_chk@plt>
    c938:	17fffff1 	b	c8fc <error@@Base+0x21f4>
    c93c:	f100039f 	cmp	x28, #0x0
    c940:	7a401b24 	ccmp	w25, #0x0, #0x4, ne	// ne = any
    c944:	54000541 	b.ne	c9ec <error@@Base+0x22e4>  // b.any
    c948:	14000004 	b	c958 <error@@Base+0x2250>
    c94c:	f100039f 	cmp	x28, #0x0
    c950:	7a401b24 	ccmp	w25, #0x0, #0x4, ne	// ne = any
    c954:	54000201 	b.ne	c994 <error@@Base+0x228c>  // b.any
    c958:	528000a2 	mov	w2, #0x5                   	// #5
    c95c:	d00001c1 	adrp	x1, 46000 <error@@Base+0x3b8f8>
    c960:	d2800000 	mov	x0, #0x0                   	// #0
    c964:	913ac021 	add	x1, x1, #0xeb0
    c968:	97fff02a 	bl	8a10 <dcgettext@plt>
    c96c:	aa0003e1 	mov	x1, x0
    c970:	f9400340 	ldr	x0, [x26]
    c974:	aa0103fa 	mov	x26, x1
    c978:	9400bf62 	bl	3c700 <error@@Base+0x31ff8>
    c97c:	aa0003e2 	mov	x2, x0
    c980:	2a1b03e3 	mov	w3, w27
    c984:	aa1a03e1 	mov	x1, x26
    c988:	52800020 	mov	w0, #0x1                   	// #1
    c98c:	97ffeef9 	bl	8570 <__printf_chk@plt>
    c990:	17ffffdb 	b	c8fc <error@@Base+0x21f4>
    c994:	7100141f 	cmp	w0, #0x5
    c998:	5a1f037b 	sbc	w27, w27, wzr
    c99c:	6b1b033f 	cmp	w25, w27
    c9a0:	54000268 	b.hi	c9ec <error@@Base+0x22e4>  // b.pmore
    c9a4:	528000a2 	mov	w2, #0x5                   	// #5
    c9a8:	d00001c1 	adrp	x1, 46000 <error@@Base+0x3b8f8>
    c9ac:	d2800000 	mov	x0, #0x0                   	// #0
    c9b0:	9134a021 	add	x1, x1, #0xd28
    c9b4:	97fff017 	bl	8a10 <dcgettext@plt>
    c9b8:	2a1903e2 	mov	w2, w25
    c9bc:	2a1b03e1 	mov	w1, w27
    c9c0:	97fff10a 	bl	8de8 <warn@@Base>
    c9c4:	528000a2 	mov	w2, #0x5                   	// #5
    c9c8:	d00001c1 	adrp	x1, 46000 <error@@Base+0x3b8f8>
    c9cc:	d2800000 	mov	x0, #0x0                   	// #0
    c9d0:	913b8021 	add	x1, x1, #0xee0
    c9d4:	97fff00f 	bl	8a10 <dcgettext@plt>
    c9d8:	aa0003e1 	mov	x1, x0
    c9dc:	2a1b03e2 	mov	w2, w27
    c9e0:	52800020 	mov	w0, #0x1                   	// #1
    c9e4:	97ffeee3 	bl	8570 <__printf_chk@plt>
    c9e8:	17ffffc5 	b	c8fc <error@@Base+0x21f4>
    c9ec:	f87b5b80 	ldr	x0, [x28, w27, uxtw #3]
    c9f0:	9400bf44 	bl	3c700 <error@@Base+0x31ff8>
    c9f4:	aa0003e1 	mov	x1, x0
    c9f8:	f9400340 	ldr	x0, [x26]
    c9fc:	aa0103fa 	mov	x26, x1
    ca00:	9400bf40 	bl	3c700 <error@@Base+0x31ff8>
    ca04:	aa0003e3 	mov	x3, x0
    ca08:	aa1a03e2 	mov	x2, x26
    ca0c:	d00001c1 	adrp	x1, 46000 <error@@Base+0x3b8f8>
    ca10:	52800020 	mov	w0, #0x1                   	// #1
    ca14:	913c4021 	add	x1, x1, #0xf10
    ca18:	97ffeed6 	bl	8570 <__printf_chk@plt>
    ca1c:	17ffffb8 	b	c8fc <error@@Base+0x21f4>
    ca20:	9104d3e4 	add	x4, sp, #0x134
    ca24:	9104c3e3 	add	x3, sp, #0x130
    ca28:	aa1603e1 	mov	x1, x22
    ca2c:	52800002 	mov	w2, #0x0                   	// #0
    ca30:	aa1703e0 	mov	x0, x23
    ca34:	94009a0c 	bl	33264 <error@@Base+0x28b5c>
    ca38:	aa0003fa 	mov	x26, x0
    ca3c:	b94137e0 	ldr	w0, [sp, #308]
    ca40:	b94133f3 	ldr	w19, [sp, #304]
    ca44:	8b1302f3 	add	x19, x23, x19
    ca48:	94009a8f 	bl	33484 <error@@Base+0x28d7c>
    ca4c:	90000340 	adrp	x0, 74000 <error@@Base+0x698f8>
    ca50:	b902841a 	str	w26, [x0, #644]
    ca54:	1400014a 	b	cf7c <error@@Base+0x2874>
    ca58:	90000340 	adrp	x0, 74000 <error@@Base+0x698f8>
    ca5c:	91078000 	add	x0, x0, #0x1e0
    ca60:	b940a801 	ldr	w1, [x0, #168]
    ca64:	7100003f 	cmp	w1, #0x0
    ca68:	1a9f17e1 	cset	w1, eq	// eq = none
    ca6c:	b900a801 	str	w1, [x0, #168]
    ca70:	1400013e 	b	cf68 <error@@Base+0x2860>
    ca74:	90000340 	adrp	x0, 74000 <error@@Base+0x698f8>
    ca78:	52800021 	mov	w1, #0x1                   	// #1
    ca7c:	b9028c01 	str	w1, [x0, #652]
    ca80:	1400013a 	b	cf68 <error@@Base+0x2860>
    ca84:	394583e2 	ldrb	w2, [sp, #352]
    ca88:	52801fe3 	mov	w3, #0xff                  	// #255
    ca8c:	4b000063 	sub	w3, w3, w0
    ca90:	90000341 	adrp	x1, 74000 <error@@Base+0x698f8>
    ca94:	91078021 	add	x1, x1, #0x1e0
    ca98:	394567e4 	ldrb	w4, [sp, #345]
    ca9c:	394563e0 	ldrb	w0, [sp, #344]
    caa0:	91024025 	add	x5, x1, #0x90
    caa4:	1ac20863 	udiv	w3, w3, w2
    caa8:	f9404822 	ldr	x2, [x1, #144]
    caac:	93407c67 	sxtw	x7, w3
    cab0:	7100049f 	cmp	w4, #0x1
    cab4:	540000c1 	b.ne	cacc <error@@Base+0x23c4>  // b.any
    cab8:	9b237c00 	smull	x0, w0, w3
    cabc:	8b020002 	add	x2, x0, x2
    cac0:	f9004822 	str	x2, [x1, #144]
    cac4:	b5000180 	cbnz	x0, caf4 <error@@Base+0x23ec>
    cac8:	14000128 	b	cf68 <error@@Base+0x2860>
    cacc:	394080a6 	ldrb	w6, [x5, #32]
    cad0:	2a0403e3 	mov	w3, w4
    cad4:	8b0700c6 	add	x6, x6, x7
    cad8:	9ac308c4 	udiv	x4, x6, x3
    cadc:	1b047c00 	mul	w0, w0, w4
    cae0:	9b039884 	msub	x4, x4, x3, x6
    cae4:	390080a4 	strb	w4, [x5, #32]
    cae8:	8b204042 	add	x2, x2, w0, uxtw
    caec:	f9004822 	str	x2, [x1, #144]
    caf0:	340023c0 	cbz	w0, cf68 <error@@Base+0x2860>
    caf4:	b90008bf 	str	wzr, [x5, #8]
    caf8:	1400011c 	b	cf68 <error@@Base+0x2860>
    cafc:	eb1702c0 	subs	x0, x22, x23
    cb00:	54000183 	b.cc	cb30 <error@@Base+0x2428>  // b.lo, b.ul, b.last
    cb04:	d2800053 	mov	x19, #0x2                   	// #2
    cb08:	f100041f 	cmp	x0, #0x1
    cb0c:	54000068 	b.hi	cb18 <error@@Base+0x2410>  // b.pmore
    cb10:	b4000160 	cbz	x0, cb3c <error@@Base+0x2434>
    cb14:	d2800033 	mov	x19, #0x1                   	// #1
    cb18:	b0000322 	adrp	x2, 71000 <error@@Base+0x668f8>
    cb1c:	2a1303e1 	mov	w1, w19
    cb20:	aa1703e0 	mov	x0, x23
    cb24:	f9473c42 	ldr	x2, [x2, #3704]
    cb28:	d63f0040 	blr	x2
    cb2c:	14000005 	b	cb40 <error@@Base+0x2438>
    cb30:	d2800013 	mov	x19, #0x0                   	// #0
    cb34:	d2800000 	mov	x0, #0x0                   	// #0
    cb38:	14000002 	b	cb40 <error@@Base+0x2438>
    cb3c:	d2800013 	mov	x19, #0x0                   	// #0
    cb40:	90000341 	adrp	x1, 74000 <error@@Base+0x698f8>
    cb44:	91078021 	add	x1, x1, #0x1e0
    cb48:	8b1302f3 	add	x19, x23, x19
    cb4c:	f9404822 	ldr	x2, [x1, #144]
    cb50:	3902c03f 	strb	wzr, [x1, #176]
    cb54:	8b000040 	add	x0, x2, x0
    cb58:	f9004820 	str	x0, [x1, #144]
    cb5c:	14000108 	b	cf7c <error@@Base+0x2874>
    cb60:	9104d3e4 	add	x4, sp, #0x134
    cb64:	9104c3e3 	add	x3, sp, #0x130
    cb68:	aa1603e1 	mov	x1, x22
    cb6c:	52800002 	mov	w2, #0x0                   	// #0
    cb70:	aa1703e0 	mov	x0, x23
    cb74:	940099bc 	bl	33264 <error@@Base+0x28b5c>
    cb78:	aa0003fa 	mov	x26, x0
    cb7c:	b94137e0 	ldr	w0, [sp, #308]
    cb80:	b94133f3 	ldr	w19, [sp, #304]
    cb84:	8b1302f3 	add	x19, x23, x19
    cb88:	94009a3f 	bl	33484 <error@@Base+0x28d7c>
    cb8c:	528000a2 	mov	w2, #0x5                   	// #5
    cb90:	d00001c1 	adrp	x1, 46000 <error@@Base+0x3b8f8>
